
ADC_TemperatureSensor.elf:     file format elf32-littlearm

Sections:
Idx Name          Size      VMA       LMA       File off  Algn
  0 .isr_vector   0000010c  08000000  08000000  00001000  2**0
                  CONTENTS, ALLOC, LOAD, READONLY, DATA
  1 .text         00005edc  08000110  08000110  00001110  2**3
                  CONTENTS, ALLOC, LOAD, READONLY, CODE
  2 .rodata       000003d4  08005ff0  08005ff0  00006ff0  2**3
                  CONTENTS, ALLOC, LOAD, READONLY, DATA
  3 .ARM.extab    00000000  080063c4  080063c4  000081d4  2**0
                  CONTENTS, READONLY
  4 .ARM          00000008  080063c4  080063c4  000073c4  2**2
                  CONTENTS, ALLOC, LOAD, READONLY, DATA
  5 .preinit_array 00000000  080063cc  080063cc  000081d4  2**0
                  CONTENTS, ALLOC, LOAD, DATA
  6 .init_array   00000004  080063cc  080063cc  000073cc  2**2
                  CONTENTS, ALLOC, LOAD, READONLY, DATA
  7 .fini_array   00000004  080063d0  080063d0  000073d0  2**2
                  CONTENTS, ALLOC, LOAD, READONLY, DATA
  8 .data         000001d4  20000000  080063d4  00008000  2**2
                  CONTENTS, ALLOC, LOAD, DATA
  9 .bss          000001e8  200001d4  080065a8  000081d4  2**2
                  ALLOC
 10 ._user_heap_stack 00000604  200003bc  080065a8  000083bc  2**0
                  ALLOC
 11 .ARM.attributes 00000029  00000000  00000000  000081d4  2**0
                  CONTENTS, READONLY
 12 .debug_info   00008e17  00000000  00000000  000081fd  2**0
                  CONTENTS, READONLY, DEBUGGING, OCTETS
 13 .debug_abbrev 00001b5d  00000000  00000000  00011014  2**0
                  CONTENTS, READONLY, DEBUGGING, OCTETS
 14 .debug_aranges 00000880  00000000  00000000  00012b78  2**3
                  CONTENTS, READONLY, DEBUGGING, OCTETS
 15 .debug_rnglists 00000674  00000000  00000000  000133f8  2**0
                  CONTENTS, READONLY, DEBUGGING, OCTETS
 16 .debug_macro  00018473  00000000  00000000  00013a6c  2**0
                  CONTENTS, READONLY, DEBUGGING, OCTETS
 17 .debug_line   0000a7ac  00000000  00000000  0002bedf  2**0
                  CONTENTS, READONLY, DEBUGGING, OCTETS
 18 .debug_str    00088ffd  00000000  00000000  0003668b  2**0
                  CONTENTS, READONLY, DEBUGGING, OCTETS
 19 .comment      00000043  00000000  00000000  000bf688  2**0
                  CONTENTS, READONLY
 20 .debug_frame  00003230  00000000  00000000  000bf6cc  2**2
                  CONTENTS, READONLY, DEBUGGING, OCTETS
 21 .debug_line_str 0000006e  00000000  00000000  000c28fc  2**0
                  CONTENTS, READONLY, DEBUGGING, OCTETS

Disassembly of section .text:

08000110 <__do_global_dtors_aux>:
 8000110:	b510      	push	{r4, lr}
 8000112:	4c05      	ldr	r4, [pc, #20]	@ (8000128 <__do_global_dtors_aux+0x18>)
 8000114:	7823      	ldrb	r3, [r4, #0]
 8000116:	b933      	cbnz	r3, 8000126 <__do_global_dtors_aux+0x16>
 8000118:	4b04      	ldr	r3, [pc, #16]	@ (800012c <__do_global_dtors_aux+0x1c>)
 800011a:	b113      	cbz	r3, 8000122 <__do_global_dtors_aux+0x12>
 800011c:	4804      	ldr	r0, [pc, #16]	@ (8000130 <__do_global_dtors_aux+0x20>)
 800011e:	f3af 8000 	nop.w
 8000122:	2301      	movs	r3, #1
 8000124:	7023      	strb	r3, [r4, #0]
 8000126:	bd10      	pop	{r4, pc}
 8000128:	200001d4 	.word	0x200001d4
 800012c:	00000000 	.word	0x00000000
 8000130:	08005fd4 	.word	0x08005fd4

08000134 <frame_dummy>:
 8000134:	b508      	push	{r3, lr}
 8000136:	4b03      	ldr	r3, [pc, #12]	@ (8000144 <frame_dummy+0x10>)
 8000138:	b11b      	cbz	r3, 8000142 <frame_dummy+0xe>
 800013a:	4903      	ldr	r1, [pc, #12]	@ (8000148 <frame_dummy+0x14>)
 800013c:	4803      	ldr	r0, [pc, #12]	@ (800014c <frame_dummy+0x18>)
 800013e:	f3af 8000 	nop.w
 8000142:	bd08      	pop	{r3, pc}
 8000144:	00000000 	.word	0x00000000
 8000148:	200001d8 	.word	0x200001d8
 800014c:	08005fd4 	.word	0x08005fd4

08000150 <strlen>:
 8000150:	4603      	mov	r3, r0
 8000152:	f813 2b01 	ldrb.w	r2, [r3], #1
 8000156:	2a00      	cmp	r2, #0
 8000158:	d1fb      	bne.n	8000152 <strlen+0x2>
 800015a:	1a18      	subs	r0, r3, r0
 800015c:	3801      	subs	r0, #1
 800015e:	4770      	bx	lr

08000160 <__aeabi_drsub>:
 8000160:	f081 4100 	eor.w	r1, r1, #2147483648	@ 0x80000000
 8000164:	e002      	b.n	800016c <__adddf3>
 8000166:	bf00      	nop

08000168 <__aeabi_dsub>:
 8000168:	f083 4300 	eor.w	r3, r3, #2147483648	@ 0x80000000

0800016c <__adddf3>:
 800016c:	b530      	push	{r4, r5, lr}
 800016e:	ea4f 0441 	mov.w	r4, r1, lsl #1
 8000172:	ea4f 0543 	mov.w	r5, r3, lsl #1
 8000176:	ea94 0f05 	teq	r4, r5
 800017a:	bf08      	it	eq
 800017c:	ea90 0f02 	teqeq	r0, r2
 8000180:	bf1f      	itttt	ne
 8000182:	ea54 0c00 	orrsne.w	ip, r4, r0
 8000186:	ea55 0c02 	orrsne.w	ip, r5, r2
 800018a:	ea7f 5c64 	mvnsne.w	ip, r4, asr #21
 800018e:	ea7f 5c65 	mvnsne.w	ip, r5, asr #21
 8000192:	f000 80e2 	beq.w	800035a <__adddf3+0x1ee>
 8000196:	ea4f 5454 	mov.w	r4, r4, lsr #21
 800019a:	ebd4 5555 	rsbs	r5, r4, r5, lsr #21
 800019e:	bfb8      	it	lt
 80001a0:	426d      	neglt	r5, r5
 80001a2:	dd0c      	ble.n	80001be <__adddf3+0x52>
 80001a4:	442c      	add	r4, r5
 80001a6:	ea80 0202 	eor.w	r2, r0, r2
 80001aa:	ea81 0303 	eor.w	r3, r1, r3
 80001ae:	ea82 0000 	eor.w	r0, r2, r0
 80001b2:	ea83 0101 	eor.w	r1, r3, r1
 80001b6:	ea80 0202 	eor.w	r2, r0, r2
 80001ba:	ea81 0303 	eor.w	r3, r1, r3
 80001be:	2d36      	cmp	r5, #54	@ 0x36
 80001c0:	bf88      	it	hi
 80001c2:	bd30      	pophi	{r4, r5, pc}
 80001c4:	f011 4f00 	tst.w	r1, #2147483648	@ 0x80000000
 80001c8:	ea4f 3101 	mov.w	r1, r1, lsl #12
 80001cc:	f44f 1c80 	mov.w	ip, #1048576	@ 0x100000
 80001d0:	ea4c 3111 	orr.w	r1, ip, r1, lsr #12
 80001d4:	d002      	beq.n	80001dc <__adddf3+0x70>
 80001d6:	4240      	negs	r0, r0
 80001d8:	eb61 0141 	sbc.w	r1, r1, r1, lsl #1
 80001dc:	f013 4f00 	tst.w	r3, #2147483648	@ 0x80000000
 80001e0:	ea4f 3303 	mov.w	r3, r3, lsl #12
 80001e4:	ea4c 3313 	orr.w	r3, ip, r3, lsr #12
 80001e8:	d002      	beq.n	80001f0 <__adddf3+0x84>
 80001ea:	4252      	negs	r2, r2
 80001ec:	eb63 0343 	sbc.w	r3, r3, r3, lsl #1
 80001f0:	ea94 0f05 	teq	r4, r5
 80001f4:	f000 80a7 	beq.w	8000346 <__adddf3+0x1da>
 80001f8:	f1a4 0401 	sub.w	r4, r4, #1
 80001fc:	f1d5 0e20 	rsbs	lr, r5, #32
 8000200:	db0d      	blt.n	800021e <__adddf3+0xb2>
 8000202:	fa02 fc0e 	lsl.w	ip, r2, lr
 8000206:	fa22 f205 	lsr.w	r2, r2, r5
 800020a:	1880      	adds	r0, r0, r2
 800020c:	f141 0100 	adc.w	r1, r1, #0
 8000210:	fa03 f20e 	lsl.w	r2, r3, lr
 8000214:	1880      	adds	r0, r0, r2
 8000216:	fa43 f305 	asr.w	r3, r3, r5
 800021a:	4159      	adcs	r1, r3
 800021c:	e00e      	b.n	800023c <__adddf3+0xd0>
 800021e:	f1a5 0520 	sub.w	r5, r5, #32
 8000222:	f10e 0e20 	add.w	lr, lr, #32
 8000226:	2a01      	cmp	r2, #1
 8000228:	fa03 fc0e 	lsl.w	ip, r3, lr
 800022c:	bf28      	it	cs
 800022e:	f04c 0c02 	orrcs.w	ip, ip, #2
 8000232:	fa43 f305 	asr.w	r3, r3, r5
 8000236:	18c0      	adds	r0, r0, r3
 8000238:	eb51 71e3 	adcs.w	r1, r1, r3, asr #31
 800023c:	f001 4500 	and.w	r5, r1, #2147483648	@ 0x80000000
 8000240:	d507      	bpl.n	8000252 <__adddf3+0xe6>
 8000242:	f04f 0e00 	mov.w	lr, #0
 8000246:	f1dc 0c00 	rsbs	ip, ip, #0
 800024a:	eb7e 0000 	sbcs.w	r0, lr, r0
 800024e:	eb6e 0101 	sbc.w	r1, lr, r1
 8000252:	f5b1 1f80 	cmp.w	r1, #1048576	@ 0x100000
 8000256:	d31b      	bcc.n	8000290 <__adddf3+0x124>
 8000258:	f5b1 1f00 	cmp.w	r1, #2097152	@ 0x200000
 800025c:	d30c      	bcc.n	8000278 <__adddf3+0x10c>
 800025e:	0849      	lsrs	r1, r1, #1
 8000260:	ea5f 0030 	movs.w	r0, r0, rrx
 8000264:	ea4f 0c3c 	mov.w	ip, ip, rrx
 8000268:	f104 0401 	add.w	r4, r4, #1
 800026c:	ea4f 5244 	mov.w	r2, r4, lsl #21
 8000270:	f512 0f80 	cmn.w	r2, #4194304	@ 0x400000
 8000274:	f080 809a 	bcs.w	80003ac <__adddf3+0x240>
 8000278:	f1bc 4f00 	cmp.w	ip, #2147483648	@ 0x80000000
 800027c:	bf08      	it	eq
 800027e:	ea5f 0c50 	movseq.w	ip, r0, lsr #1
 8000282:	f150 0000 	adcs.w	r0, r0, #0
 8000286:	eb41 5104 	adc.w	r1, r1, r4, lsl #20
 800028a:	ea41 0105 	orr.w	r1, r1, r5
 800028e:	bd30      	pop	{r4, r5, pc}
 8000290:	ea5f 0c4c 	movs.w	ip, ip, lsl #1
 8000294:	4140      	adcs	r0, r0
 8000296:	eb41 0101 	adc.w	r1, r1, r1
 800029a:	3c01      	subs	r4, #1
 800029c:	bf28      	it	cs
 800029e:	f5b1 1f80 	cmpcs.w	r1, #1048576	@ 0x100000
 80002a2:	d2e9      	bcs.n	8000278 <__adddf3+0x10c>
 80002a4:	f091 0f00 	teq	r1, #0
 80002a8:	bf04      	itt	eq
 80002aa:	4601      	moveq	r1, r0
 80002ac:	2000      	moveq	r0, #0
 80002ae:	fab1 f381 	clz	r3, r1
 80002b2:	bf08      	it	eq
 80002b4:	3320      	addeq	r3, #32
 80002b6:	f1a3 030b 	sub.w	r3, r3, #11
 80002ba:	f1b3 0220 	subs.w	r2, r3, #32
 80002be:	da0c      	bge.n	80002da <__adddf3+0x16e>
 80002c0:	320c      	adds	r2, #12
 80002c2:	dd08      	ble.n	80002d6 <__adddf3+0x16a>
 80002c4:	f102 0c14 	add.w	ip, r2, #20
 80002c8:	f1c2 020c 	rsb	r2, r2, #12
 80002cc:	fa01 f00c 	lsl.w	r0, r1, ip
 80002d0:	fa21 f102 	lsr.w	r1, r1, r2
 80002d4:	e00c      	b.n	80002f0 <__adddf3+0x184>
 80002d6:	f102 0214 	add.w	r2, r2, #20
 80002da:	bfd8      	it	le
 80002dc:	f1c2 0c20 	rsble	ip, r2, #32
 80002e0:	fa01 f102 	lsl.w	r1, r1, r2
 80002e4:	fa20 fc0c 	lsr.w	ip, r0, ip
 80002e8:	bfdc      	itt	le
 80002ea:	ea41 010c 	orrle.w	r1, r1, ip
 80002ee:	4090      	lslle	r0, r2
 80002f0:	1ae4      	subs	r4, r4, r3
 80002f2:	bfa2      	ittt	ge
 80002f4:	eb01 5104 	addge.w	r1, r1, r4, lsl #20
 80002f8:	4329      	orrge	r1, r5
 80002fa:	bd30      	popge	{r4, r5, pc}
 80002fc:	ea6f 0404 	mvn.w	r4, r4
 8000300:	3c1f      	subs	r4, #31
 8000302:	da1c      	bge.n	800033e <__adddf3+0x1d2>
 8000304:	340c      	adds	r4, #12
 8000306:	dc0e      	bgt.n	8000326 <__adddf3+0x1ba>
 8000308:	f104 0414 	add.w	r4, r4, #20
 800030c:	f1c4 0220 	rsb	r2, r4, #32
 8000310:	fa20 f004 	lsr.w	r0, r0, r4
 8000314:	fa01 f302 	lsl.w	r3, r1, r2
 8000318:	ea40 0003 	orr.w	r0, r0, r3
 800031c:	fa21 f304 	lsr.w	r3, r1, r4
 8000320:	ea45 0103 	orr.w	r1, r5, r3
 8000324:	bd30      	pop	{r4, r5, pc}
 8000326:	f1c4 040c 	rsb	r4, r4, #12
 800032a:	f1c4 0220 	rsb	r2, r4, #32
 800032e:	fa20 f002 	lsr.w	r0, r0, r2
 8000332:	fa01 f304 	lsl.w	r3, r1, r4
 8000336:	ea40 0003 	orr.w	r0, r0, r3
 800033a:	4629      	mov	r1, r5
 800033c:	bd30      	pop	{r4, r5, pc}
 800033e:	fa21 f004 	lsr.w	r0, r1, r4
 8000342:	4629      	mov	r1, r5
 8000344:	bd30      	pop	{r4, r5, pc}
 8000346:	f094 0f00 	teq	r4, #0
 800034a:	f483 1380 	eor.w	r3, r3, #1048576	@ 0x100000
 800034e:	bf06      	itte	eq
 8000350:	f481 1180 	eoreq.w	r1, r1, #1048576	@ 0x100000
 8000354:	3401      	addeq	r4, #1
 8000356:	3d01      	subne	r5, #1
 8000358:	e74e      	b.n	80001f8 <__adddf3+0x8c>
 800035a:	ea7f 5c64 	mvns.w	ip, r4, asr #21
 800035e:	bf18      	it	ne
 8000360:	ea7f 5c65 	mvnsne.w	ip, r5, asr #21
 8000364:	d029      	beq.n	80003ba <__adddf3+0x24e>
 8000366:	ea94 0f05 	teq	r4, r5
 800036a:	bf08      	it	eq
 800036c:	ea90 0f02 	teqeq	r0, r2
 8000370:	d005      	beq.n	800037e <__adddf3+0x212>
 8000372:	ea54 0c00 	orrs.w	ip, r4, r0
 8000376:	bf04      	itt	eq
 8000378:	4619      	moveq	r1, r3
 800037a:	4610      	moveq	r0, r2
 800037c:	bd30      	pop	{r4, r5, pc}
 800037e:	ea91 0f03 	teq	r1, r3
 8000382:	bf1e      	ittt	ne
 8000384:	2100      	movne	r1, #0
 8000386:	2000      	movne	r0, #0
 8000388:	bd30      	popne	{r4, r5, pc}
 800038a:	ea5f 5c54 	movs.w	ip, r4, lsr #21
 800038e:	d105      	bne.n	800039c <__adddf3+0x230>
 8000390:	0040      	lsls	r0, r0, #1
 8000392:	4149      	adcs	r1, r1
 8000394:	bf28      	it	cs
 8000396:	f041 4100 	orrcs.w	r1, r1, #2147483648	@ 0x80000000
 800039a:	bd30      	pop	{r4, r5, pc}
 800039c:	f514 0480 	adds.w	r4, r4, #4194304	@ 0x400000
 80003a0:	bf3c      	itt	cc
 80003a2:	f501 1180 	addcc.w	r1, r1, #1048576	@ 0x100000
 80003a6:	bd30      	popcc	{r4, r5, pc}
 80003a8:	f001 4500 	and.w	r5, r1, #2147483648	@ 0x80000000
 80003ac:	f045 41fe 	orr.w	r1, r5, #2130706432	@ 0x7f000000
 80003b0:	f441 0170 	orr.w	r1, r1, #15728640	@ 0xf00000
 80003b4:	f04f 0000 	mov.w	r0, #0
 80003b8:	bd30      	pop	{r4, r5, pc}
 80003ba:	ea7f 5c64 	mvns.w	ip, r4, asr #21
 80003be:	bf1a      	itte	ne
 80003c0:	4619      	movne	r1, r3
 80003c2:	4610      	movne	r0, r2
 80003c4:	ea7f 5c65 	mvnseq.w	ip, r5, asr #21
 80003c8:	bf1c      	itt	ne
 80003ca:	460b      	movne	r3, r1
 80003cc:	4602      	movne	r2, r0
 80003ce:	ea50 3401 	orrs.w	r4, r0, r1, lsl #12
 80003d2:	bf06      	itte	eq
 80003d4:	ea52 3503 	orrseq.w	r5, r2, r3, lsl #12
 80003d8:	ea91 0f03 	teqeq	r1, r3
 80003dc:	f441 2100 	orrne.w	r1, r1, #524288	@ 0x80000
 80003e0:	bd30      	pop	{r4, r5, pc}
 80003e2:	bf00      	nop

080003e4 <__aeabi_ui2d>:
 80003e4:	f090 0f00 	teq	r0, #0
 80003e8:	bf04      	itt	eq
 80003ea:	2100      	moveq	r1, #0
 80003ec:	4770      	bxeq	lr
 80003ee:	b530      	push	{r4, r5, lr}
 80003f0:	f44f 6480 	mov.w	r4, #1024	@ 0x400
 80003f4:	f104 0432 	add.w	r4, r4, #50	@ 0x32
 80003f8:	f04f 0500 	mov.w	r5, #0
 80003fc:	f04f 0100 	mov.w	r1, #0
 8000400:	e750      	b.n	80002a4 <__adddf3+0x138>
 8000402:	bf00      	nop

08000404 <__aeabi_i2d>:
 8000404:	f090 0f00 	teq	r0, #0
 8000408:	bf04      	itt	eq
 800040a:	2100      	moveq	r1, #0
 800040c:	4770      	bxeq	lr
 800040e:	b530      	push	{r4, r5, lr}
 8000410:	f44f 6480 	mov.w	r4, #1024	@ 0x400
 8000414:	f104 0432 	add.w	r4, r4, #50	@ 0x32
 8000418:	f010 4500 	ands.w	r5, r0, #2147483648	@ 0x80000000
 800041c:	bf48      	it	mi
 800041e:	4240      	negmi	r0, r0
 8000420:	f04f 0100 	mov.w	r1, #0
 8000424:	e73e      	b.n	80002a4 <__adddf3+0x138>
 8000426:	bf00      	nop

08000428 <__aeabi_f2d>:
 8000428:	0042      	lsls	r2, r0, #1
 800042a:	ea4f 01e2 	mov.w	r1, r2, asr #3
 800042e:	ea4f 0131 	mov.w	r1, r1, rrx
 8000432:	ea4f 7002 	mov.w	r0, r2, lsl #28
 8000436:	bf1f      	itttt	ne
 8000438:	f012 437f 	andsne.w	r3, r2, #4278190080	@ 0xff000000
 800043c:	f093 4f7f 	teqne	r3, #4278190080	@ 0xff000000
 8000440:	f081 5160 	eorne.w	r1, r1, #939524096	@ 0x38000000
 8000444:	4770      	bxne	lr
 8000446:	f032 427f 	bics.w	r2, r2, #4278190080	@ 0xff000000
 800044a:	bf08      	it	eq
 800044c:	4770      	bxeq	lr
 800044e:	f093 4f7f 	teq	r3, #4278190080	@ 0xff000000
 8000452:	bf04      	itt	eq
 8000454:	f441 2100 	orreq.w	r1, r1, #524288	@ 0x80000
 8000458:	4770      	bxeq	lr
 800045a:	b530      	push	{r4, r5, lr}
 800045c:	f44f 7460 	mov.w	r4, #896	@ 0x380
 8000460:	f001 4500 	and.w	r5, r1, #2147483648	@ 0x80000000
 8000464:	f021 4100 	bic.w	r1, r1, #2147483648	@ 0x80000000
 8000468:	e71c      	b.n	80002a4 <__adddf3+0x138>
 800046a:	bf00      	nop

0800046c <__aeabi_ul2d>:
 800046c:	ea50 0201 	orrs.w	r2, r0, r1
 8000470:	bf08      	it	eq
 8000472:	4770      	bxeq	lr
 8000474:	b530      	push	{r4, r5, lr}
 8000476:	f04f 0500 	mov.w	r5, #0
 800047a:	e00a      	b.n	8000492 <__aeabi_l2d+0x16>

0800047c <__aeabi_l2d>:
 800047c:	ea50 0201 	orrs.w	r2, r0, r1
 8000480:	bf08      	it	eq
 8000482:	4770      	bxeq	lr
 8000484:	b530      	push	{r4, r5, lr}
 8000486:	f011 4500 	ands.w	r5, r1, #2147483648	@ 0x80000000
 800048a:	d502      	bpl.n	8000492 <__aeabi_l2d+0x16>
 800048c:	4240      	negs	r0, r0
 800048e:	eb61 0141 	sbc.w	r1, r1, r1, lsl #1
 8000492:	f44f 6480 	mov.w	r4, #1024	@ 0x400
 8000496:	f104 0432 	add.w	r4, r4, #50	@ 0x32
 800049a:	ea5f 5c91 	movs.w	ip, r1, lsr #22
 800049e:	f43f aed8 	beq.w	8000252 <__adddf3+0xe6>
 80004a2:	f04f 0203 	mov.w	r2, #3
 80004a6:	ea5f 0cdc 	movs.w	ip, ip, lsr #3
 80004aa:	bf18      	it	ne
 80004ac:	3203      	addne	r2, #3
 80004ae:	ea5f 0cdc 	movs.w	ip, ip, lsr #3
 80004b2:	bf18      	it	ne
 80004b4:	3203      	addne	r2, #3
 80004b6:	eb02 02dc 	add.w	r2, r2, ip, lsr #3
 80004ba:	f1c2 0320 	rsb	r3, r2, #32
 80004be:	fa00 fc03 	lsl.w	ip, r0, r3
 80004c2:	fa20 f002 	lsr.w	r0, r0, r2
 80004c6:	fa01 fe03 	lsl.w	lr, r1, r3
 80004ca:	ea40 000e 	orr.w	r0, r0, lr
 80004ce:	fa21 f102 	lsr.w	r1, r1, r2
 80004d2:	4414      	add	r4, r2
 80004d4:	e6bd      	b.n	8000252 <__adddf3+0xe6>
 80004d6:	bf00      	nop

080004d8 <__aeabi_dmul>:
 80004d8:	b570      	push	{r4, r5, r6, lr}
 80004da:	f04f 0cff 	mov.w	ip, #255	@ 0xff
 80004de:	f44c 6ce0 	orr.w	ip, ip, #1792	@ 0x700
 80004e2:	ea1c 5411 	ands.w	r4, ip, r1, lsr #20
 80004e6:	bf1d      	ittte	ne
 80004e8:	ea1c 5513 	andsne.w	r5, ip, r3, lsr #20
 80004ec:	ea94 0f0c 	teqne	r4, ip
 80004f0:	ea95 0f0c 	teqne	r5, ip
 80004f4:	f000 f8de 	bleq	80006b4 <__aeabi_dmul+0x1dc>
 80004f8:	442c      	add	r4, r5
 80004fa:	ea81 0603 	eor.w	r6, r1, r3
 80004fe:	ea21 514c 	bic.w	r1, r1, ip, lsl #21
 8000502:	ea23 534c 	bic.w	r3, r3, ip, lsl #21
 8000506:	ea50 3501 	orrs.w	r5, r0, r1, lsl #12
 800050a:	bf18      	it	ne
 800050c:	ea52 3503 	orrsne.w	r5, r2, r3, lsl #12
 8000510:	f441 1180 	orr.w	r1, r1, #1048576	@ 0x100000
 8000514:	f443 1380 	orr.w	r3, r3, #1048576	@ 0x100000
 8000518:	d038      	beq.n	800058c <__aeabi_dmul+0xb4>
 800051a:	fba0 ce02 	umull	ip, lr, r0, r2
 800051e:	f04f 0500 	mov.w	r5, #0
 8000522:	fbe1 e502 	umlal	lr, r5, r1, r2
 8000526:	f006 4200 	and.w	r2, r6, #2147483648	@ 0x80000000
 800052a:	fbe0 e503 	umlal	lr, r5, r0, r3
 800052e:	f04f 0600 	mov.w	r6, #0
 8000532:	fbe1 5603 	umlal	r5, r6, r1, r3
 8000536:	f09c 0f00 	teq	ip, #0
 800053a:	bf18      	it	ne
 800053c:	f04e 0e01 	orrne.w	lr, lr, #1
 8000540:	f1a4 04ff 	sub.w	r4, r4, #255	@ 0xff
 8000544:	f5b6 7f00 	cmp.w	r6, #512	@ 0x200
 8000548:	f564 7440 	sbc.w	r4, r4, #768	@ 0x300
 800054c:	d204      	bcs.n	8000558 <__aeabi_dmul+0x80>
 800054e:	ea5f 0e4e 	movs.w	lr, lr, lsl #1
 8000552:	416d      	adcs	r5, r5
 8000554:	eb46 0606 	adc.w	r6, r6, r6
 8000558:	ea42 21c6 	orr.w	r1, r2, r6, lsl #11
 800055c:	ea41 5155 	orr.w	r1, r1, r5, lsr #21
 8000560:	ea4f 20c5 	mov.w	r0, r5, lsl #11
 8000564:	ea40 505e 	orr.w	r0, r0, lr, lsr #21
 8000568:	ea4f 2ece 	mov.w	lr, lr, lsl #11
 800056c:	f1b4 0cfd 	subs.w	ip, r4, #253	@ 0xfd
 8000570:	bf88      	it	hi
 8000572:	f5bc 6fe0 	cmphi.w	ip, #1792	@ 0x700
 8000576:	d81e      	bhi.n	80005b6 <__aeabi_dmul+0xde>
 8000578:	f1be 4f00 	cmp.w	lr, #2147483648	@ 0x80000000
 800057c:	bf08      	it	eq
 800057e:	ea5f 0e50 	movseq.w	lr, r0, lsr #1
 8000582:	f150 0000 	adcs.w	r0, r0, #0
 8000586:	eb41 5104 	adc.w	r1, r1, r4, lsl #20
 800058a:	bd70      	pop	{r4, r5, r6, pc}
 800058c:	f006 4600 	and.w	r6, r6, #2147483648	@ 0x80000000
 8000590:	ea46 0101 	orr.w	r1, r6, r1
 8000594:	ea40 0002 	orr.w	r0, r0, r2
 8000598:	ea81 0103 	eor.w	r1, r1, r3
 800059c:	ebb4 045c 	subs.w	r4, r4, ip, lsr #1
 80005a0:	bfc2      	ittt	gt
 80005a2:	ebd4 050c 	rsbsgt	r5, r4, ip
 80005a6:	ea41 5104 	orrgt.w	r1, r1, r4, lsl #20
 80005aa:	bd70      	popgt	{r4, r5, r6, pc}
 80005ac:	f441 1180 	orr.w	r1, r1, #1048576	@ 0x100000
 80005b0:	f04f 0e00 	mov.w	lr, #0
 80005b4:	3c01      	subs	r4, #1
 80005b6:	f300 80ab 	bgt.w	8000710 <__aeabi_dmul+0x238>
 80005ba:	f114 0f36 	cmn.w	r4, #54	@ 0x36
 80005be:	bfde      	ittt	le
 80005c0:	2000      	movle	r0, #0
 80005c2:	f001 4100 	andle.w	r1, r1, #2147483648	@ 0x80000000
 80005c6:	bd70      	pople	{r4, r5, r6, pc}
 80005c8:	f1c4 0400 	rsb	r4, r4, #0
 80005cc:	3c20      	subs	r4, #32
 80005ce:	da35      	bge.n	800063c <__aeabi_dmul+0x164>
 80005d0:	340c      	adds	r4, #12
 80005d2:	dc1b      	bgt.n	800060c <__aeabi_dmul+0x134>
 80005d4:	f104 0414 	add.w	r4, r4, #20
 80005d8:	f1c4 0520 	rsb	r5, r4, #32
 80005dc:	fa00 f305 	lsl.w	r3, r0, r5
 80005e0:	fa20 f004 	lsr.w	r0, r0, r4
 80005e4:	fa01 f205 	lsl.w	r2, r1, r5
 80005e8:	ea40 0002 	orr.w	r0, r0, r2
 80005ec:	f001 4200 	and.w	r2, r1, #2147483648	@ 0x80000000
 80005f0:	f021 4100 	bic.w	r1, r1, #2147483648	@ 0x80000000
 80005f4:	eb10 70d3 	adds.w	r0, r0, r3, lsr #31
 80005f8:	fa21 f604 	lsr.w	r6, r1, r4
 80005fc:	eb42 0106 	adc.w	r1, r2, r6
 8000600:	ea5e 0e43 	orrs.w	lr, lr, r3, lsl #1
 8000604:	bf08      	it	eq
 8000606:	ea20 70d3 	biceq.w	r0, r0, r3, lsr #31
 800060a:	bd70      	pop	{r4, r5, r6, pc}
 800060c:	f1c4 040c 	rsb	r4, r4, #12
 8000610:	f1c4 0520 	rsb	r5, r4, #32
 8000614:	fa00 f304 	lsl.w	r3, r0, r4
 8000618:	fa20 f005 	lsr.w	r0, r0, r5
 800061c:	fa01 f204 	lsl.w	r2, r1, r4
 8000620:	ea40 0002 	orr.w	r0, r0, r2
 8000624:	f001 4100 	and.w	r1, r1, #2147483648	@ 0x80000000
 8000628:	eb10 70d3 	adds.w	r0, r0, r3, lsr #31
 800062c:	f141 0100 	adc.w	r1, r1, #0
 8000630:	ea5e 0e43 	orrs.w	lr, lr, r3, lsl #1
 8000634:	bf08      	it	eq
 8000636:	ea20 70d3 	biceq.w	r0, r0, r3, lsr #31
 800063a:	bd70      	pop	{r4, r5, r6, pc}
 800063c:	f1c4 0520 	rsb	r5, r4, #32
 8000640:	fa00 f205 	lsl.w	r2, r0, r5
 8000644:	ea4e 0e02 	orr.w	lr, lr, r2
 8000648:	fa20 f304 	lsr.w	r3, r0, r4
 800064c:	fa01 f205 	lsl.w	r2, r1, r5
 8000650:	ea43 0302 	orr.w	r3, r3, r2
 8000654:	fa21 f004 	lsr.w	r0, r1, r4
 8000658:	f001 4100 	and.w	r1, r1, #2147483648	@ 0x80000000
 800065c:	fa21 f204 	lsr.w	r2, r1, r4
 8000660:	ea20 0002 	bic.w	r0, r0, r2
 8000664:	eb00 70d3 	add.w	r0, r0, r3, lsr #31
 8000668:	ea5e 0e43 	orrs.w	lr, lr, r3, lsl #1
 800066c:	bf08      	it	eq
 800066e:	ea20 70d3 	biceq.w	r0, r0, r3, lsr #31
 8000672:	bd70      	pop	{r4, r5, r6, pc}
 8000674:	f094 0f00 	teq	r4, #0
 8000678:	d10f      	bne.n	800069a <__aeabi_dmul+0x1c2>
 800067a:	f001 4600 	and.w	r6, r1, #2147483648	@ 0x80000000
 800067e:	0040      	lsls	r0, r0, #1
 8000680:	eb41 0101 	adc.w	r1, r1, r1
 8000684:	f411 1f80 	tst.w	r1, #1048576	@ 0x100000
 8000688:	bf08      	it	eq
 800068a:	3c01      	subeq	r4, #1
 800068c:	d0f7      	beq.n	800067e <__aeabi_dmul+0x1a6>
 800068e:	ea41 0106 	orr.w	r1, r1, r6
 8000692:	f095 0f00 	teq	r5, #0
 8000696:	bf18      	it	ne
 8000698:	4770      	bxne	lr
 800069a:	f003 4600 	and.w	r6, r3, #2147483648	@ 0x80000000
 800069e:	0052      	lsls	r2, r2, #1
 80006a0:	eb43 0303 	adc.w	r3, r3, r3
 80006a4:	f413 1f80 	tst.w	r3, #1048576	@ 0x100000
 80006a8:	bf08      	it	eq
 80006aa:	3d01      	subeq	r5, #1
 80006ac:	d0f7      	beq.n	800069e <__aeabi_dmul+0x1c6>
 80006ae:	ea43 0306 	orr.w	r3, r3, r6
 80006b2:	4770      	bx	lr
 80006b4:	ea94 0f0c 	teq	r4, ip
 80006b8:	ea0c 5513 	and.w	r5, ip, r3, lsr #20
 80006bc:	bf18      	it	ne
 80006be:	ea95 0f0c 	teqne	r5, ip
 80006c2:	d00c      	beq.n	80006de <__aeabi_dmul+0x206>
 80006c4:	ea50 0641 	orrs.w	r6, r0, r1, lsl #1
 80006c8:	bf18      	it	ne
 80006ca:	ea52 0643 	orrsne.w	r6, r2, r3, lsl #1
 80006ce:	d1d1      	bne.n	8000674 <__aeabi_dmul+0x19c>
 80006d0:	ea81 0103 	eor.w	r1, r1, r3
 80006d4:	f001 4100 	and.w	r1, r1, #2147483648	@ 0x80000000
 80006d8:	f04f 0000 	mov.w	r0, #0
 80006dc:	bd70      	pop	{r4, r5, r6, pc}
 80006de:	ea50 0641 	orrs.w	r6, r0, r1, lsl #1
 80006e2:	bf06      	itte	eq
 80006e4:	4610      	moveq	r0, r2
 80006e6:	4619      	moveq	r1, r3
 80006e8:	ea52 0643 	orrsne.w	r6, r2, r3, lsl #1
 80006ec:	d019      	beq.n	8000722 <__aeabi_dmul+0x24a>
 80006ee:	ea94 0f0c 	teq	r4, ip
 80006f2:	d102      	bne.n	80006fa <__aeabi_dmul+0x222>
 80006f4:	ea50 3601 	orrs.w	r6, r0, r1, lsl #12
 80006f8:	d113      	bne.n	8000722 <__aeabi_dmul+0x24a>
 80006fa:	ea95 0f0c 	teq	r5, ip
 80006fe:	d105      	bne.n	800070c <__aeabi_dmul+0x234>
 8000700:	ea52 3603 	orrs.w	r6, r2, r3, lsl #12
 8000704:	bf1c      	itt	ne
 8000706:	4610      	movne	r0, r2
 8000708:	4619      	movne	r1, r3
 800070a:	d10a      	bne.n	8000722 <__aeabi_dmul+0x24a>
 800070c:	ea81 0103 	eor.w	r1, r1, r3
 8000710:	f001 4100 	and.w	r1, r1, #2147483648	@ 0x80000000
 8000714:	f041 41fe 	orr.w	r1, r1, #2130706432	@ 0x7f000000
 8000718:	f441 0170 	orr.w	r1, r1, #15728640	@ 0xf00000
 800071c:	f04f 0000 	mov.w	r0, #0
 8000720:	bd70      	pop	{r4, r5, r6, pc}
 8000722:	f041 41fe 	orr.w	r1, r1, #2130706432	@ 0x7f000000
 8000726:	f441 0178 	orr.w	r1, r1, #16252928	@ 0xf80000
 800072a:	bd70      	pop	{r4, r5, r6, pc}

0800072c <__aeabi_ddiv>:
 800072c:	b570      	push	{r4, r5, r6, lr}
 800072e:	f04f 0cff 	mov.w	ip, #255	@ 0xff
 8000732:	f44c 6ce0 	orr.w	ip, ip, #1792	@ 0x700
 8000736:	ea1c 5411 	ands.w	r4, ip, r1, lsr #20
 800073a:	bf1d      	ittte	ne
 800073c:	ea1c 5513 	andsne.w	r5, ip, r3, lsr #20
 8000740:	ea94 0f0c 	teqne	r4, ip
 8000744:	ea95 0f0c 	teqne	r5, ip
 8000748:	f000 f8a7 	bleq	800089a <__aeabi_ddiv+0x16e>
 800074c:	eba4 0405 	sub.w	r4, r4, r5
 8000750:	ea81 0e03 	eor.w	lr, r1, r3
 8000754:	ea52 3503 	orrs.w	r5, r2, r3, lsl #12
 8000758:	ea4f 3101 	mov.w	r1, r1, lsl #12
 800075c:	f000 8088 	beq.w	8000870 <__aeabi_ddiv+0x144>
 8000760:	ea4f 3303 	mov.w	r3, r3, lsl #12
 8000764:	f04f 5580 	mov.w	r5, #268435456	@ 0x10000000
 8000768:	ea45 1313 	orr.w	r3, r5, r3, lsr #4
 800076c:	ea43 6312 	orr.w	r3, r3, r2, lsr #24
 8000770:	ea4f 2202 	mov.w	r2, r2, lsl #8
 8000774:	ea45 1511 	orr.w	r5, r5, r1, lsr #4
 8000778:	ea45 6510 	orr.w	r5, r5, r0, lsr #24
 800077c:	ea4f 2600 	mov.w	r6, r0, lsl #8
 8000780:	f00e 4100 	and.w	r1, lr, #2147483648	@ 0x80000000
 8000784:	429d      	cmp	r5, r3
 8000786:	bf08      	it	eq
 8000788:	4296      	cmpeq	r6, r2
 800078a:	f144 04fd 	adc.w	r4, r4, #253	@ 0xfd
 800078e:	f504 7440 	add.w	r4, r4, #768	@ 0x300
 8000792:	d202      	bcs.n	800079a <__aeabi_ddiv+0x6e>
 8000794:	085b      	lsrs	r3, r3, #1
 8000796:	ea4f 0232 	mov.w	r2, r2, rrx
 800079a:	1ab6      	subs	r6, r6, r2
 800079c:	eb65 0503 	sbc.w	r5, r5, r3
 80007a0:	085b      	lsrs	r3, r3, #1
 80007a2:	ea4f 0232 	mov.w	r2, r2, rrx
 80007a6:	f44f 1080 	mov.w	r0, #1048576	@ 0x100000
 80007aa:	f44f 2c00 	mov.w	ip, #524288	@ 0x80000
 80007ae:	ebb6 0e02 	subs.w	lr, r6, r2
 80007b2:	eb75 0e03 	sbcs.w	lr, r5, r3
 80007b6:	bf22      	ittt	cs
 80007b8:	1ab6      	subcs	r6, r6, r2
 80007ba:	4675      	movcs	r5, lr
 80007bc:	ea40 000c 	orrcs.w	r0, r0, ip
 80007c0:	085b      	lsrs	r3, r3, #1
 80007c2:	ea4f 0232 	mov.w	r2, r2, rrx
 80007c6:	ebb6 0e02 	subs.w	lr, r6, r2
 80007ca:	eb75 0e03 	sbcs.w	lr, r5, r3
 80007ce:	bf22      	ittt	cs
 80007d0:	1ab6      	subcs	r6, r6, r2
 80007d2:	4675      	movcs	r5, lr
 80007d4:	ea40 005c 	orrcs.w	r0, r0, ip, lsr #1
 80007d8:	085b      	lsrs	r3, r3, #1
 80007da:	ea4f 0232 	mov.w	r2, r2, rrx
 80007de:	ebb6 0e02 	subs.w	lr, r6, r2
 80007e2:	eb75 0e03 	sbcs.w	lr, r5, r3
 80007e6:	bf22      	ittt	cs
 80007e8:	1ab6      	subcs	r6, r6, r2
 80007ea:	4675      	movcs	r5, lr
 80007ec:	ea40 009c 	orrcs.w	r0, r0, ip, lsr #2
 80007f0:	085b      	lsrs	r3, r3, #1
 80007f2:	ea4f 0232 	mov.w	r2, r2, rrx
 80007f6:	ebb6 0e02 	subs.w	lr, r6, r2
 80007fa:	eb75 0e03 	sbcs.w	lr, r5, r3
 80007fe:	bf22      	ittt	cs
 8000800:	1ab6      	subcs	r6, r6, r2
 8000802:	4675      	movcs	r5, lr
 8000804:	ea40 00dc 	orrcs.w	r0, r0, ip, lsr #3
 8000808:	ea55 0e06 	orrs.w	lr, r5, r6
 800080c:	d018      	beq.n	8000840 <__aeabi_ddiv+0x114>
 800080e:	ea4f 1505 	mov.w	r5, r5, lsl #4
 8000812:	ea45 7516 	orr.w	r5, r5, r6, lsr #28
 8000816:	ea4f 1606 	mov.w	r6, r6, lsl #4
 800081a:	ea4f 03c3 	mov.w	r3, r3, lsl #3
 800081e:	ea43 7352 	orr.w	r3, r3, r2, lsr #29
 8000822:	ea4f 02c2 	mov.w	r2, r2, lsl #3
 8000826:	ea5f 1c1c 	movs.w	ip, ip, lsr #4
 800082a:	d1c0      	bne.n	80007ae <__aeabi_ddiv+0x82>
 800082c:	f411 1f80 	tst.w	r1, #1048576	@ 0x100000
 8000830:	d10b      	bne.n	800084a <__aeabi_ddiv+0x11e>
 8000832:	ea41 0100 	orr.w	r1, r1, r0
 8000836:	f04f 0000 	mov.w	r0, #0
 800083a:	f04f 4c00 	mov.w	ip, #2147483648	@ 0x80000000
 800083e:	e7b6      	b.n	80007ae <__aeabi_ddiv+0x82>
 8000840:	f411 1f80 	tst.w	r1, #1048576	@ 0x100000
 8000844:	bf04      	itt	eq
 8000846:	4301      	orreq	r1, r0
 8000848:	2000      	moveq	r0, #0
 800084a:	f1b4 0cfd 	subs.w	ip, r4, #253	@ 0xfd
 800084e:	bf88      	it	hi
 8000850:	f5bc 6fe0 	cmphi.w	ip, #1792	@ 0x700
 8000854:	f63f aeaf 	bhi.w	80005b6 <__aeabi_dmul+0xde>
 8000858:	ebb5 0c03 	subs.w	ip, r5, r3
 800085c:	bf04      	itt	eq
 800085e:	ebb6 0c02 	subseq.w	ip, r6, r2
 8000862:	ea5f 0c50 	movseq.w	ip, r0, lsr #1
 8000866:	f150 0000 	adcs.w	r0, r0, #0
 800086a:	eb41 5104 	adc.w	r1, r1, r4, lsl #20
 800086e:	bd70      	pop	{r4, r5, r6, pc}
 8000870:	f00e 4e00 	and.w	lr, lr, #2147483648	@ 0x80000000
 8000874:	ea4e 3111 	orr.w	r1, lr, r1, lsr #12
 8000878:	eb14 045c 	adds.w	r4, r4, ip, lsr #1
 800087c:	bfc2      	ittt	gt
 800087e:	ebd4 050c 	rsbsgt	r5, r4, ip
 8000882:	ea41 5104 	orrgt.w	r1, r1, r4, lsl #20
 8000886:	bd70      	popgt	{r4, r5, r6, pc}
 8000888:	f441 1180 	orr.w	r1, r1, #1048576	@ 0x100000
 800088c:	f04f 0e00 	mov.w	lr, #0
 8000890:	3c01      	subs	r4, #1
 8000892:	e690      	b.n	80005b6 <__aeabi_dmul+0xde>
 8000894:	ea45 0e06 	orr.w	lr, r5, r6
 8000898:	e68d      	b.n	80005b6 <__aeabi_dmul+0xde>
 800089a:	ea0c 5513 	and.w	r5, ip, r3, lsr #20
 800089e:	ea94 0f0c 	teq	r4, ip
 80008a2:	bf08      	it	eq
 80008a4:	ea95 0f0c 	teqeq	r5, ip
 80008a8:	f43f af3b 	beq.w	8000722 <__aeabi_dmul+0x24a>
 80008ac:	ea94 0f0c 	teq	r4, ip
 80008b0:	d10a      	bne.n	80008c8 <__aeabi_ddiv+0x19c>
 80008b2:	ea50 3401 	orrs.w	r4, r0, r1, lsl #12
 80008b6:	f47f af34 	bne.w	8000722 <__aeabi_dmul+0x24a>
 80008ba:	ea95 0f0c 	teq	r5, ip
 80008be:	f47f af25 	bne.w	800070c <__aeabi_dmul+0x234>
 80008c2:	4610      	mov	r0, r2
 80008c4:	4619      	mov	r1, r3
 80008c6:	e72c      	b.n	8000722 <__aeabi_dmul+0x24a>
 80008c8:	ea95 0f0c 	teq	r5, ip
 80008cc:	d106      	bne.n	80008dc <__aeabi_ddiv+0x1b0>
 80008ce:	ea52 3503 	orrs.w	r5, r2, r3, lsl #12
 80008d2:	f43f aefd 	beq.w	80006d0 <__aeabi_dmul+0x1f8>
 80008d6:	4610      	mov	r0, r2
 80008d8:	4619      	mov	r1, r3
 80008da:	e722      	b.n	8000722 <__aeabi_dmul+0x24a>
 80008dc:	ea50 0641 	orrs.w	r6, r0, r1, lsl #1
 80008e0:	bf18      	it	ne
 80008e2:	ea52 0643 	orrsne.w	r6, r2, r3, lsl #1
 80008e6:	f47f aec5 	bne.w	8000674 <__aeabi_dmul+0x19c>
 80008ea:	ea50 0441 	orrs.w	r4, r0, r1, lsl #1
 80008ee:	f47f af0d 	bne.w	800070c <__aeabi_dmul+0x234>
 80008f2:	ea52 0543 	orrs.w	r5, r2, r3, lsl #1
 80008f6:	f47f aeeb 	bne.w	80006d0 <__aeabi_dmul+0x1f8>
 80008fa:	e712      	b.n	8000722 <__aeabi_dmul+0x24a>

080008fc <__gedf2>:
 80008fc:	f04f 3cff 	mov.w	ip, #4294967295
 8000900:	e006      	b.n	8000910 <__cmpdf2+0x4>
 8000902:	bf00      	nop

08000904 <__ledf2>:
 8000904:	f04f 0c01 	mov.w	ip, #1
 8000908:	e002      	b.n	8000910 <__cmpdf2+0x4>
 800090a:	bf00      	nop

0800090c <__cmpdf2>:
 800090c:	f04f 0c01 	mov.w	ip, #1
 8000910:	f84d cd04 	str.w	ip, [sp, #-4]!
 8000914:	ea4f 0c41 	mov.w	ip, r1, lsl #1
 8000918:	ea7f 5c6c 	mvns.w	ip, ip, asr #21
 800091c:	ea4f 0c43 	mov.w	ip, r3, lsl #1
 8000920:	bf18      	it	ne
 8000922:	ea7f 5c6c 	mvnsne.w	ip, ip, asr #21
 8000926:	d01b      	beq.n	8000960 <__cmpdf2+0x54>
 8000928:	b001      	add	sp, #4
 800092a:	ea50 0c41 	orrs.w	ip, r0, r1, lsl #1
 800092e:	bf0c      	ite	eq
 8000930:	ea52 0c43 	orrseq.w	ip, r2, r3, lsl #1
 8000934:	ea91 0f03 	teqne	r1, r3
 8000938:	bf02      	ittt	eq
 800093a:	ea90 0f02 	teqeq	r0, r2
 800093e:	2000      	moveq	r0, #0
 8000940:	4770      	bxeq	lr
 8000942:	f110 0f00 	cmn.w	r0, #0
 8000946:	ea91 0f03 	teq	r1, r3
 800094a:	bf58      	it	pl
 800094c:	4299      	cmppl	r1, r3
 800094e:	bf08      	it	eq
 8000950:	4290      	cmpeq	r0, r2
 8000952:	bf2c      	ite	cs
 8000954:	17d8      	asrcs	r0, r3, #31
 8000956:	ea6f 70e3 	mvncc.w	r0, r3, asr #31
 800095a:	f040 0001 	orr.w	r0, r0, #1
 800095e:	4770      	bx	lr
 8000960:	ea4f 0c41 	mov.w	ip, r1, lsl #1
 8000964:	ea7f 5c6c 	mvns.w	ip, ip, asr #21
 8000968:	d102      	bne.n	8000970 <__cmpdf2+0x64>
 800096a:	ea50 3c01 	orrs.w	ip, r0, r1, lsl #12
 800096e:	d107      	bne.n	8000980 <__cmpdf2+0x74>
 8000970:	ea4f 0c43 	mov.w	ip, r3, lsl #1
 8000974:	ea7f 5c6c 	mvns.w	ip, ip, asr #21
 8000978:	d1d6      	bne.n	8000928 <__cmpdf2+0x1c>
 800097a:	ea52 3c03 	orrs.w	ip, r2, r3, lsl #12
 800097e:	d0d3      	beq.n	8000928 <__cmpdf2+0x1c>
 8000980:	f85d 0b04 	ldr.w	r0, [sp], #4
 8000984:	4770      	bx	lr
 8000986:	bf00      	nop

08000988 <__aeabi_cdrcmple>:
 8000988:	4684      	mov	ip, r0
 800098a:	4610      	mov	r0, r2
 800098c:	4662      	mov	r2, ip
 800098e:	468c      	mov	ip, r1
 8000990:	4619      	mov	r1, r3
 8000992:	4663      	mov	r3, ip
 8000994:	e000      	b.n	8000998 <__aeabi_cdcmpeq>
 8000996:	bf00      	nop

08000998 <__aeabi_cdcmpeq>:
 8000998:	b501      	push	{r0, lr}
 800099a:	f7ff ffb7 	bl	800090c <__cmpdf2>
 800099e:	2800      	cmp	r0, #0
 80009a0:	bf48      	it	mi
 80009a2:	f110 0f00 	cmnmi.w	r0, #0
 80009a6:	bd01      	pop	{r0, pc}

080009a8 <__aeabi_dcmpeq>:
 80009a8:	f84d ed08 	str.w	lr, [sp, #-8]!
 80009ac:	f7ff fff4 	bl	8000998 <__aeabi_cdcmpeq>
 80009b0:	bf0c      	ite	eq
 80009b2:	2001      	moveq	r0, #1
 80009b4:	2000      	movne	r0, #0
 80009b6:	f85d fb08 	ldr.w	pc, [sp], #8
 80009ba:	bf00      	nop

080009bc <__aeabi_dcmplt>:
 80009bc:	f84d ed08 	str.w	lr, [sp, #-8]!
 80009c0:	f7ff ffea 	bl	8000998 <__aeabi_cdcmpeq>
 80009c4:	bf34      	ite	cc
 80009c6:	2001      	movcc	r0, #1
 80009c8:	2000      	movcs	r0, #0
 80009ca:	f85d fb08 	ldr.w	pc, [sp], #8
 80009ce:	bf00      	nop

080009d0 <__aeabi_dcmple>:
 80009d0:	f84d ed08 	str.w	lr, [sp, #-8]!
 80009d4:	f7ff ffe0 	bl	8000998 <__aeabi_cdcmpeq>
 80009d8:	bf94      	ite	ls
 80009da:	2001      	movls	r0, #1
 80009dc:	2000      	movhi	r0, #0
 80009de:	f85d fb08 	ldr.w	pc, [sp], #8
 80009e2:	bf00      	nop

080009e4 <__aeabi_dcmpge>:
 80009e4:	f84d ed08 	str.w	lr, [sp, #-8]!
 80009e8:	f7ff ffce 	bl	8000988 <__aeabi_cdrcmple>
 80009ec:	bf94      	ite	ls
 80009ee:	2001      	movls	r0, #1
 80009f0:	2000      	movhi	r0, #0
 80009f2:	f85d fb08 	ldr.w	pc, [sp], #8
 80009f6:	bf00      	nop

080009f8 <__aeabi_dcmpgt>:
 80009f8:	f84d ed08 	str.w	lr, [sp, #-8]!
 80009fc:	f7ff ffc4 	bl	8000988 <__aeabi_cdrcmple>
 8000a00:	bf34      	ite	cc
 8000a02:	2001      	movcc	r0, #1
 8000a04:	2000      	movcs	r0, #0
 8000a06:	f85d fb08 	ldr.w	pc, [sp], #8
 8000a0a:	bf00      	nop

08000a0c <__aeabi_dcmpun>:
 8000a0c:	ea4f 0c41 	mov.w	ip, r1, lsl #1
 8000a10:	ea7f 5c6c 	mvns.w	ip, ip, asr #21
 8000a14:	d102      	bne.n	8000a1c <__aeabi_dcmpun+0x10>
 8000a16:	ea50 3c01 	orrs.w	ip, r0, r1, lsl #12
 8000a1a:	d10a      	bne.n	8000a32 <__aeabi_dcmpun+0x26>
 8000a1c:	ea4f 0c43 	mov.w	ip, r3, lsl #1
 8000a20:	ea7f 5c6c 	mvns.w	ip, ip, asr #21
 8000a24:	d102      	bne.n	8000a2c <__aeabi_dcmpun+0x20>
 8000a26:	ea52 3c03 	orrs.w	ip, r2, r3, lsl #12
 8000a2a:	d102      	bne.n	8000a32 <__aeabi_dcmpun+0x26>
 8000a2c:	f04f 0000 	mov.w	r0, #0
 8000a30:	4770      	bx	lr
 8000a32:	f04f 0001 	mov.w	r0, #1
 8000a36:	4770      	bx	lr

08000a38 <__aeabi_d2iz>:
 8000a38:	ea4f 0241 	mov.w	r2, r1, lsl #1
 8000a3c:	f512 1200 	adds.w	r2, r2, #2097152	@ 0x200000
 8000a40:	d215      	bcs.n	8000a6e <__aeabi_d2iz+0x36>
 8000a42:	d511      	bpl.n	8000a68 <__aeabi_d2iz+0x30>
 8000a44:	f46f 7378 	mvn.w	r3, #992	@ 0x3e0
 8000a48:	ebb3 5262 	subs.w	r2, r3, r2, asr #21
 8000a4c:	d912      	bls.n	8000a74 <__aeabi_d2iz+0x3c>
 8000a4e:	ea4f 23c1 	mov.w	r3, r1, lsl #11
 8000a52:	f043 4300 	orr.w	r3, r3, #2147483648	@ 0x80000000
 8000a56:	ea43 5350 	orr.w	r3, r3, r0, lsr #21
 8000a5a:	f011 4f00 	tst.w	r1, #2147483648	@ 0x80000000
 8000a5e:	fa23 f002 	lsr.w	r0, r3, r2
 8000a62:	bf18      	it	ne
 8000a64:	4240      	negne	r0, r0
 8000a66:	4770      	bx	lr
 8000a68:	f04f 0000 	mov.w	r0, #0
 8000a6c:	4770      	bx	lr
 8000a6e:	ea50 3001 	orrs.w	r0, r0, r1, lsl #12
 8000a72:	d105      	bne.n	8000a80 <__aeabi_d2iz+0x48>
 8000a74:	f011 4000 	ands.w	r0, r1, #2147483648	@ 0x80000000
 8000a78:	bf08      	it	eq
 8000a7a:	f06f 4000 	mvneq.w	r0, #2147483648	@ 0x80000000
 8000a7e:	4770      	bx	lr
 8000a80:	f04f 0000 	mov.w	r0, #0
 8000a84:	4770      	bx	lr
 8000a86:	bf00      	nop

08000a88 <__aeabi_frsub>:
 8000a88:	f080 4000 	eor.w	r0, r0, #2147483648	@ 0x80000000
 8000a8c:	e002      	b.n	8000a94 <__addsf3>
 8000a8e:	bf00      	nop

08000a90 <__aeabi_fsub>:
 8000a90:	f081 4100 	eor.w	r1, r1, #2147483648	@ 0x80000000

08000a94 <__addsf3>:
 8000a94:	0042      	lsls	r2, r0, #1
 8000a96:	bf1f      	itttt	ne
 8000a98:	ea5f 0341 	movsne.w	r3, r1, lsl #1
 8000a9c:	ea92 0f03 	teqne	r2, r3
 8000aa0:	ea7f 6c22 	mvnsne.w	ip, r2, asr #24
 8000aa4:	ea7f 6c23 	mvnsne.w	ip, r3, asr #24
 8000aa8:	d06a      	beq.n	8000b80 <__addsf3+0xec>
 8000aaa:	ea4f 6212 	mov.w	r2, r2, lsr #24
 8000aae:	ebd2 6313 	rsbs	r3, r2, r3, lsr #24
 8000ab2:	bfc1      	itttt	gt
 8000ab4:	18d2      	addgt	r2, r2, r3
 8000ab6:	4041      	eorgt	r1, r0
 8000ab8:	4048      	eorgt	r0, r1
 8000aba:	4041      	eorgt	r1, r0
 8000abc:	bfb8      	it	lt
 8000abe:	425b      	neglt	r3, r3
 8000ac0:	2b19      	cmp	r3, #25
 8000ac2:	bf88      	it	hi
 8000ac4:	4770      	bxhi	lr
 8000ac6:	f010 4f00 	tst.w	r0, #2147483648	@ 0x80000000
 8000aca:	f440 0000 	orr.w	r0, r0, #8388608	@ 0x800000
 8000ace:	f020 407f 	bic.w	r0, r0, #4278190080	@ 0xff000000
 8000ad2:	bf18      	it	ne
 8000ad4:	4240      	negne	r0, r0
 8000ad6:	f011 4f00 	tst.w	r1, #2147483648	@ 0x80000000
 8000ada:	f441 0100 	orr.w	r1, r1, #8388608	@ 0x800000
 8000ade:	f021 417f 	bic.w	r1, r1, #4278190080	@ 0xff000000
 8000ae2:	bf18      	it	ne
 8000ae4:	4249      	negne	r1, r1
 8000ae6:	ea92 0f03 	teq	r2, r3
 8000aea:	d03f      	beq.n	8000b6c <__addsf3+0xd8>
 8000aec:	f1a2 0201 	sub.w	r2, r2, #1
 8000af0:	fa41 fc03 	asr.w	ip, r1, r3
 8000af4:	eb10 000c 	adds.w	r0, r0, ip
 8000af8:	f1c3 0320 	rsb	r3, r3, #32
 8000afc:	fa01 f103 	lsl.w	r1, r1, r3
 8000b00:	f000 4300 	and.w	r3, r0, #2147483648	@ 0x80000000
 8000b04:	d502      	bpl.n	8000b0c <__addsf3+0x78>
 8000b06:	4249      	negs	r1, r1
 8000b08:	eb60 0040 	sbc.w	r0, r0, r0, lsl #1
 8000b0c:	f5b0 0f00 	cmp.w	r0, #8388608	@ 0x800000
 8000b10:	d313      	bcc.n	8000b3a <__addsf3+0xa6>
 8000b12:	f1b0 7f80 	cmp.w	r0, #16777216	@ 0x1000000
 8000b16:	d306      	bcc.n	8000b26 <__addsf3+0x92>
 8000b18:	0840      	lsrs	r0, r0, #1
 8000b1a:	ea4f 0131 	mov.w	r1, r1, rrx
 8000b1e:	f102 0201 	add.w	r2, r2, #1
 8000b22:	2afe      	cmp	r2, #254	@ 0xfe
 8000b24:	d251      	bcs.n	8000bca <__addsf3+0x136>
 8000b26:	f1b1 4f00 	cmp.w	r1, #2147483648	@ 0x80000000
 8000b2a:	eb40 50c2 	adc.w	r0, r0, r2, lsl #23
 8000b2e:	bf08      	it	eq
 8000b30:	f020 0001 	biceq.w	r0, r0, #1
 8000b34:	ea40 0003 	orr.w	r0, r0, r3
 8000b38:	4770      	bx	lr
 8000b3a:	0049      	lsls	r1, r1, #1
 8000b3c:	eb40 0000 	adc.w	r0, r0, r0
 8000b40:	3a01      	subs	r2, #1
 8000b42:	bf28      	it	cs
 8000b44:	f5b0 0f00 	cmpcs.w	r0, #8388608	@ 0x800000
 8000b48:	d2ed      	bcs.n	8000b26 <__addsf3+0x92>
 8000b4a:	fab0 fc80 	clz	ip, r0
 8000b4e:	f1ac 0c08 	sub.w	ip, ip, #8
 8000b52:	ebb2 020c 	subs.w	r2, r2, ip
 8000b56:	fa00 f00c 	lsl.w	r0, r0, ip
 8000b5a:	bfaa      	itet	ge
 8000b5c:	eb00 50c2 	addge.w	r0, r0, r2, lsl #23
 8000b60:	4252      	neglt	r2, r2
 8000b62:	4318      	orrge	r0, r3
 8000b64:	bfbc      	itt	lt
 8000b66:	40d0      	lsrlt	r0, r2
 8000b68:	4318      	orrlt	r0, r3
 8000b6a:	4770      	bx	lr
 8000b6c:	f092 0f00 	teq	r2, #0
 8000b70:	f481 0100 	eor.w	r1, r1, #8388608	@ 0x800000
 8000b74:	bf06      	itte	eq
 8000b76:	f480 0000 	eoreq.w	r0, r0, #8388608	@ 0x800000
 8000b7a:	3201      	addeq	r2, #1
 8000b7c:	3b01      	subne	r3, #1
 8000b7e:	e7b5      	b.n	8000aec <__addsf3+0x58>
 8000b80:	ea4f 0341 	mov.w	r3, r1, lsl #1
 8000b84:	ea7f 6c22 	mvns.w	ip, r2, asr #24
 8000b88:	bf18      	it	ne
 8000b8a:	ea7f 6c23 	mvnsne.w	ip, r3, asr #24
 8000b8e:	d021      	beq.n	8000bd4 <__addsf3+0x140>
 8000b90:	ea92 0f03 	teq	r2, r3
 8000b94:	d004      	beq.n	8000ba0 <__addsf3+0x10c>
 8000b96:	f092 0f00 	teq	r2, #0
 8000b9a:	bf08      	it	eq
 8000b9c:	4608      	moveq	r0, r1
 8000b9e:	4770      	bx	lr
 8000ba0:	ea90 0f01 	teq	r0, r1
 8000ba4:	bf1c      	itt	ne
 8000ba6:	2000      	movne	r0, #0
 8000ba8:	4770      	bxne	lr
 8000baa:	f012 4f7f 	tst.w	r2, #4278190080	@ 0xff000000
 8000bae:	d104      	bne.n	8000bba <__addsf3+0x126>
 8000bb0:	0040      	lsls	r0, r0, #1
 8000bb2:	bf28      	it	cs
 8000bb4:	f040 4000 	orrcs.w	r0, r0, #2147483648	@ 0x80000000
 8000bb8:	4770      	bx	lr
 8000bba:	f112 7200 	adds.w	r2, r2, #33554432	@ 0x2000000
 8000bbe:	bf3c      	itt	cc
 8000bc0:	f500 0000 	addcc.w	r0, r0, #8388608	@ 0x800000
 8000bc4:	4770      	bxcc	lr
 8000bc6:	f000 4300 	and.w	r3, r0, #2147483648	@ 0x80000000
 8000bca:	f043 40fe 	orr.w	r0, r3, #2130706432	@ 0x7f000000
 8000bce:	f440 0000 	orr.w	r0, r0, #8388608	@ 0x800000
 8000bd2:	4770      	bx	lr
 8000bd4:	ea7f 6222 	mvns.w	r2, r2, asr #24
 8000bd8:	bf16      	itet	ne
 8000bda:	4608      	movne	r0, r1
 8000bdc:	ea7f 6323 	mvnseq.w	r3, r3, asr #24
 8000be0:	4601      	movne	r1, r0
 8000be2:	0242      	lsls	r2, r0, #9
 8000be4:	bf06      	itte	eq
 8000be6:	ea5f 2341 	movseq.w	r3, r1, lsl #9
 8000bea:	ea90 0f01 	teqeq	r0, r1
 8000bee:	f440 0080 	orrne.w	r0, r0, #4194304	@ 0x400000
 8000bf2:	4770      	bx	lr

08000bf4 <__aeabi_ui2f>:
 8000bf4:	f04f 0300 	mov.w	r3, #0
 8000bf8:	e004      	b.n	8000c04 <__aeabi_i2f+0x8>
 8000bfa:	bf00      	nop

08000bfc <__aeabi_i2f>:
 8000bfc:	f010 4300 	ands.w	r3, r0, #2147483648	@ 0x80000000
 8000c00:	bf48      	it	mi
 8000c02:	4240      	negmi	r0, r0
 8000c04:	ea5f 0c00 	movs.w	ip, r0
 8000c08:	bf08      	it	eq
 8000c0a:	4770      	bxeq	lr
 8000c0c:	f043 4396 	orr.w	r3, r3, #1258291200	@ 0x4b000000
 8000c10:	4601      	mov	r1, r0
 8000c12:	f04f 0000 	mov.w	r0, #0
 8000c16:	e01c      	b.n	8000c52 <__aeabi_l2f+0x2a>

08000c18 <__aeabi_ul2f>:
 8000c18:	ea50 0201 	orrs.w	r2, r0, r1
 8000c1c:	bf08      	it	eq
 8000c1e:	4770      	bxeq	lr
 8000c20:	f04f 0300 	mov.w	r3, #0
 8000c24:	e00a      	b.n	8000c3c <__aeabi_l2f+0x14>
 8000c26:	bf00      	nop

08000c28 <__aeabi_l2f>:
 8000c28:	ea50 0201 	orrs.w	r2, r0, r1
 8000c2c:	bf08      	it	eq
 8000c2e:	4770      	bxeq	lr
 8000c30:	f011 4300 	ands.w	r3, r1, #2147483648	@ 0x80000000
 8000c34:	d502      	bpl.n	8000c3c <__aeabi_l2f+0x14>
 8000c36:	4240      	negs	r0, r0
 8000c38:	eb61 0141 	sbc.w	r1, r1, r1, lsl #1
 8000c3c:	ea5f 0c01 	movs.w	ip, r1
 8000c40:	bf02      	ittt	eq
 8000c42:	4684      	moveq	ip, r0
 8000c44:	4601      	moveq	r1, r0
 8000c46:	2000      	moveq	r0, #0
 8000c48:	f043 43b6 	orr.w	r3, r3, #1526726656	@ 0x5b000000
 8000c4c:	bf08      	it	eq
 8000c4e:	f1a3 5380 	subeq.w	r3, r3, #268435456	@ 0x10000000
 8000c52:	f5a3 0300 	sub.w	r3, r3, #8388608	@ 0x800000
 8000c56:	fabc f28c 	clz	r2, ip
 8000c5a:	3a08      	subs	r2, #8
 8000c5c:	eba3 53c2 	sub.w	r3, r3, r2, lsl #23
 8000c60:	db10      	blt.n	8000c84 <__aeabi_l2f+0x5c>
 8000c62:	fa01 fc02 	lsl.w	ip, r1, r2
 8000c66:	4463      	add	r3, ip
 8000c68:	fa00 fc02 	lsl.w	ip, r0, r2
 8000c6c:	f1c2 0220 	rsb	r2, r2, #32
 8000c70:	f1bc 4f00 	cmp.w	ip, #2147483648	@ 0x80000000
 8000c74:	fa20 f202 	lsr.w	r2, r0, r2
 8000c78:	eb43 0002 	adc.w	r0, r3, r2
 8000c7c:	bf08      	it	eq
 8000c7e:	f020 0001 	biceq.w	r0, r0, #1
 8000c82:	4770      	bx	lr
 8000c84:	f102 0220 	add.w	r2, r2, #32
 8000c88:	fa01 fc02 	lsl.w	ip, r1, r2
 8000c8c:	f1c2 0220 	rsb	r2, r2, #32
 8000c90:	ea50 004c 	orrs.w	r0, r0, ip, lsl #1
 8000c94:	fa21 f202 	lsr.w	r2, r1, r2
 8000c98:	eb43 0002 	adc.w	r0, r3, r2
 8000c9c:	bf08      	it	eq
 8000c9e:	ea20 70dc 	biceq.w	r0, r0, ip, lsr #31
 8000ca2:	4770      	bx	lr

08000ca4 <__aeabi_fmul>:
 8000ca4:	f04f 0cff 	mov.w	ip, #255	@ 0xff
 8000ca8:	ea1c 52d0 	ands.w	r2, ip, r0, lsr #23
 8000cac:	bf1e      	ittt	ne
 8000cae:	ea1c 53d1 	andsne.w	r3, ip, r1, lsr #23
 8000cb2:	ea92 0f0c 	teqne	r2, ip
 8000cb6:	ea93 0f0c 	teqne	r3, ip
 8000cba:	d06f      	beq.n	8000d9c <__aeabi_fmul+0xf8>
 8000cbc:	441a      	add	r2, r3
 8000cbe:	ea80 0c01 	eor.w	ip, r0, r1
 8000cc2:	0240      	lsls	r0, r0, #9
 8000cc4:	bf18      	it	ne
 8000cc6:	ea5f 2141 	movsne.w	r1, r1, lsl #9
 8000cca:	d01e      	beq.n	8000d0a <__aeabi_fmul+0x66>
 8000ccc:	f04f 6300 	mov.w	r3, #134217728	@ 0x8000000
 8000cd0:	ea43 1050 	orr.w	r0, r3, r0, lsr #5
 8000cd4:	ea43 1151 	orr.w	r1, r3, r1, lsr #5
 8000cd8:	fba0 3101 	umull	r3, r1, r0, r1
 8000cdc:	f00c 4000 	and.w	r0, ip, #2147483648	@ 0x80000000
 8000ce0:	f5b1 0f00 	cmp.w	r1, #8388608	@ 0x800000
 8000ce4:	bf3e      	ittt	cc
 8000ce6:	0049      	lslcc	r1, r1, #1
 8000ce8:	ea41 71d3 	orrcc.w	r1, r1, r3, lsr #31
 8000cec:	005b      	lslcc	r3, r3, #1
 8000cee:	ea40 0001 	orr.w	r0, r0, r1
 8000cf2:	f162 027f 	sbc.w	r2, r2, #127	@ 0x7f
 8000cf6:	2afd      	cmp	r2, #253	@ 0xfd
 8000cf8:	d81d      	bhi.n	8000d36 <__aeabi_fmul+0x92>
 8000cfa:	f1b3 4f00 	cmp.w	r3, #2147483648	@ 0x80000000
 8000cfe:	eb40 50c2 	adc.w	r0, r0, r2, lsl #23
 8000d02:	bf08      	it	eq
 8000d04:	f020 0001 	biceq.w	r0, r0, #1
 8000d08:	4770      	bx	lr
 8000d0a:	f090 0f00 	teq	r0, #0
 8000d0e:	f00c 4c00 	and.w	ip, ip, #2147483648	@ 0x80000000
 8000d12:	bf08      	it	eq
 8000d14:	0249      	lsleq	r1, r1, #9
 8000d16:	ea4c 2050 	orr.w	r0, ip, r0, lsr #9
 8000d1a:	ea40 2051 	orr.w	r0, r0, r1, lsr #9
 8000d1e:	3a7f      	subs	r2, #127	@ 0x7f
 8000d20:	bfc2      	ittt	gt
 8000d22:	f1d2 03ff 	rsbsgt	r3, r2, #255	@ 0xff
 8000d26:	ea40 50c2 	orrgt.w	r0, r0, r2, lsl #23
 8000d2a:	4770      	bxgt	lr
 8000d2c:	f440 0000 	orr.w	r0, r0, #8388608	@ 0x800000
 8000d30:	f04f 0300 	mov.w	r3, #0
 8000d34:	3a01      	subs	r2, #1
 8000d36:	dc5d      	bgt.n	8000df4 <__aeabi_fmul+0x150>
 8000d38:	f112 0f19 	cmn.w	r2, #25
 8000d3c:	bfdc      	itt	le
 8000d3e:	f000 4000 	andle.w	r0, r0, #2147483648	@ 0x80000000
 8000d42:	4770      	bxle	lr
 8000d44:	f1c2 0200 	rsb	r2, r2, #0
 8000d48:	0041      	lsls	r1, r0, #1
 8000d4a:	fa21 f102 	lsr.w	r1, r1, r2
 8000d4e:	f1c2 0220 	rsb	r2, r2, #32
 8000d52:	fa00 fc02 	lsl.w	ip, r0, r2
 8000d56:	ea5f 0031 	movs.w	r0, r1, rrx
 8000d5a:	f140 0000 	adc.w	r0, r0, #0
 8000d5e:	ea53 034c 	orrs.w	r3, r3, ip, lsl #1
 8000d62:	bf08      	it	eq
 8000d64:	ea20 70dc 	biceq.w	r0, r0, ip, lsr #31
 8000d68:	4770      	bx	lr
 8000d6a:	f092 0f00 	teq	r2, #0
 8000d6e:	f000 4c00 	and.w	ip, r0, #2147483648	@ 0x80000000
 8000d72:	bf02      	ittt	eq
 8000d74:	0040      	lsleq	r0, r0, #1
 8000d76:	f410 0f00 	tsteq.w	r0, #8388608	@ 0x800000
 8000d7a:	3a01      	subeq	r2, #1
 8000d7c:	d0f9      	beq.n	8000d72 <__aeabi_fmul+0xce>
 8000d7e:	ea40 000c 	orr.w	r0, r0, ip
 8000d82:	f093 0f00 	teq	r3, #0
 8000d86:	f001 4c00 	and.w	ip, r1, #2147483648	@ 0x80000000
 8000d8a:	bf02      	ittt	eq
 8000d8c:	0049      	lsleq	r1, r1, #1
 8000d8e:	f411 0f00 	tsteq.w	r1, #8388608	@ 0x800000
 8000d92:	3b01      	subeq	r3, #1
 8000d94:	d0f9      	beq.n	8000d8a <__aeabi_fmul+0xe6>
 8000d96:	ea41 010c 	orr.w	r1, r1, ip
 8000d9a:	e78f      	b.n	8000cbc <__aeabi_fmul+0x18>
 8000d9c:	ea0c 53d1 	and.w	r3, ip, r1, lsr #23
 8000da0:	ea92 0f0c 	teq	r2, ip
 8000da4:	bf18      	it	ne
 8000da6:	ea93 0f0c 	teqne	r3, ip
 8000daa:	d00a      	beq.n	8000dc2 <__aeabi_fmul+0x11e>
 8000dac:	f030 4c00 	bics.w	ip, r0, #2147483648	@ 0x80000000
 8000db0:	bf18      	it	ne
 8000db2:	f031 4c00 	bicsne.w	ip, r1, #2147483648	@ 0x80000000
 8000db6:	d1d8      	bne.n	8000d6a <__aeabi_fmul+0xc6>
 8000db8:	ea80 0001 	eor.w	r0, r0, r1
 8000dbc:	f000 4000 	and.w	r0, r0, #2147483648	@ 0x80000000
 8000dc0:	4770      	bx	lr
 8000dc2:	f090 0f00 	teq	r0, #0
 8000dc6:	bf17      	itett	ne
 8000dc8:	f090 4f00 	teqne	r0, #2147483648	@ 0x80000000
 8000dcc:	4608      	moveq	r0, r1
 8000dce:	f091 0f00 	teqne	r1, #0
 8000dd2:	f091 4f00 	teqne	r1, #2147483648	@ 0x80000000
 8000dd6:	d014      	beq.n	8000e02 <__aeabi_fmul+0x15e>
 8000dd8:	ea92 0f0c 	teq	r2, ip
 8000ddc:	d101      	bne.n	8000de2 <__aeabi_fmul+0x13e>
 8000dde:	0242      	lsls	r2, r0, #9
 8000de0:	d10f      	bne.n	8000e02 <__aeabi_fmul+0x15e>
 8000de2:	ea93 0f0c 	teq	r3, ip
 8000de6:	d103      	bne.n	8000df0 <__aeabi_fmul+0x14c>
 8000de8:	024b      	lsls	r3, r1, #9
 8000dea:	bf18      	it	ne
 8000dec:	4608      	movne	r0, r1
 8000dee:	d108      	bne.n	8000e02 <__aeabi_fmul+0x15e>
 8000df0:	ea80 0001 	eor.w	r0, r0, r1
 8000df4:	f000 4000 	and.w	r0, r0, #2147483648	@ 0x80000000
 8000df8:	f040 40fe 	orr.w	r0, r0, #2130706432	@ 0x7f000000
 8000dfc:	f440 0000 	orr.w	r0, r0, #8388608	@ 0x800000
 8000e00:	4770      	bx	lr
 8000e02:	f040 40fe 	orr.w	r0, r0, #2130706432	@ 0x7f000000
 8000e06:	f440 0040 	orr.w	r0, r0, #12582912	@ 0xc00000
 8000e0a:	4770      	bx	lr

08000e0c <__aeabi_fdiv>:
 8000e0c:	f04f 0cff 	mov.w	ip, #255	@ 0xff
 8000e10:	ea1c 52d0 	ands.w	r2, ip, r0, lsr #23
 8000e14:	bf1e      	ittt	ne
 8000e16:	ea1c 53d1 	andsne.w	r3, ip, r1, lsr #23
 8000e1a:	ea92 0f0c 	teqne	r2, ip
 8000e1e:	ea93 0f0c 	teqne	r3, ip
 8000e22:	d069      	beq.n	8000ef8 <__aeabi_fdiv+0xec>
 8000e24:	eba2 0203 	sub.w	r2, r2, r3
 8000e28:	ea80 0c01 	eor.w	ip, r0, r1
 8000e2c:	0249      	lsls	r1, r1, #9
 8000e2e:	ea4f 2040 	mov.w	r0, r0, lsl #9
 8000e32:	d037      	beq.n	8000ea4 <__aeabi_fdiv+0x98>
 8000e34:	f04f 5380 	mov.w	r3, #268435456	@ 0x10000000
 8000e38:	ea43 1111 	orr.w	r1, r3, r1, lsr #4
 8000e3c:	ea43 1310 	orr.w	r3, r3, r0, lsr #4
 8000e40:	f00c 4000 	and.w	r0, ip, #2147483648	@ 0x80000000
 8000e44:	428b      	cmp	r3, r1
 8000e46:	bf38      	it	cc
 8000e48:	005b      	lslcc	r3, r3, #1
 8000e4a:	f142 027d 	adc.w	r2, r2, #125	@ 0x7d
 8000e4e:	f44f 0c00 	mov.w	ip, #8388608	@ 0x800000
 8000e52:	428b      	cmp	r3, r1
 8000e54:	bf24      	itt	cs
 8000e56:	1a5b      	subcs	r3, r3, r1
 8000e58:	ea40 000c 	orrcs.w	r0, r0, ip
 8000e5c:	ebb3 0f51 	cmp.w	r3, r1, lsr #1
 8000e60:	bf24      	itt	cs
 8000e62:	eba3 0351 	subcs.w	r3, r3, r1, lsr #1
 8000e66:	ea40 005c 	orrcs.w	r0, r0, ip, lsr #1
 8000e6a:	ebb3 0f91 	cmp.w	r3, r1, lsr #2
 8000e6e:	bf24      	itt	cs
 8000e70:	eba3 0391 	subcs.w	r3, r3, r1, lsr #2
 8000e74:	ea40 009c 	orrcs.w	r0, r0, ip, lsr #2
 8000e78:	ebb3 0fd1 	cmp.w	r3, r1, lsr #3
 8000e7c:	bf24      	itt	cs
 8000e7e:	eba3 03d1 	subcs.w	r3, r3, r1, lsr #3
 8000e82:	ea40 00dc 	orrcs.w	r0, r0, ip, lsr #3
 8000e86:	011b      	lsls	r3, r3, #4
 8000e88:	bf18      	it	ne
 8000e8a:	ea5f 1c1c 	movsne.w	ip, ip, lsr #4
 8000e8e:	d1e0      	bne.n	8000e52 <__aeabi_fdiv+0x46>
 8000e90:	2afd      	cmp	r2, #253	@ 0xfd
 8000e92:	f63f af50 	bhi.w	8000d36 <__aeabi_fmul+0x92>
 8000e96:	428b      	cmp	r3, r1
 8000e98:	eb40 50c2 	adc.w	r0, r0, r2, lsl #23
 8000e9c:	bf08      	it	eq
 8000e9e:	f020 0001 	biceq.w	r0, r0, #1
 8000ea2:	4770      	bx	lr
 8000ea4:	f00c 4c00 	and.w	ip, ip, #2147483648	@ 0x80000000
 8000ea8:	ea4c 2050 	orr.w	r0, ip, r0, lsr #9
 8000eac:	327f      	adds	r2, #127	@ 0x7f
 8000eae:	bfc2      	ittt	gt
 8000eb0:	f1d2 03ff 	rsbsgt	r3, r2, #255	@ 0xff
 8000eb4:	ea40 50c2 	orrgt.w	r0, r0, r2, lsl #23
 8000eb8:	4770      	bxgt	lr
 8000eba:	f440 0000 	orr.w	r0, r0, #8388608	@ 0x800000
 8000ebe:	f04f 0300 	mov.w	r3, #0
 8000ec2:	3a01      	subs	r2, #1
 8000ec4:	e737      	b.n	8000d36 <__aeabi_fmul+0x92>
 8000ec6:	f092 0f00 	teq	r2, #0
 8000eca:	f000 4c00 	and.w	ip, r0, #2147483648	@ 0x80000000
 8000ece:	bf02      	ittt	eq
 8000ed0:	0040      	lsleq	r0, r0, #1
 8000ed2:	f410 0f00 	tsteq.w	r0, #8388608	@ 0x800000
 8000ed6:	3a01      	subeq	r2, #1
 8000ed8:	d0f9      	beq.n	8000ece <__aeabi_fdiv+0xc2>
 8000eda:	ea40 000c 	orr.w	r0, r0, ip
 8000ede:	f093 0f00 	teq	r3, #0
 8000ee2:	f001 4c00 	and.w	ip, r1, #2147483648	@ 0x80000000
 8000ee6:	bf02      	ittt	eq
 8000ee8:	0049      	lsleq	r1, r1, #1
 8000eea:	f411 0f00 	tsteq.w	r1, #8388608	@ 0x800000
 8000eee:	3b01      	subeq	r3, #1
 8000ef0:	d0f9      	beq.n	8000ee6 <__aeabi_fdiv+0xda>
 8000ef2:	ea41 010c 	orr.w	r1, r1, ip
 8000ef6:	e795      	b.n	8000e24 <__aeabi_fdiv+0x18>
 8000ef8:	ea0c 53d1 	and.w	r3, ip, r1, lsr #23
 8000efc:	ea92 0f0c 	teq	r2, ip
 8000f00:	d108      	bne.n	8000f14 <__aeabi_fdiv+0x108>
 8000f02:	0242      	lsls	r2, r0, #9
 8000f04:	f47f af7d 	bne.w	8000e02 <__aeabi_fmul+0x15e>
 8000f08:	ea93 0f0c 	teq	r3, ip
 8000f0c:	f47f af70 	bne.w	8000df0 <__aeabi_fmul+0x14c>
 8000f10:	4608      	mov	r0, r1
 8000f12:	e776      	b.n	8000e02 <__aeabi_fmul+0x15e>
 8000f14:	ea93 0f0c 	teq	r3, ip
 8000f18:	d104      	bne.n	8000f24 <__aeabi_fdiv+0x118>
 8000f1a:	024b      	lsls	r3, r1, #9
 8000f1c:	f43f af4c 	beq.w	8000db8 <__aeabi_fmul+0x114>
 8000f20:	4608      	mov	r0, r1
 8000f22:	e76e      	b.n	8000e02 <__aeabi_fmul+0x15e>
 8000f24:	f030 4c00 	bics.w	ip, r0, #2147483648	@ 0x80000000
 8000f28:	bf18      	it	ne
 8000f2a:	f031 4c00 	bicsne.w	ip, r1, #2147483648	@ 0x80000000
 8000f2e:	d1ca      	bne.n	8000ec6 <__aeabi_fdiv+0xba>
 8000f30:	f030 4200 	bics.w	r2, r0, #2147483648	@ 0x80000000
 8000f34:	f47f af5c 	bne.w	8000df0 <__aeabi_fmul+0x14c>
 8000f38:	f031 4300 	bics.w	r3, r1, #2147483648	@ 0x80000000
 8000f3c:	f47f af3c 	bne.w	8000db8 <__aeabi_fmul+0x114>
 8000f40:	e75f      	b.n	8000e02 <__aeabi_fmul+0x15e>
 8000f42:	bf00      	nop

08000f44 <__io_putchar>:
#define PUTCHAR_PROTOTYPE int __io_putchar(int ch)
#else
#define PUTCHAR_PROTOTYPE int fputc(int ch, FILE *f)
#endif

PUTCHAR_PROTOTYPE {
 8000f44:	b580      	push	{r7, lr}
 8000f46:	b082      	sub	sp, #8
 8000f48:	af00      	add	r7, sp, #0
 8000f4a:	6078      	str	r0, [r7, #4]
	if (ch == '\n')
 8000f4c:	687b      	ldr	r3, [r7, #4]
 8000f4e:	2b0a      	cmp	r3, #10
 8000f50:	d106      	bne.n	8000f60 <__io_putchar+0x1c>
		HAL_UART_Transmit(&huart2, (uint8_t*) "\r", 1, 0xFFFF);
 8000f52:	f64f 73ff 	movw	r3, #65535	@ 0xffff
 8000f56:	2201      	movs	r2, #1
 8000f58:	4907      	ldr	r1, [pc, #28]	@ (8000f78 <__io_putchar+0x34>)
 8000f5a:	4808      	ldr	r0, [pc, #32]	@ (8000f7c <__io_putchar+0x38>)
 8000f5c:	f002 f966 	bl	800322c <HAL_UART_Transmit>

	HAL_UART_Transmit(&huart2, (uint8_t*) &ch, 1, 0xFFFF);
 8000f60:	1d39      	adds	r1, r7, #4
 8000f62:	f64f 73ff 	movw	r3, #65535	@ 0xffff
 8000f66:	2201      	movs	r2, #1
 8000f68:	4804      	ldr	r0, [pc, #16]	@ (8000f7c <__io_putchar+0x38>)
 8000f6a:	f002 f95f 	bl	800322c <HAL_UART_Transmit>

	return ch;
 8000f6e:	687b      	ldr	r3, [r7, #4]

}
 8000f70:	4618      	mov	r0, r3
 8000f72:	3708      	adds	r7, #8
 8000f74:	46bd      	mov	sp, r7
 8000f76:	bd80      	pop	{r7, pc}
 8000f78:	08005ff0 	.word	0x08005ff0
 8000f7c:	20000220 	.word	0x20000220

08000f80 <main>:

/**
 * @brief  The application entry point.
 * @retval int
 */
int main(void) {
 8000f80:	b590      	push	{r4, r7, lr}
 8000f82:	b087      	sub	sp, #28
 8000f84:	af02      	add	r7, sp, #8
	/* USER CODE END 1 */

	/* MCU Configuration--------------------------------------------------------*/

	/* Reset of all peripherals, Initializes the Flash interface and the Systick. */
	HAL_Init();
 8000f86:	f000 fb59 	bl	800163c <HAL_Init>
	/* USER CODE BEGIN Init */

	/* USER CODE END Init */

	/* Configure the system clock */
	SystemClock_Config();
 8000f8a:	f000 f873 	bl	8001074 <SystemClock_Config>
	/* USER CODE BEGIN SysInit */

	/* USER CODE END SysInit */

	/* Initialize all configured peripherals */
	MX_GPIO_Init();
 8000f8e:	f000 f931 	bl	80011f4 <MX_GPIO_Init>
	MX_USART2_UART_Init();
 8000f92:	f000 f905 	bl	80011a0 <MX_USART2_UART_Init>
	MX_ADC1_Init();
 8000f96:	f000 f8c5 	bl	8001124 <MX_ADC1_Init>
	float temp;
	/* USER CODE END 2 */

	/* Infinite loop */
	/* USER CODE BEGIN WHILE */
	if (HAL_ADCEx_Calibration_Start(&hadc1) != HAL_OK) {
 8000f9a:	482f      	ldr	r0, [pc, #188]	@ (8001058 <main+0xd8>)
 8000f9c:	f001 f800 	bl	8001fa0 <HAL_ADCEx_Calibration_Start>
 8000fa0:	4603      	mov	r3, r0
 8000fa2:	2b00      	cmp	r3, #0
 8000fa4:	d001      	beq.n	8000faa <main+0x2a>
		Error_Handler();
 8000fa6:	f000 f993 	bl	80012d0 <Error_Handler>
	}
	if (HAL_ADC_Start(&hadc1) != HAL_OK) {
 8000faa:	482b      	ldr	r0, [pc, #172]	@ (8001058 <main+0xd8>)
 8000fac:	f000 fca4 	bl	80018f8 <HAL_ADC_Start>
 8000fb0:	4603      	mov	r3, r0
 8000fb2:	2b00      	cmp	r3, #0
 8000fb4:	d001      	beq.n	8000fba <main+0x3a>
		Error_Handler();
 8000fb6:	f000 f98b 	bl	80012d0 <Error_Handler>
	}
	int count = 0;
 8000fba:	2300      	movs	r3, #0
 8000fbc:	60fb      	str	r3, [r7, #12]
	while (1) {
		count++;
 8000fbe:	68fb      	ldr	r3, [r7, #12]
 8000fc0:	3301      	adds	r3, #1
 8000fc2:	60fb      	str	r3, [r7, #12]
		if ( count >0 && count < 101) {
 8000fc4:	68fb      	ldr	r3, [r7, #12]
 8000fc6:	2b00      	cmp	r3, #0
 8000fc8:	dd3c      	ble.n	8001044 <main+0xc4>
 8000fca:	68fb      	ldr	r3, [r7, #12]
 8000fcc:	2b64      	cmp	r3, #100	@ 0x64
 8000fce:	dc39      	bgt.n	8001044 <main+0xc4>
			HAL_ADC_PollForConversion(&hadc1, 100);
 8000fd0:	2164      	movs	r1, #100	@ 0x64
 8000fd2:	4821      	ldr	r0, [pc, #132]	@ (8001058 <main+0xd8>)
 8000fd4:	f000 fd3e 	bl	8001a54 <HAL_ADC_PollForConversion>
			adc1 = HAL_ADC_GetValue(&hadc1);
 8000fd8:	481f      	ldr	r0, [pc, #124]	@ (8001058 <main+0xd8>)
 8000fda:	f000 fe41 	bl	8001c60 <HAL_ADC_GetValue>
 8000fde:	4603      	mov	r3, r0
 8000fe0:	817b      	strh	r3, [r7, #10]
			//	printf("ADC_temperature: %d \n", adc1);
			vSense = adc1 * ADC_TO_VOLT;
 8000fe2:	897b      	ldrh	r3, [r7, #10]
 8000fe4:	4618      	mov	r0, r3
 8000fe6:	f7ff fe09 	bl	8000bfc <__aeabi_i2f>
 8000fea:	4603      	mov	r3, r0
 8000fec:	4a1b      	ldr	r2, [pc, #108]	@ (800105c <main+0xdc>)
 8000fee:	4611      	mov	r1, r2
 8000ff0:	4618      	mov	r0, r3
 8000ff2:	f7ff fe57 	bl	8000ca4 <__aeabi_fmul>
 8000ff6:	4603      	mov	r3, r0
 8000ff8:	607b      	str	r3, [r7, #4]
			temp = (V25 - vSense) / AVG_SLOPE + 25.0;
 8000ffa:	4b19      	ldr	r3, [pc, #100]	@ (8001060 <main+0xe0>)
 8000ffc:	6879      	ldr	r1, [r7, #4]
 8000ffe:	4618      	mov	r0, r3
 8001000:	f7ff fd46 	bl	8000a90 <__aeabi_fsub>
 8001004:	4603      	mov	r3, r0
 8001006:	461a      	mov	r2, r3
 8001008:	4b16      	ldr	r3, [pc, #88]	@ (8001064 <main+0xe4>)
 800100a:	4619      	mov	r1, r3
 800100c:	4610      	mov	r0, r2
 800100e:	f7ff fefd 	bl	8000e0c <__aeabi_fdiv>
 8001012:	4603      	mov	r3, r0
 8001014:	4914      	ldr	r1, [pc, #80]	@ (8001068 <main+0xe8>)
 8001016:	4618      	mov	r0, r3
 8001018:	f7ff fd3c 	bl	8000a94 <__addsf3>
 800101c:	4603      	mov	r3, r0
 800101e:	603b      	str	r3, [r7, #0]
			printf("%d : temperature : %d, %f \n",count, adc1, temp);
 8001020:	897c      	ldrh	r4, [r7, #10]
 8001022:	6838      	ldr	r0, [r7, #0]
 8001024:	f7ff fa00 	bl	8000428 <__aeabi_f2d>
 8001028:	4602      	mov	r2, r0
 800102a:	460b      	mov	r3, r1
 800102c:	e9cd 2300 	strd	r2, r3, [sp]
 8001030:	4622      	mov	r2, r4
 8001032:	68f9      	ldr	r1, [r7, #12]
 8001034:	480d      	ldr	r0, [pc, #52]	@ (800106c <main+0xec>)
 8001036:	f002 ffe9 	bl	800400c <iprintf>

			HAL_Delay(500);
 800103a:	f44f 70fa 	mov.w	r0, #500	@ 0x1f4
 800103e:	f000 fb5f 	bl	8001700 <HAL_Delay>
		count++;
 8001042:	e7bc      	b.n	8000fbe <main+0x3e>
		}
		else {
			printf("end\n");
 8001044:	480a      	ldr	r0, [pc, #40]	@ (8001070 <main+0xf0>)
 8001046:	f003 f849 	bl	80040dc <puts>
			break;
 800104a:	bf00      	nop
 800104c:	2300      	movs	r3, #0

		/* USER CODE BEGIN 3 */

}
/* USER CODE END 3 */
}
 800104e:	4618      	mov	r0, r3
 8001050:	3714      	adds	r7, #20
 8001052:	46bd      	mov	sp, r7
 8001054:	bd90      	pop	{r4, r7, pc}
 8001056:	bf00      	nop
 8001058:	200001f0 	.word	0x200001f0
 800105c:	3a533333 	.word	0x3a533333
 8001060:	3fb70a3d 	.word	0x3fb70a3d
 8001064:	3b8ce704 	.word	0x3b8ce704
 8001068:	41c80000 	.word	0x41c80000
 800106c:	08005ff4 	.word	0x08005ff4
 8001070:	08006010 	.word	0x08006010

08001074 <SystemClock_Config>:

/**
 * @brief System Clock Configuration
 * @retval None
 */
void SystemClock_Config(void) {
 8001074:	b580      	push	{r7, lr}
 8001076:	b094      	sub	sp, #80	@ 0x50
 8001078:	af00      	add	r7, sp, #0
RCC_OscInitTypeDef RCC_OscInitStruct = { 0 };
 800107a:	f107 0328 	add.w	r3, r7, #40	@ 0x28
 800107e:	2228      	movs	r2, #40	@ 0x28
 8001080:	2100      	movs	r1, #0
 8001082:	4618      	mov	r0, r3
 8001084:	f003 f90a 	bl	800429c <memset>
RCC_ClkInitTypeDef RCC_ClkInitStruct = { 0 };
 8001088:	f107 0314 	add.w	r3, r7, #20
 800108c:	2200      	movs	r2, #0
 800108e:	601a      	str	r2, [r3, #0]
 8001090:	605a      	str	r2, [r3, #4]
 8001092:	609a      	str	r2, [r3, #8]
 8001094:	60da      	str	r2, [r3, #12]
 8001096:	611a      	str	r2, [r3, #16]
RCC_PeriphCLKInitTypeDef PeriphClkInit = { 0 };
 8001098:	1d3b      	adds	r3, r7, #4
 800109a:	2200      	movs	r2, #0
 800109c:	601a      	str	r2, [r3, #0]
 800109e:	605a      	str	r2, [r3, #4]
 80010a0:	609a      	str	r2, [r3, #8]
 80010a2:	60da      	str	r2, [r3, #12]

/** Initializes the RCC Oscillators according to the specified parameters
 * in the RCC_OscInitTypeDef structure.
 */
RCC_OscInitStruct.OscillatorType = RCC_OSCILLATORTYPE_HSI;
 80010a4:	2302      	movs	r3, #2
 80010a6:	62bb      	str	r3, [r7, #40]	@ 0x28
RCC_OscInitStruct.HSIState = RCC_HSI_ON;
 80010a8:	2301      	movs	r3, #1
 80010aa:	63bb      	str	r3, [r7, #56]	@ 0x38
RCC_OscInitStruct.HSICalibrationValue = RCC_HSICALIBRATION_DEFAULT;
 80010ac:	2310      	movs	r3, #16
 80010ae:	63fb      	str	r3, [r7, #60]	@ 0x3c
RCC_OscInitStruct.PLL.PLLState = RCC_PLL_ON;
 80010b0:	2302      	movs	r3, #2
 80010b2:	647b      	str	r3, [r7, #68]	@ 0x44
RCC_OscInitStruct.PLL.PLLSource = RCC_PLLSOURCE_HSI_DIV2;
 80010b4:	2300      	movs	r3, #0
 80010b6:	64bb      	str	r3, [r7, #72]	@ 0x48
RCC_OscInitStruct.PLL.PLLMUL = RCC_PLL_MUL16;
 80010b8:	f44f 1360 	mov.w	r3, #3670016	@ 0x380000
 80010bc:	64fb      	str	r3, [r7, #76]	@ 0x4c
if (HAL_RCC_OscConfig(&RCC_OscInitStruct) != HAL_OK) {
 80010be:	f107 0328 	add.w	r3, r7, #40	@ 0x28
 80010c2:	4618      	mov	r0, r3
 80010c4:	f001 fae6 	bl	8002694 <HAL_RCC_OscConfig>
 80010c8:	4603      	mov	r3, r0
 80010ca:	2b00      	cmp	r3, #0
 80010cc:	d001      	beq.n	80010d2 <SystemClock_Config+0x5e>
	Error_Handler();
 80010ce:	f000 f8ff 	bl	80012d0 <Error_Handler>
}

/** Initializes the CPU, AHB and APB buses clocks
 */
RCC_ClkInitStruct.ClockType = RCC_CLOCKTYPE_HCLK | RCC_CLOCKTYPE_SYSCLK
 80010d2:	230f      	movs	r3, #15
 80010d4:	617b      	str	r3, [r7, #20]
		| RCC_CLOCKTYPE_PCLK1 | RCC_CLOCKTYPE_PCLK2;
RCC_ClkInitStruct.SYSCLKSource = RCC_SYSCLKSOURCE_PLLCLK;
 80010d6:	2302      	movs	r3, #2
 80010d8:	61bb      	str	r3, [r7, #24]
RCC_ClkInitStruct.AHBCLKDivider = RCC_SYSCLK_DIV1;
 80010da:	2300      	movs	r3, #0
 80010dc:	61fb      	str	r3, [r7, #28]
RCC_ClkInitStruct.APB1CLKDivider = RCC_HCLK_DIV2;
 80010de:	f44f 6380 	mov.w	r3, #1024	@ 0x400
 80010e2:	623b      	str	r3, [r7, #32]
RCC_ClkInitStruct.APB2CLKDivider = RCC_HCLK_DIV1;
 80010e4:	2300      	movs	r3, #0
 80010e6:	627b      	str	r3, [r7, #36]	@ 0x24

if (HAL_RCC_ClockConfig(&RCC_ClkInitStruct, FLASH_LATENCY_2) != HAL_OK) {
 80010e8:	f107 0314 	add.w	r3, r7, #20
 80010ec:	2102      	movs	r1, #2
 80010ee:	4618      	mov	r0, r3
 80010f0:	f001 fd52 	bl	8002b98 <HAL_RCC_ClockConfig>
 80010f4:	4603      	mov	r3, r0
 80010f6:	2b00      	cmp	r3, #0
 80010f8:	d001      	beq.n	80010fe <SystemClock_Config+0x8a>
	Error_Handler();
 80010fa:	f000 f8e9 	bl	80012d0 <Error_Handler>
}
PeriphClkInit.PeriphClockSelection = RCC_PERIPHCLK_ADC;
 80010fe:	2302      	movs	r3, #2
 8001100:	607b      	str	r3, [r7, #4]
PeriphClkInit.AdcClockSelection = RCC_ADCPCLK2_DIV8;
 8001102:	f44f 4340 	mov.w	r3, #49152	@ 0xc000
 8001106:	60fb      	str	r3, [r7, #12]
if (HAL_RCCEx_PeriphCLKConfig(&PeriphClkInit) != HAL_OK) {
 8001108:	1d3b      	adds	r3, r7, #4
 800110a:	4618      	mov	r0, r3
 800110c:	f001 fed2 	bl	8002eb4 <HAL_RCCEx_PeriphCLKConfig>
 8001110:	4603      	mov	r3, r0
 8001112:	2b00      	cmp	r3, #0
 8001114:	d001      	beq.n	800111a <SystemClock_Config+0xa6>
	Error_Handler();
 8001116:	f000 f8db 	bl	80012d0 <Error_Handler>
}
}
 800111a:	bf00      	nop
 800111c:	3750      	adds	r7, #80	@ 0x50
 800111e:	46bd      	mov	sp, r7
 8001120:	bd80      	pop	{r7, pc}
	...

08001124 <MX_ADC1_Init>:
/**
 * @brief ADC1 Initialization Function
 * @param None
 * @retval None
 */
static void MX_ADC1_Init(void) {
 8001124:	b580      	push	{r7, lr}
 8001126:	b084      	sub	sp, #16
 8001128:	af00      	add	r7, sp, #0

/* USER CODE BEGIN ADC1_Init 0 */

/* USER CODE END ADC1_Init 0 */

ADC_ChannelConfTypeDef sConfig = { 0 };
 800112a:	1d3b      	adds	r3, r7, #4
 800112c:	2200      	movs	r2, #0
 800112e:	601a      	str	r2, [r3, #0]
 8001130:	605a      	str	r2, [r3, #4]
 8001132:	609a      	str	r2, [r3, #8]

/* USER CODE END ADC1_Init 1 */

/** Common config
 */
hadc1.Instance = ADC1;
 8001134:	4b18      	ldr	r3, [pc, #96]	@ (8001198 <MX_ADC1_Init+0x74>)
 8001136:	4a19      	ldr	r2, [pc, #100]	@ (800119c <MX_ADC1_Init+0x78>)
 8001138:	601a      	str	r2, [r3, #0]
hadc1.Init.ScanConvMode = ADC_SCAN_DISABLE;
 800113a:	4b17      	ldr	r3, [pc, #92]	@ (8001198 <MX_ADC1_Init+0x74>)
 800113c:	2200      	movs	r2, #0
 800113e:	609a      	str	r2, [r3, #8]
hadc1.Init.ContinuousConvMode = ENABLE;
 8001140:	4b15      	ldr	r3, [pc, #84]	@ (8001198 <MX_ADC1_Init+0x74>)
 8001142:	2201      	movs	r2, #1
 8001144:	731a      	strb	r2, [r3, #12]
hadc1.Init.DiscontinuousConvMode = DISABLE;
 8001146:	4b14      	ldr	r3, [pc, #80]	@ (8001198 <MX_ADC1_Init+0x74>)
 8001148:	2200      	movs	r2, #0
 800114a:	751a      	strb	r2, [r3, #20]
hadc1.Init.ExternalTrigConv = ADC_SOFTWARE_START;
 800114c:	4b12      	ldr	r3, [pc, #72]	@ (8001198 <MX_ADC1_Init+0x74>)
 800114e:	f44f 2260 	mov.w	r2, #917504	@ 0xe0000
 8001152:	61da      	str	r2, [r3, #28]
hadc1.Init.DataAlign = ADC_DATAALIGN_RIGHT;
 8001154:	4b10      	ldr	r3, [pc, #64]	@ (8001198 <MX_ADC1_Init+0x74>)
 8001156:	2200      	movs	r2, #0
 8001158:	605a      	str	r2, [r3, #4]
hadc1.Init.NbrOfConversion = 1;
 800115a:	4b0f      	ldr	r3, [pc, #60]	@ (8001198 <MX_ADC1_Init+0x74>)
 800115c:	2201      	movs	r2, #1
 800115e:	611a      	str	r2, [r3, #16]
if (HAL_ADC_Init(&hadc1) != HAL_OK) {
 8001160:	480d      	ldr	r0, [pc, #52]	@ (8001198 <MX_ADC1_Init+0x74>)
 8001162:	f000 faf1 	bl	8001748 <HAL_ADC_Init>
 8001166:	4603      	mov	r3, r0
 8001168:	2b00      	cmp	r3, #0
 800116a:	d001      	beq.n	8001170 <MX_ADC1_Init+0x4c>
	Error_Handler();
 800116c:	f000 f8b0 	bl	80012d0 <Error_Handler>
}

/** Configure Regular Channel
 */
sConfig.Channel = ADC_CHANNEL_TEMPSENSOR;
 8001170:	2310      	movs	r3, #16
 8001172:	607b      	str	r3, [r7, #4]
sConfig.Rank = ADC_REGULAR_RANK_1;
 8001174:	2301      	movs	r3, #1
 8001176:	60bb      	str	r3, [r7, #8]
sConfig.SamplingTime = ADC_SAMPLETIME_13CYCLES_5;
 8001178:	2302      	movs	r3, #2
 800117a:	60fb      	str	r3, [r7, #12]
if (HAL_ADC_ConfigChannel(&hadc1, &sConfig) != HAL_OK) {
 800117c:	1d3b      	adds	r3, r7, #4
 800117e:	4619      	mov	r1, r3
 8001180:	4805      	ldr	r0, [pc, #20]	@ (8001198 <MX_ADC1_Init+0x74>)
 8001182:	f000 fd79 	bl	8001c78 <HAL_ADC_ConfigChannel>
 8001186:	4603      	mov	r3, r0
 8001188:	2b00      	cmp	r3, #0
 800118a:	d001      	beq.n	8001190 <MX_ADC1_Init+0x6c>
	Error_Handler();
 800118c:	f000 f8a0 	bl	80012d0 <Error_Handler>
}
/* USER CODE BEGIN ADC1_Init 2 */

/* USER CODE END ADC1_Init 2 */

}
 8001190:	bf00      	nop
 8001192:	3710      	adds	r7, #16
 8001194:	46bd      	mov	sp, r7
 8001196:	bd80      	pop	{r7, pc}
 8001198:	200001f0 	.word	0x200001f0
 800119c:	40012400 	.word	0x40012400

080011a0 <MX_USART2_UART_Init>:
/**
 * @brief USART2 Initialization Function
 * @param None
 * @retval None
 */
static void MX_USART2_UART_Init(void) {
 80011a0:	b580      	push	{r7, lr}
 80011a2:	af00      	add	r7, sp, #0
/* USER CODE END USART2_Init 0 */

/* USER CODE BEGIN USART2_Init 1 */

/* USER CODE END USART2_Init 1 */
huart2.Instance = USART2;
 80011a4:	4b11      	ldr	r3, [pc, #68]	@ (80011ec <MX_USART2_UART_Init+0x4c>)
 80011a6:	4a12      	ldr	r2, [pc, #72]	@ (80011f0 <MX_USART2_UART_Init+0x50>)
 80011a8:	601a      	str	r2, [r3, #0]
huart2.Init.BaudRate = 115200;
 80011aa:	4b10      	ldr	r3, [pc, #64]	@ (80011ec <MX_USART2_UART_Init+0x4c>)
 80011ac:	f44f 32e1 	mov.w	r2, #115200	@ 0x1c200
 80011b0:	605a      	str	r2, [r3, #4]
huart2.Init.WordLength = UART_WORDLENGTH_8B;
 80011b2:	4b0e      	ldr	r3, [pc, #56]	@ (80011ec <MX_USART2_UART_Init+0x4c>)
 80011b4:	2200      	movs	r2, #0
 80011b6:	609a      	str	r2, [r3, #8]
huart2.Init.StopBits = UART_STOPBITS_1;
 80011b8:	4b0c      	ldr	r3, [pc, #48]	@ (80011ec <MX_USART2_UART_Init+0x4c>)
 80011ba:	2200      	movs	r2, #0
 80011bc:	60da      	str	r2, [r3, #12]
huart2.Init.Parity = UART_PARITY_NONE;
 80011be:	4b0b      	ldr	r3, [pc, #44]	@ (80011ec <MX_USART2_UART_Init+0x4c>)
 80011c0:	2200      	movs	r2, #0
 80011c2:	611a      	str	r2, [r3, #16]
huart2.Init.Mode = UART_MODE_TX_RX;
 80011c4:	4b09      	ldr	r3, [pc, #36]	@ (80011ec <MX_USART2_UART_Init+0x4c>)
 80011c6:	220c      	movs	r2, #12
 80011c8:	615a      	str	r2, [r3, #20]
huart2.Init.HwFlowCtl = UART_HWCONTROL_NONE;
 80011ca:	4b08      	ldr	r3, [pc, #32]	@ (80011ec <MX_USART2_UART_Init+0x4c>)
 80011cc:	2200      	movs	r2, #0
 80011ce:	619a      	str	r2, [r3, #24]
huart2.Init.OverSampling = UART_OVERSAMPLING_16;
 80011d0:	4b06      	ldr	r3, [pc, #24]	@ (80011ec <MX_USART2_UART_Init+0x4c>)
 80011d2:	2200      	movs	r2, #0
 80011d4:	61da      	str	r2, [r3, #28]
if (HAL_UART_Init(&huart2) != HAL_OK) {
 80011d6:	4805      	ldr	r0, [pc, #20]	@ (80011ec <MX_USART2_UART_Init+0x4c>)
 80011d8:	f001 ffd8 	bl	800318c <HAL_UART_Init>
 80011dc:	4603      	mov	r3, r0
 80011de:	2b00      	cmp	r3, #0
 80011e0:	d001      	beq.n	80011e6 <MX_USART2_UART_Init+0x46>
	Error_Handler();
 80011e2:	f000 f875 	bl	80012d0 <Error_Handler>
}
/* USER CODE BEGIN USART2_Init 2 */

/* USER CODE END USART2_Init 2 */

}
 80011e6:	bf00      	nop
 80011e8:	bd80      	pop	{r7, pc}
 80011ea:	bf00      	nop
 80011ec:	20000220 	.word	0x20000220
 80011f0:	40004400 	.word	0x40004400

080011f4 <MX_GPIO_Init>:
/**
 * @brief GPIO Initialization Function
 * @param None
 * @retval None
 */
static void MX_GPIO_Init(void) {
 80011f4:	b580      	push	{r7, lr}
 80011f6:	b088      	sub	sp, #32
 80011f8:	af00      	add	r7, sp, #0
GPIO_InitTypeDef GPIO_InitStruct = { 0 };
 80011fa:	f107 0310 	add.w	r3, r7, #16
 80011fe:	2200      	movs	r2, #0
 8001200:	601a      	str	r2, [r3, #0]
 8001202:	605a      	str	r2, [r3, #4]
 8001204:	609a      	str	r2, [r3, #8]
 8001206:	60da      	str	r2, [r3, #12]
/* USER CODE BEGIN MX_GPIO_Init_1 */

/* USER CODE END MX_GPIO_Init_1 */

/* GPIO Ports Clock Enable */
__HAL_RCC_GPIOC_CLK_ENABLE();
 8001208:	4b2d      	ldr	r3, [pc, #180]	@ (80012c0 <MX_GPIO_Init+0xcc>)
 800120a:	699b      	ldr	r3, [r3, #24]
 800120c:	4a2c      	ldr	r2, [pc, #176]	@ (80012c0 <MX_GPIO_Init+0xcc>)
 800120e:	f043 0310 	orr.w	r3, r3, #16
 8001212:	6193      	str	r3, [r2, #24]
 8001214:	4b2a      	ldr	r3, [pc, #168]	@ (80012c0 <MX_GPIO_Init+0xcc>)
 8001216:	699b      	ldr	r3, [r3, #24]
 8001218:	f003 0310 	and.w	r3, r3, #16
 800121c:	60fb      	str	r3, [r7, #12]
 800121e:	68fb      	ldr	r3, [r7, #12]
__HAL_RCC_GPIOD_CLK_ENABLE();
 8001220:	4b27      	ldr	r3, [pc, #156]	@ (80012c0 <MX_GPIO_Init+0xcc>)
 8001222:	699b      	ldr	r3, [r3, #24]
 8001224:	4a26      	ldr	r2, [pc, #152]	@ (80012c0 <MX_GPIO_Init+0xcc>)
 8001226:	f043 0320 	orr.w	r3, r3, #32
 800122a:	6193      	str	r3, [r2, #24]
 800122c:	4b24      	ldr	r3, [pc, #144]	@ (80012c0 <MX_GPIO_Init+0xcc>)
 800122e:	699b      	ldr	r3, [r3, #24]
 8001230:	f003 0320 	and.w	r3, r3, #32
 8001234:	60bb      	str	r3, [r7, #8]
 8001236:	68bb      	ldr	r3, [r7, #8]
__HAL_RCC_GPIOA_CLK_ENABLE();
 8001238:	4b21      	ldr	r3, [pc, #132]	@ (80012c0 <MX_GPIO_Init+0xcc>)
 800123a:	699b      	ldr	r3, [r3, #24]
 800123c:	4a20      	ldr	r2, [pc, #128]	@ (80012c0 <MX_GPIO_Init+0xcc>)
 800123e:	f043 0304 	orr.w	r3, r3, #4
 8001242:	6193      	str	r3, [r2, #24]
 8001244:	4b1e      	ldr	r3, [pc, #120]	@ (80012c0 <MX_GPIO_Init+0xcc>)
 8001246:	699b      	ldr	r3, [r3, #24]
 8001248:	f003 0304 	and.w	r3, r3, #4
 800124c:	607b      	str	r3, [r7, #4]
 800124e:	687b      	ldr	r3, [r7, #4]
__HAL_RCC_GPIOB_CLK_ENABLE();
 8001250:	4b1b      	ldr	r3, [pc, #108]	@ (80012c0 <MX_GPIO_Init+0xcc>)
 8001252:	699b      	ldr	r3, [r3, #24]
 8001254:	4a1a      	ldr	r2, [pc, #104]	@ (80012c0 <MX_GPIO_Init+0xcc>)
 8001256:	f043 0308 	orr.w	r3, r3, #8
 800125a:	6193      	str	r3, [r2, #24]
 800125c:	4b18      	ldr	r3, [pc, #96]	@ (80012c0 <MX_GPIO_Init+0xcc>)
 800125e:	699b      	ldr	r3, [r3, #24]
 8001260:	f003 0308 	and.w	r3, r3, #8
 8001264:	603b      	str	r3, [r7, #0]
 8001266:	683b      	ldr	r3, [r7, #0]

/*Configure GPIO pin Output Level */
HAL_GPIO_WritePin(LD2_GPIO_Port, LD2_Pin, GPIO_PIN_RESET);
 8001268:	2200      	movs	r2, #0
 800126a:	2120      	movs	r1, #32
 800126c:	4815      	ldr	r0, [pc, #84]	@ (80012c4 <MX_GPIO_Init+0xd0>)
 800126e:	f001 f9d7 	bl	8002620 <HAL_GPIO_WritePin>

/*Configure GPIO pin : B1_Pin */
GPIO_InitStruct.Pin = B1_Pin;
 8001272:	f44f 5300 	mov.w	r3, #8192	@ 0x2000
 8001276:	613b      	str	r3, [r7, #16]
GPIO_InitStruct.Mode = GPIO_MODE_IT_RISING;
 8001278:	4b13      	ldr	r3, [pc, #76]	@ (80012c8 <MX_GPIO_Init+0xd4>)
 800127a:	617b      	str	r3, [r7, #20]
GPIO_InitStruct.Pull = GPIO_NOPULL;
 800127c:	2300      	movs	r3, #0
 800127e:	61bb      	str	r3, [r7, #24]
HAL_GPIO_Init(B1_GPIO_Port, &GPIO_InitStruct);
 8001280:	f107 0310 	add.w	r3, r7, #16
 8001284:	4619      	mov	r1, r3
 8001286:	4811      	ldr	r0, [pc, #68]	@ (80012cc <MX_GPIO_Init+0xd8>)
 8001288:	f001 f846 	bl	8002318 <HAL_GPIO_Init>

/*Configure GPIO pin : LD2_Pin */
GPIO_InitStruct.Pin = LD2_Pin;
 800128c:	2320      	movs	r3, #32
 800128e:	613b      	str	r3, [r7, #16]
GPIO_InitStruct.Mode = GPIO_MODE_OUTPUT_PP;
 8001290:	2301      	movs	r3, #1
 8001292:	617b      	str	r3, [r7, #20]
GPIO_InitStruct.Pull = GPIO_NOPULL;
 8001294:	2300      	movs	r3, #0
 8001296:	61bb      	str	r3, [r7, #24]
GPIO_InitStruct.Speed = GPIO_SPEED_FREQ_LOW;
 8001298:	2302      	movs	r3, #2
 800129a:	61fb      	str	r3, [r7, #28]
HAL_GPIO_Init(LD2_GPIO_Port, &GPIO_InitStruct);
 800129c:	f107 0310 	add.w	r3, r7, #16
 80012a0:	4619      	mov	r1, r3
 80012a2:	4808      	ldr	r0, [pc, #32]	@ (80012c4 <MX_GPIO_Init+0xd0>)
 80012a4:	f001 f838 	bl	8002318 <HAL_GPIO_Init>

/* EXTI interrupt init*/
HAL_NVIC_SetPriority(EXTI15_10_IRQn, 0, 0);
 80012a8:	2200      	movs	r2, #0
 80012aa:	2100      	movs	r1, #0
 80012ac:	2028      	movs	r0, #40	@ 0x28
 80012ae:	f000 fffc 	bl	80022aa <HAL_NVIC_SetPriority>
HAL_NVIC_EnableIRQ(EXTI15_10_IRQn);
 80012b2:	2028      	movs	r0, #40	@ 0x28
 80012b4:	f001 f815 	bl	80022e2 <HAL_NVIC_EnableIRQ>

/* USER CODE BEGIN MX_GPIO_Init_2 */

/* USER CODE END MX_GPIO_Init_2 */
}
 80012b8:	bf00      	nop
 80012ba:	3720      	adds	r7, #32
 80012bc:	46bd      	mov	sp, r7
 80012be:	bd80      	pop	{r7, pc}
 80012c0:	40021000 	.word	0x40021000
 80012c4:	40010800 	.word	0x40010800
 80012c8:	10110000 	.word	0x10110000
 80012cc:	40011000 	.word	0x40011000

080012d0 <Error_Handler>:

/**
 * @brief  This function is executed in case of error occurrence.
 * @retval None
 */
void Error_Handler(void) {
 80012d0:	b480      	push	{r7}
 80012d2:	af00      	add	r7, sp, #0
  \details Disables IRQ interrupts by setting the I-bit in the CPSR.
           Can only be executed in Privileged modes.
 */
__STATIC_FORCEINLINE void __disable_irq(void)
{
  __ASM volatile ("cpsid i" : : : "memory");
 80012d4:	b672      	cpsid	i
}
 80012d6:	bf00      	nop
/* USER CODE BEGIN Error_Handler_Debug */
/* User can add his own implementation to report the HAL error return state */
__disable_irq();
while (1) {
 80012d8:	bf00      	nop
 80012da:	e7fd      	b.n	80012d8 <Error_Handler+0x8>

080012dc <HAL_MspInit>:
/* USER CODE END 0 */
/**
  * Initializes the Global MSP.
  */
void HAL_MspInit(void)
{
 80012dc:	b480      	push	{r7}
 80012de:	b085      	sub	sp, #20
 80012e0:	af00      	add	r7, sp, #0

  /* USER CODE BEGIN MspInit 0 */

  /* USER CODE END MspInit 0 */

  __HAL_RCC_AFIO_CLK_ENABLE();
 80012e2:	4b15      	ldr	r3, [pc, #84]	@ (8001338 <HAL_MspInit+0x5c>)
 80012e4:	699b      	ldr	r3, [r3, #24]
 80012e6:	4a14      	ldr	r2, [pc, #80]	@ (8001338 <HAL_MspInit+0x5c>)
 80012e8:	f043 0301 	orr.w	r3, r3, #1
 80012ec:	6193      	str	r3, [r2, #24]
 80012ee:	4b12      	ldr	r3, [pc, #72]	@ (8001338 <HAL_MspInit+0x5c>)
 80012f0:	699b      	ldr	r3, [r3, #24]
 80012f2:	f003 0301 	and.w	r3, r3, #1
 80012f6:	60bb      	str	r3, [r7, #8]
 80012f8:	68bb      	ldr	r3, [r7, #8]
  __HAL_RCC_PWR_CLK_ENABLE();
 80012fa:	4b0f      	ldr	r3, [pc, #60]	@ (8001338 <HAL_MspInit+0x5c>)
 80012fc:	69db      	ldr	r3, [r3, #28]
 80012fe:	4a0e      	ldr	r2, [pc, #56]	@ (8001338 <HAL_MspInit+0x5c>)
 8001300:	f043 5380 	orr.w	r3, r3, #268435456	@ 0x10000000
 8001304:	61d3      	str	r3, [r2, #28]
 8001306:	4b0c      	ldr	r3, [pc, #48]	@ (8001338 <HAL_MspInit+0x5c>)
 8001308:	69db      	ldr	r3, [r3, #28]
 800130a:	f003 5380 	and.w	r3, r3, #268435456	@ 0x10000000
 800130e:	607b      	str	r3, [r7, #4]
 8001310:	687b      	ldr	r3, [r7, #4]

  /* System interrupt init*/

  /** NOJTAG: JTAG-DP Disabled and SW-DP Enabled
  */
  __HAL_AFIO_REMAP_SWJ_NOJTAG();
 8001312:	4b0a      	ldr	r3, [pc, #40]	@ (800133c <HAL_MspInit+0x60>)
 8001314:	685b      	ldr	r3, [r3, #4]
 8001316:	60fb      	str	r3, [r7, #12]
 8001318:	68fb      	ldr	r3, [r7, #12]
 800131a:	f023 63e0 	bic.w	r3, r3, #117440512	@ 0x7000000
 800131e:	60fb      	str	r3, [r7, #12]
 8001320:	68fb      	ldr	r3, [r7, #12]
 8001322:	f043 7300 	orr.w	r3, r3, #33554432	@ 0x2000000
 8001326:	60fb      	str	r3, [r7, #12]
 8001328:	4a04      	ldr	r2, [pc, #16]	@ (800133c <HAL_MspInit+0x60>)
 800132a:	68fb      	ldr	r3, [r7, #12]
 800132c:	6053      	str	r3, [r2, #4]

  /* USER CODE BEGIN MspInit 1 */

  /* USER CODE END MspInit 1 */
}
 800132e:	bf00      	nop
 8001330:	3714      	adds	r7, #20
 8001332:	46bd      	mov	sp, r7
 8001334:	bc80      	pop	{r7}
 8001336:	4770      	bx	lr
 8001338:	40021000 	.word	0x40021000
 800133c:	40010000 	.word	0x40010000

08001340 <HAL_ADC_MspInit>:
  * This function configures the hardware resources used in this example
  * @param hadc: ADC handle pointer
  * @retval None
  */
void HAL_ADC_MspInit(ADC_HandleTypeDef* hadc)
{
 8001340:	b480      	push	{r7}
 8001342:	b085      	sub	sp, #20
 8001344:	af00      	add	r7, sp, #0
 8001346:	6078      	str	r0, [r7, #4]
  if(hadc->Instance==ADC1)
 8001348:	687b      	ldr	r3, [r7, #4]
 800134a:	681b      	ldr	r3, [r3, #0]
 800134c:	4a09      	ldr	r2, [pc, #36]	@ (8001374 <HAL_ADC_MspInit+0x34>)
 800134e:	4293      	cmp	r3, r2
 8001350:	d10b      	bne.n	800136a <HAL_ADC_MspInit+0x2a>
  {
    /* USER CODE BEGIN ADC1_MspInit 0 */

    /* USER CODE END ADC1_MspInit 0 */
    /* Peripheral clock enable */
    __HAL_RCC_ADC1_CLK_ENABLE();
 8001352:	4b09      	ldr	r3, [pc, #36]	@ (8001378 <HAL_ADC_MspInit+0x38>)
 8001354:	699b      	ldr	r3, [r3, #24]
 8001356:	4a08      	ldr	r2, [pc, #32]	@ (8001378 <HAL_ADC_MspInit+0x38>)
 8001358:	f443 7300 	orr.w	r3, r3, #512	@ 0x200
 800135c:	6193      	str	r3, [r2, #24]
 800135e:	4b06      	ldr	r3, [pc, #24]	@ (8001378 <HAL_ADC_MspInit+0x38>)
 8001360:	699b      	ldr	r3, [r3, #24]
 8001362:	f403 7300 	and.w	r3, r3, #512	@ 0x200
 8001366:	60fb      	str	r3, [r7, #12]
 8001368:	68fb      	ldr	r3, [r7, #12]

    /* USER CODE END ADC1_MspInit 1 */

  }

}
 800136a:	bf00      	nop
 800136c:	3714      	adds	r7, #20
 800136e:	46bd      	mov	sp, r7
 8001370:	bc80      	pop	{r7}
 8001372:	4770      	bx	lr
 8001374:	40012400 	.word	0x40012400
 8001378:	40021000 	.word	0x40021000

0800137c <HAL_UART_MspInit>:
  * This function configures the hardware resources used in this example
  * @param huart: UART handle pointer
  * @retval None
  */
void HAL_UART_MspInit(UART_HandleTypeDef* huart)
{
 800137c:	b580      	push	{r7, lr}
 800137e:	b088      	sub	sp, #32
 8001380:	af00      	add	r7, sp, #0
 8001382:	6078      	str	r0, [r7, #4]
  GPIO_InitTypeDef GPIO_InitStruct = {0};
 8001384:	f107 0310 	add.w	r3, r7, #16
 8001388:	2200      	movs	r2, #0
 800138a:	601a      	str	r2, [r3, #0]
 800138c:	605a      	str	r2, [r3, #4]
 800138e:	609a      	str	r2, [r3, #8]
 8001390:	60da      	str	r2, [r3, #12]
  if(huart->Instance==USART2)
 8001392:	687b      	ldr	r3, [r7, #4]
 8001394:	681b      	ldr	r3, [r3, #0]
 8001396:	4a15      	ldr	r2, [pc, #84]	@ (80013ec <HAL_UART_MspInit+0x70>)
 8001398:	4293      	cmp	r3, r2
 800139a:	d123      	bne.n	80013e4 <HAL_UART_MspInit+0x68>
  {
    /* USER CODE BEGIN USART2_MspInit 0 */

    /* USER CODE END USART2_MspInit 0 */
    /* Peripheral clock enable */
    __HAL_RCC_USART2_CLK_ENABLE();
 800139c:	4b14      	ldr	r3, [pc, #80]	@ (80013f0 <HAL_UART_MspInit+0x74>)
 800139e:	69db      	ldr	r3, [r3, #28]
 80013a0:	4a13      	ldr	r2, [pc, #76]	@ (80013f0 <HAL_UART_MspInit+0x74>)
 80013a2:	f443 3300 	orr.w	r3, r3, #131072	@ 0x20000
 80013a6:	61d3      	str	r3, [r2, #28]
 80013a8:	4b11      	ldr	r3, [pc, #68]	@ (80013f0 <HAL_UART_MspInit+0x74>)
 80013aa:	69db      	ldr	r3, [r3, #28]
 80013ac:	f403 3300 	and.w	r3, r3, #131072	@ 0x20000
 80013b0:	60fb      	str	r3, [r7, #12]
 80013b2:	68fb      	ldr	r3, [r7, #12]

    __HAL_RCC_GPIOA_CLK_ENABLE();
 80013b4:	4b0e      	ldr	r3, [pc, #56]	@ (80013f0 <HAL_UART_MspInit+0x74>)
 80013b6:	699b      	ldr	r3, [r3, #24]
 80013b8:	4a0d      	ldr	r2, [pc, #52]	@ (80013f0 <HAL_UART_MspInit+0x74>)
 80013ba:	f043 0304 	orr.w	r3, r3, #4
 80013be:	6193      	str	r3, [r2, #24]
 80013c0:	4b0b      	ldr	r3, [pc, #44]	@ (80013f0 <HAL_UART_MspInit+0x74>)
 80013c2:	699b      	ldr	r3, [r3, #24]
 80013c4:	f003 0304 	and.w	r3, r3, #4
 80013c8:	60bb      	str	r3, [r7, #8]
 80013ca:	68bb      	ldr	r3, [r7, #8]
    /**USART2 GPIO Configuration
    PA2     ------> USART2_TX
    PA3     ------> USART2_RX
    */
    GPIO_InitStruct.Pin = USART_TX_Pin|USART_RX_Pin;
 80013cc:	230c      	movs	r3, #12
 80013ce:	613b      	str	r3, [r7, #16]
    GPIO_InitStruct.Mode = GPIO_MODE_AF_PP;
 80013d0:	2302      	movs	r3, #2
 80013d2:	617b      	str	r3, [r7, #20]
    GPIO_InitStruct.Speed = GPIO_SPEED_FREQ_LOW;
 80013d4:	2302      	movs	r3, #2
 80013d6:	61fb      	str	r3, [r7, #28]
    HAL_GPIO_Init(GPIOA, &GPIO_InitStruct);
 80013d8:	f107 0310 	add.w	r3, r7, #16
 80013dc:	4619      	mov	r1, r3
 80013de:	4805      	ldr	r0, [pc, #20]	@ (80013f4 <HAL_UART_MspInit+0x78>)
 80013e0:	f000 ff9a 	bl	8002318 <HAL_GPIO_Init>

    /* USER CODE END USART2_MspInit 1 */

  }

}
 80013e4:	bf00      	nop
 80013e6:	3720      	adds	r7, #32
 80013e8:	46bd      	mov	sp, r7
 80013ea:	bd80      	pop	{r7, pc}
 80013ec:	40004400 	.word	0x40004400
 80013f0:	40021000 	.word	0x40021000
 80013f4:	40010800 	.word	0x40010800

080013f8 <NMI_Handler>:
/******************************************************************************/
/**
  * @brief This function handles Non maskable interrupt.
  */
void NMI_Handler(void)
{
 80013f8:	b480      	push	{r7}
 80013fa:	af00      	add	r7, sp, #0
  /* USER CODE BEGIN NonMaskableInt_IRQn 0 */

  /* USER CODE END NonMaskableInt_IRQn 0 */
  /* USER CODE BEGIN NonMaskableInt_IRQn 1 */
   while (1)
 80013fc:	bf00      	nop
 80013fe:	e7fd      	b.n	80013fc <NMI_Handler+0x4>

08001400 <HardFault_Handler>:

/**
  * @brief This function handles Hard fault interrupt.
  */
void HardFault_Handler(void)
{
 8001400:	b480      	push	{r7}
 8001402:	af00      	add	r7, sp, #0
  /* USER CODE BEGIN HardFault_IRQn 0 */

  /* USER CODE END HardFault_IRQn 0 */
  while (1)
 8001404:	bf00      	nop
 8001406:	e7fd      	b.n	8001404 <HardFault_Handler+0x4>

08001408 <MemManage_Handler>:

/**
  * @brief This function handles Memory management fault.
  */
void MemManage_Handler(void)
{
 8001408:	b480      	push	{r7}
 800140a:	af00      	add	r7, sp, #0
  /* USER CODE BEGIN MemoryManagement_IRQn 0 */

  /* USER CODE END MemoryManagement_IRQn 0 */
  while (1)
 800140c:	bf00      	nop
 800140e:	e7fd      	b.n	800140c <MemManage_Handler+0x4>

08001410 <BusFault_Handler>:

/**
  * @brief This function handles Prefetch fault, memory access fault.
  */
void BusFault_Handler(void)
{
 8001410:	b480      	push	{r7}
 8001412:	af00      	add	r7, sp, #0
  /* USER CODE BEGIN BusFault_IRQn 0 */

  /* USER CODE END BusFault_IRQn 0 */
  while (1)
 8001414:	bf00      	nop
 8001416:	e7fd      	b.n	8001414 <BusFault_Handler+0x4>

08001418 <UsageFault_Handler>:

/**
  * @brief This function handles Undefined instruction or illegal state.
  */
void UsageFault_Handler(void)
{
 8001418:	b480      	push	{r7}
 800141a:	af00      	add	r7, sp, #0
  /* USER CODE BEGIN UsageFault_IRQn 0 */

  /* USER CODE END UsageFault_IRQn 0 */
  while (1)
 800141c:	bf00      	nop
 800141e:	e7fd      	b.n	800141c <UsageFault_Handler+0x4>

08001420 <SVC_Handler>:

/**
  * @brief This function handles System service call via SWI instruction.
  */
void SVC_Handler(void)
{
 8001420:	b480      	push	{r7}
 8001422:	af00      	add	r7, sp, #0

  /* USER CODE END SVCall_IRQn 0 */
  /* USER CODE BEGIN SVCall_IRQn 1 */

  /* USER CODE END SVCall_IRQn 1 */
}
 8001424:	bf00      	nop
 8001426:	46bd      	mov	sp, r7
 8001428:	bc80      	pop	{r7}
 800142a:	4770      	bx	lr

0800142c <DebugMon_Handler>:

/**
  * @brief This function handles Debug monitor.
  */
void DebugMon_Handler(void)
{
 800142c:	b480      	push	{r7}
 800142e:	af00      	add	r7, sp, #0

  /* USER CODE END DebugMonitor_IRQn 0 */
  /* USER CODE BEGIN DebugMonitor_IRQn 1 */

  /* USER CODE END DebugMonitor_IRQn 1 */
}
 8001430:	bf00      	nop
 8001432:	46bd      	mov	sp, r7
 8001434:	bc80      	pop	{r7}
 8001436:	4770      	bx	lr

08001438 <PendSV_Handler>:

/**
  * @brief This function handles Pendable request for system service.
  */
void PendSV_Handler(void)
{
 8001438:	b480      	push	{r7}
 800143a:	af00      	add	r7, sp, #0

  /* USER CODE END PendSV_IRQn 0 */
  /* USER CODE BEGIN PendSV_IRQn 1 */

  /* USER CODE END PendSV_IRQn 1 */
}
 800143c:	bf00      	nop
 800143e:	46bd      	mov	sp, r7
 8001440:	bc80      	pop	{r7}
 8001442:	4770      	bx	lr

08001444 <SysTick_Handler>:

/**
  * @brief This function handles System tick timer.
  */
void SysTick_Handler(void)
{
 8001444:	b580      	push	{r7, lr}
 8001446:	af00      	add	r7, sp, #0
  /* USER CODE BEGIN SysTick_IRQn 0 */

  /* USER CODE END SysTick_IRQn 0 */
  HAL_IncTick();
 8001448:	f000 f93e 	bl	80016c8 <HAL_IncTick>
  /* USER CODE BEGIN SysTick_IRQn 1 */

  /* USER CODE END SysTick_IRQn 1 */
}
 800144c:	bf00      	nop
 800144e:	bd80      	pop	{r7, pc}

08001450 <EXTI15_10_IRQHandler>:

/**
  * @brief This function handles EXTI line[15:10] interrupts.
  */
void EXTI15_10_IRQHandler(void)
{
 8001450:	b580      	push	{r7, lr}
 8001452:	af00      	add	r7, sp, #0
  /* USER CODE BEGIN EXTI15_10_IRQn 0 */

  /* USER CODE END EXTI15_10_IRQn 0 */
  HAL_GPIO_EXTI_IRQHandler(B1_Pin);
 8001454:	f44f 5000 	mov.w	r0, #8192	@ 0x2000
 8001458:	f001 f8fa 	bl	8002650 <HAL_GPIO_EXTI_IRQHandler>
  /* USER CODE BEGIN EXTI15_10_IRQn 1 */

  /* USER CODE END EXTI15_10_IRQn 1 */
}
 800145c:	bf00      	nop
 800145e:	bd80      	pop	{r7, pc}

08001460 <_getpid>:
void initialise_monitor_handles()
{
}

int _getpid(void)
{
 8001460:	b480      	push	{r7}
 8001462:	af00      	add	r7, sp, #0
  return 1;
 8001464:	2301      	movs	r3, #1
}
 8001466:	4618      	mov	r0, r3
 8001468:	46bd      	mov	sp, r7
 800146a:	bc80      	pop	{r7}
 800146c:	4770      	bx	lr

0800146e <_kill>:

int _kill(int pid, int sig)
{
 800146e:	b580      	push	{r7, lr}
 8001470:	b082      	sub	sp, #8
 8001472:	af00      	add	r7, sp, #0
 8001474:	6078      	str	r0, [r7, #4]
 8001476:	6039      	str	r1, [r7, #0]
  (void)pid;
  (void)sig;
  errno = EINVAL;
 8001478:	f002 ff62 	bl	8004340 <__errno>
 800147c:	4603      	mov	r3, r0
 800147e:	2216      	movs	r2, #22
 8001480:	601a      	str	r2, [r3, #0]
  return -1;
 8001482:	f04f 33ff 	mov.w	r3, #4294967295
}
 8001486:	4618      	mov	r0, r3
 8001488:	3708      	adds	r7, #8
 800148a:	46bd      	mov	sp, r7
 800148c:	bd80      	pop	{r7, pc}

0800148e <_exit>:

void _exit (int status)
{
 800148e:	b580      	push	{r7, lr}
 8001490:	b082      	sub	sp, #8
 8001492:	af00      	add	r7, sp, #0
 8001494:	6078      	str	r0, [r7, #4]
  _kill(status, -1);
 8001496:	f04f 31ff 	mov.w	r1, #4294967295
 800149a:	6878      	ldr	r0, [r7, #4]
 800149c:	f7ff ffe7 	bl	800146e <_kill>
  while (1) {}    /* Make sure we hang here */
 80014a0:	bf00      	nop
 80014a2:	e7fd      	b.n	80014a0 <_exit+0x12>

080014a4 <_read>:
}

__attribute__((weak)) int _read(int file, char *ptr, int len)
{
 80014a4:	b580      	push	{r7, lr}
 80014a6:	b086      	sub	sp, #24
 80014a8:	af00      	add	r7, sp, #0
 80014aa:	60f8      	str	r0, [r7, #12]
 80014ac:	60b9      	str	r1, [r7, #8]
 80014ae:	607a      	str	r2, [r7, #4]
  (void)file;
  int DataIdx;

  for (DataIdx = 0; DataIdx < len; DataIdx++)
 80014b0:	2300      	movs	r3, #0
 80014b2:	617b      	str	r3, [r7, #20]
 80014b4:	e00a      	b.n	80014cc <_read+0x28>
  {
    *ptr++ = __io_getchar();
 80014b6:	f3af 8000 	nop.w
 80014ba:	4601      	mov	r1, r0
 80014bc:	68bb      	ldr	r3, [r7, #8]
 80014be:	1c5a      	adds	r2, r3, #1
 80014c0:	60ba      	str	r2, [r7, #8]
 80014c2:	b2ca      	uxtb	r2, r1
 80014c4:	701a      	strb	r2, [r3, #0]
  for (DataIdx = 0; DataIdx < len; DataIdx++)
 80014c6:	697b      	ldr	r3, [r7, #20]
 80014c8:	3301      	adds	r3, #1
 80014ca:	617b      	str	r3, [r7, #20]
 80014cc:	697a      	ldr	r2, [r7, #20]
 80014ce:	687b      	ldr	r3, [r7, #4]
 80014d0:	429a      	cmp	r2, r3
 80014d2:	dbf0      	blt.n	80014b6 <_read+0x12>
  }

  return len;
 80014d4:	687b      	ldr	r3, [r7, #4]
}
 80014d6:	4618      	mov	r0, r3
 80014d8:	3718      	adds	r7, #24
 80014da:	46bd      	mov	sp, r7
 80014dc:	bd80      	pop	{r7, pc}

080014de <_write>:

__attribute__((weak)) int _write(int file, char *ptr, int len)
{
 80014de:	b580      	push	{r7, lr}
 80014e0:	b086      	sub	sp, #24
 80014e2:	af00      	add	r7, sp, #0
 80014e4:	60f8      	str	r0, [r7, #12]
 80014e6:	60b9      	str	r1, [r7, #8]
 80014e8:	607a      	str	r2, [r7, #4]
  (void)file;
  int DataIdx;

  for (DataIdx = 0; DataIdx < len; DataIdx++)
 80014ea:	2300      	movs	r3, #0
 80014ec:	617b      	str	r3, [r7, #20]
 80014ee:	e009      	b.n	8001504 <_write+0x26>
  {
    __io_putchar(*ptr++);
 80014f0:	68bb      	ldr	r3, [r7, #8]
 80014f2:	1c5a      	adds	r2, r3, #1
 80014f4:	60ba      	str	r2, [r7, #8]
 80014f6:	781b      	ldrb	r3, [r3, #0]
 80014f8:	4618      	mov	r0, r3
 80014fa:	f7ff fd23 	bl	8000f44 <__io_putchar>
  for (DataIdx = 0; DataIdx < len; DataIdx++)
 80014fe:	697b      	ldr	r3, [r7, #20]
 8001500:	3301      	adds	r3, #1
 8001502:	617b      	str	r3, [r7, #20]
 8001504:	697a      	ldr	r2, [r7, #20]
 8001506:	687b      	ldr	r3, [r7, #4]
 8001508:	429a      	cmp	r2, r3
 800150a:	dbf1      	blt.n	80014f0 <_write+0x12>
  }
  return len;
 800150c:	687b      	ldr	r3, [r7, #4]
}
 800150e:	4618      	mov	r0, r3
 8001510:	3718      	adds	r7, #24
 8001512:	46bd      	mov	sp, r7
 8001514:	bd80      	pop	{r7, pc}

08001516 <_close>:

int _close(int file)
{
 8001516:	b480      	push	{r7}
 8001518:	b083      	sub	sp, #12
 800151a:	af00      	add	r7, sp, #0
 800151c:	6078      	str	r0, [r7, #4]
  (void)file;
  return -1;
 800151e:	f04f 33ff 	mov.w	r3, #4294967295
}
 8001522:	4618      	mov	r0, r3
 8001524:	370c      	adds	r7, #12
 8001526:	46bd      	mov	sp, r7
 8001528:	bc80      	pop	{r7}
 800152a:	4770      	bx	lr

0800152c <_fstat>:


int _fstat(int file, struct stat *st)
{
 800152c:	b480      	push	{r7}
 800152e:	b083      	sub	sp, #12
 8001530:	af00      	add	r7, sp, #0
 8001532:	6078      	str	r0, [r7, #4]
 8001534:	6039      	str	r1, [r7, #0]
  (void)file;
  st->st_mode = S_IFCHR;
 8001536:	683b      	ldr	r3, [r7, #0]
 8001538:	f44f 5200 	mov.w	r2, #8192	@ 0x2000
 800153c:	605a      	str	r2, [r3, #4]
  return 0;
 800153e:	2300      	movs	r3, #0
}
 8001540:	4618      	mov	r0, r3
 8001542:	370c      	adds	r7, #12
 8001544:	46bd      	mov	sp, r7
 8001546:	bc80      	pop	{r7}
 8001548:	4770      	bx	lr

0800154a <_isatty>:

int _isatty(int file)
{
 800154a:	b480      	push	{r7}
 800154c:	b083      	sub	sp, #12
 800154e:	af00      	add	r7, sp, #0
 8001550:	6078      	str	r0, [r7, #4]
  (void)file;
  return 1;
 8001552:	2301      	movs	r3, #1
}
 8001554:	4618      	mov	r0, r3
 8001556:	370c      	adds	r7, #12
 8001558:	46bd      	mov	sp, r7
 800155a:	bc80      	pop	{r7}
 800155c:	4770      	bx	lr

0800155e <_lseek>:

int _lseek(int file, int ptr, int dir)
{
 800155e:	b480      	push	{r7}
 8001560:	b085      	sub	sp, #20
 8001562:	af00      	add	r7, sp, #0
 8001564:	60f8      	str	r0, [r7, #12]
 8001566:	60b9      	str	r1, [r7, #8]
 8001568:	607a      	str	r2, [r7, #4]
  (void)file;
  (void)ptr;
  (void)dir;
  return 0;
 800156a:	2300      	movs	r3, #0
}
 800156c:	4618      	mov	r0, r3
 800156e:	3714      	adds	r7, #20
 8001570:	46bd      	mov	sp, r7
 8001572:	bc80      	pop	{r7}
 8001574:	4770      	bx	lr
	...

08001578 <_sbrk>:
 *
 * @param incr Memory size
 * @return Pointer to allocated memory
 */
void *_sbrk(ptrdiff_t incr)
{
 8001578:	b580      	push	{r7, lr}
 800157a:	b086      	sub	sp, #24
 800157c:	af00      	add	r7, sp, #0
 800157e:	6078      	str	r0, [r7, #4]
  extern uint8_t _end; /* Symbol defined in the linker script */
  extern uint8_t _estack; /* Symbol defined in the linker script */
  extern uint32_t _Min_Stack_Size; /* Symbol defined in the linker script */
  const uint32_t stack_limit = (uint32_t)&_estack - (uint32_t)&_Min_Stack_Size;
 8001580:	4a14      	ldr	r2, [pc, #80]	@ (80015d4 <_sbrk+0x5c>)
 8001582:	4b15      	ldr	r3, [pc, #84]	@ (80015d8 <_sbrk+0x60>)
 8001584:	1ad3      	subs	r3, r2, r3
 8001586:	617b      	str	r3, [r7, #20]
  const uint8_t *max_heap = (uint8_t *)stack_limit;
 8001588:	697b      	ldr	r3, [r7, #20]
 800158a:	613b      	str	r3, [r7, #16]
  uint8_t *prev_heap_end;

  /* Initialize heap end at first call */
  if (NULL == __sbrk_heap_end)
 800158c:	4b13      	ldr	r3, [pc, #76]	@ (80015dc <_sbrk+0x64>)
 800158e:	681b      	ldr	r3, [r3, #0]
 8001590:	2b00      	cmp	r3, #0
 8001592:	d102      	bne.n	800159a <_sbrk+0x22>
  {
    __sbrk_heap_end = &_end;
 8001594:	4b11      	ldr	r3, [pc, #68]	@ (80015dc <_sbrk+0x64>)
 8001596:	4a12      	ldr	r2, [pc, #72]	@ (80015e0 <_sbrk+0x68>)
 8001598:	601a      	str	r2, [r3, #0]
  }

  /* Protect heap from growing into the reserved MSP stack */
  if (__sbrk_heap_end + incr > max_heap)
 800159a:	4b10      	ldr	r3, [pc, #64]	@ (80015dc <_sbrk+0x64>)
 800159c:	681a      	ldr	r2, [r3, #0]
 800159e:	687b      	ldr	r3, [r7, #4]
 80015a0:	4413      	add	r3, r2
 80015a2:	693a      	ldr	r2, [r7, #16]
 80015a4:	429a      	cmp	r2, r3
 80015a6:	d207      	bcs.n	80015b8 <_sbrk+0x40>
  {
    errno = ENOMEM;
 80015a8:	f002 feca 	bl	8004340 <__errno>
 80015ac:	4603      	mov	r3, r0
 80015ae:	220c      	movs	r2, #12
 80015b0:	601a      	str	r2, [r3, #0]
    return (void *)-1;
 80015b2:	f04f 33ff 	mov.w	r3, #4294967295
 80015b6:	e009      	b.n	80015cc <_sbrk+0x54>
  }

  prev_heap_end = __sbrk_heap_end;
 80015b8:	4b08      	ldr	r3, [pc, #32]	@ (80015dc <_sbrk+0x64>)
 80015ba:	681b      	ldr	r3, [r3, #0]
 80015bc:	60fb      	str	r3, [r7, #12]
  __sbrk_heap_end += incr;
 80015be:	4b07      	ldr	r3, [pc, #28]	@ (80015dc <_sbrk+0x64>)
 80015c0:	681a      	ldr	r2, [r3, #0]
 80015c2:	687b      	ldr	r3, [r7, #4]
 80015c4:	4413      	add	r3, r2
 80015c6:	4a05      	ldr	r2, [pc, #20]	@ (80015dc <_sbrk+0x64>)
 80015c8:	6013      	str	r3, [r2, #0]

  return (void *)prev_heap_end;
 80015ca:	68fb      	ldr	r3, [r7, #12]
}
 80015cc:	4618      	mov	r0, r3
 80015ce:	3718      	adds	r7, #24
 80015d0:	46bd      	mov	sp, r7
 80015d2:	bd80      	pop	{r7, pc}
 80015d4:	20005000 	.word	0x20005000
 80015d8:	00000400 	.word	0x00000400
 80015dc:	20000268 	.word	0x20000268
 80015e0:	200003c0 	.word	0x200003c0

080015e4 <SystemInit>:
  * @note   This function should be used only after reset.
  * @param  None
  * @retval None
  */
void SystemInit (void)
{
 80015e4:	b480      	push	{r7}
 80015e6:	af00      	add	r7, sp, #0

  /* Configure the Vector Table location -------------------------------------*/
#if defined(USER_VECT_TAB_ADDRESS)
  SCB->VTOR = VECT_TAB_BASE_ADDRESS | VECT_TAB_OFFSET; /* Vector Table Relocation in Internal SRAM. */
#endif /* USER_VECT_TAB_ADDRESS */
}
 80015e8:	bf00      	nop
 80015ea:	46bd      	mov	sp, r7
 80015ec:	bc80      	pop	{r7}
 80015ee:	4770      	bx	lr

080015f0 <Reset_Handler>:
  .weak Reset_Handler
  .type Reset_Handler, %function
Reset_Handler:

/* Call the clock system initialization function.*/
    bl  SystemInit
 80015f0:	f7ff fff8 	bl	80015e4 <SystemInit>

/* Copy the data segment initializers from flash to SRAM */
  ldr r0, =_sdata
 80015f4:	480b      	ldr	r0, [pc, #44]	@ (8001624 <LoopFillZerobss+0xe>)
  ldr r1, =_edata
 80015f6:	490c      	ldr	r1, [pc, #48]	@ (8001628 <LoopFillZerobss+0x12>)
  ldr r2, =_sidata
 80015f8:	4a0c      	ldr	r2, [pc, #48]	@ (800162c <LoopFillZerobss+0x16>)
  movs r3, #0
 80015fa:	2300      	movs	r3, #0
  b LoopCopyDataInit
 80015fc:	e002      	b.n	8001604 <LoopCopyDataInit>

080015fe <CopyDataInit>:

CopyDataInit:
  ldr r4, [r2, r3]
 80015fe:	58d4      	ldr	r4, [r2, r3]
  str r4, [r0, r3]
 8001600:	50c4      	str	r4, [r0, r3]
  adds r3, r3, #4
 8001602:	3304      	adds	r3, #4

08001604 <LoopCopyDataInit>:

LoopCopyDataInit:
  adds r4, r0, r3
 8001604:	18c4      	adds	r4, r0, r3
  cmp r4, r1
 8001606:	428c      	cmp	r4, r1
  bcc CopyDataInit
 8001608:	d3f9      	bcc.n	80015fe <CopyDataInit>
  
/* Zero fill the bss segment. */
  ldr r2, =_sbss
 800160a:	4a09      	ldr	r2, [pc, #36]	@ (8001630 <LoopFillZerobss+0x1a>)
  ldr r4, =_ebss
 800160c:	4c09      	ldr	r4, [pc, #36]	@ (8001634 <LoopFillZerobss+0x1e>)
  movs r3, #0
 800160e:	2300      	movs	r3, #0
  b LoopFillZerobss
 8001610:	e001      	b.n	8001616 <LoopFillZerobss>

08001612 <FillZerobss>:

FillZerobss:
  str  r3, [r2]
 8001612:	6013      	str	r3, [r2, #0]
  adds r2, r2, #4
 8001614:	3204      	adds	r2, #4

08001616 <LoopFillZerobss>:

LoopFillZerobss:
  cmp r2, r4
 8001616:	42a2      	cmp	r2, r4
  bcc FillZerobss
 8001618:	d3fb      	bcc.n	8001612 <FillZerobss>

/* Call static constructors */
    bl __libc_init_array
 800161a:	f002 fe97 	bl	800434c <__libc_init_array>
/* Call the application's entry point.*/
  bl main
 800161e:	f7ff fcaf 	bl	8000f80 <main>
  bx lr
 8001622:	4770      	bx	lr
  ldr r0, =_sdata
 8001624:	20000000 	.word	0x20000000
  ldr r1, =_edata
 8001628:	200001d4 	.word	0x200001d4
  ldr r2, =_sidata
 800162c:	080063d4 	.word	0x080063d4
  ldr r2, =_sbss
 8001630:	200001d4 	.word	0x200001d4
  ldr r4, =_ebss
 8001634:	200003bc 	.word	0x200003bc

08001638 <ADC1_2_IRQHandler>:
 * @retval : None
*/
    .section .text.Default_Handler,"ax",%progbits
Default_Handler:
Infinite_Loop:
  b Infinite_Loop
 8001638:	e7fe      	b.n	8001638 <ADC1_2_IRQHandler>
	...

0800163c <HAL_Init>:
  *         need to ensure that the SysTick time base is always set to 1 millisecond
  *         to have correct HAL operation.
  * @retval HAL status
  */
HAL_StatusTypeDef HAL_Init(void)
{
 800163c:	b580      	push	{r7, lr}
 800163e:	af00      	add	r7, sp, #0
    defined(STM32F102x6) || defined(STM32F102xB) || \
    defined(STM32F103x6) || defined(STM32F103xB) || defined(STM32F103xE) || defined(STM32F103xG) || \
    defined(STM32F105xC) || defined(STM32F107xC)

  /* Prefetch buffer is not available on value line devices */
  __HAL_FLASH_PREFETCH_BUFFER_ENABLE();
 8001640:	4b08      	ldr	r3, [pc, #32]	@ (8001664 <HAL_Init+0x28>)
 8001642:	681b      	ldr	r3, [r3, #0]
 8001644:	4a07      	ldr	r2, [pc, #28]	@ (8001664 <HAL_Init+0x28>)
 8001646:	f043 0310 	orr.w	r3, r3, #16
 800164a:	6013      	str	r3, [r2, #0]
#endif
#endif /* PREFETCH_ENABLE */

  /* Set Interrupt Group Priority */
  HAL_NVIC_SetPriorityGrouping(NVIC_PRIORITYGROUP_4);
 800164c:	2003      	movs	r0, #3
 800164e:	f000 fe21 	bl	8002294 <HAL_NVIC_SetPriorityGrouping>

  /* Use systick as time base source and configure 1ms tick (default clock after Reset is HSI) */
  HAL_InitTick(TICK_INT_PRIORITY);
 8001652:	2000      	movs	r0, #0
 8001654:	f000 f808 	bl	8001668 <HAL_InitTick>

  /* Init the low level hardware */
  HAL_MspInit();
 8001658:	f7ff fe40 	bl	80012dc <HAL_MspInit>

  /* Return function status */
  return HAL_OK;
 800165c:	2300      	movs	r3, #0
}
 800165e:	4618      	mov	r0, r3
 8001660:	bd80      	pop	{r7, pc}
 8001662:	bf00      	nop
 8001664:	40022000 	.word	0x40022000

08001668 <HAL_InitTick>:
  *       implementation  in user file.
  * @param TickPriority Tick interrupt priority.
  * @retval HAL status
  */
__weak HAL_StatusTypeDef HAL_InitTick(uint32_t TickPriority)
{
 8001668:	b580      	push	{r7, lr}
 800166a:	b082      	sub	sp, #8
 800166c:	af00      	add	r7, sp, #0
 800166e:	6078      	str	r0, [r7, #4]
  /* Configure the SysTick to have interrupt in 1ms time basis*/
  if (HAL_SYSTICK_Config(SystemCoreClock / (1000U / uwTickFreq)) > 0U)
 8001670:	4b12      	ldr	r3, [pc, #72]	@ (80016bc <HAL_InitTick+0x54>)
 8001672:	681a      	ldr	r2, [r3, #0]
 8001674:	4b12      	ldr	r3, [pc, #72]	@ (80016c0 <HAL_InitTick+0x58>)
 8001676:	781b      	ldrb	r3, [r3, #0]
 8001678:	4619      	mov	r1, r3
 800167a:	f44f 737a 	mov.w	r3, #1000	@ 0x3e8
 800167e:	fbb3 f3f1 	udiv	r3, r3, r1
 8001682:	fbb2 f3f3 	udiv	r3, r2, r3
 8001686:	4618      	mov	r0, r3
 8001688:	f000 fe39 	bl	80022fe <HAL_SYSTICK_Config>
 800168c:	4603      	mov	r3, r0
 800168e:	2b00      	cmp	r3, #0
 8001690:	d001      	beq.n	8001696 <HAL_InitTick+0x2e>
  {
    return HAL_ERROR;
 8001692:	2301      	movs	r3, #1
 8001694:	e00e      	b.n	80016b4 <HAL_InitTick+0x4c>
  }

  /* Configure the SysTick IRQ priority */
  if (TickPriority < (1UL << __NVIC_PRIO_BITS))
 8001696:	687b      	ldr	r3, [r7, #4]
 8001698:	2b0f      	cmp	r3, #15
 800169a:	d80a      	bhi.n	80016b2 <HAL_InitTick+0x4a>
  {
    HAL_NVIC_SetPriority(SysTick_IRQn, TickPriority, 0U);
 800169c:	2200      	movs	r2, #0
 800169e:	6879      	ldr	r1, [r7, #4]
 80016a0:	f04f 30ff 	mov.w	r0, #4294967295
 80016a4:	f000 fe01 	bl	80022aa <HAL_NVIC_SetPriority>
    uwTickPrio = TickPriority;
 80016a8:	4a06      	ldr	r2, [pc, #24]	@ (80016c4 <HAL_InitTick+0x5c>)
 80016aa:	687b      	ldr	r3, [r7, #4]
 80016ac:	6013      	str	r3, [r2, #0]
  {
    return HAL_ERROR;
  }

  /* Return function status */
  return HAL_OK;
 80016ae:	2300      	movs	r3, #0
 80016b0:	e000      	b.n	80016b4 <HAL_InitTick+0x4c>
    return HAL_ERROR;
 80016b2:	2301      	movs	r3, #1
}
 80016b4:	4618      	mov	r0, r3
 80016b6:	3708      	adds	r7, #8
 80016b8:	46bd      	mov	sp, r7
 80016ba:	bd80      	pop	{r7, pc}
 80016bc:	20000000 	.word	0x20000000
 80016c0:	20000008 	.word	0x20000008
 80016c4:	20000004 	.word	0x20000004

080016c8 <HAL_IncTick>:
  * @note This function is declared as __weak to be overwritten in case of other
  *      implementations in user file.
  * @retval None
  */
__weak void HAL_IncTick(void)
{
 80016c8:	b480      	push	{r7}
 80016ca:	af00      	add	r7, sp, #0
  uwTick += uwTickFreq;
 80016cc:	4b05      	ldr	r3, [pc, #20]	@ (80016e4 <HAL_IncTick+0x1c>)
 80016ce:	781b      	ldrb	r3, [r3, #0]
 80016d0:	461a      	mov	r2, r3
 80016d2:	4b05      	ldr	r3, [pc, #20]	@ (80016e8 <HAL_IncTick+0x20>)
 80016d4:	681b      	ldr	r3, [r3, #0]
 80016d6:	4413      	add	r3, r2
 80016d8:	4a03      	ldr	r2, [pc, #12]	@ (80016e8 <HAL_IncTick+0x20>)
 80016da:	6013      	str	r3, [r2, #0]
}
 80016dc:	bf00      	nop
 80016de:	46bd      	mov	sp, r7
 80016e0:	bc80      	pop	{r7}
 80016e2:	4770      	bx	lr
 80016e4:	20000008 	.word	0x20000008
 80016e8:	2000026c 	.word	0x2000026c

080016ec <HAL_GetTick>:
  * @note  This function is declared as __weak to be overwritten in case of other
  *       implementations in user file.
  * @retval tick value
  */
__weak uint32_t HAL_GetTick(void)
{
 80016ec:	b480      	push	{r7}
 80016ee:	af00      	add	r7, sp, #0
  return uwTick;
 80016f0:	4b02      	ldr	r3, [pc, #8]	@ (80016fc <HAL_GetTick+0x10>)
 80016f2:	681b      	ldr	r3, [r3, #0]
}
 80016f4:	4618      	mov	r0, r3
 80016f6:	46bd      	mov	sp, r7
 80016f8:	bc80      	pop	{r7}
 80016fa:	4770      	bx	lr
 80016fc:	2000026c 	.word	0x2000026c

08001700 <HAL_Delay>:
  *       implementations in user file.
  * @param Delay specifies the delay time length, in milliseconds.
  * @retval None
  */
__weak void HAL_Delay(uint32_t Delay)
{
 8001700:	b580      	push	{r7, lr}
 8001702:	b084      	sub	sp, #16
 8001704:	af00      	add	r7, sp, #0
 8001706:	6078      	str	r0, [r7, #4]
  uint32_t tickstart = HAL_GetTick();
 8001708:	f7ff fff0 	bl	80016ec <HAL_GetTick>
 800170c:	60b8      	str	r0, [r7, #8]
  uint32_t wait = Delay;
 800170e:	687b      	ldr	r3, [r7, #4]
 8001710:	60fb      	str	r3, [r7, #12]

  /* Add a freq to guarantee minimum wait */
  if (wait < HAL_MAX_DELAY)
 8001712:	68fb      	ldr	r3, [r7, #12]
 8001714:	f1b3 3fff 	cmp.w	r3, #4294967295
 8001718:	d005      	beq.n	8001726 <HAL_Delay+0x26>
  {
    wait += (uint32_t)(uwTickFreq);
 800171a:	4b0a      	ldr	r3, [pc, #40]	@ (8001744 <HAL_Delay+0x44>)
 800171c:	781b      	ldrb	r3, [r3, #0]
 800171e:	461a      	mov	r2, r3
 8001720:	68fb      	ldr	r3, [r7, #12]
 8001722:	4413      	add	r3, r2
 8001724:	60fb      	str	r3, [r7, #12]
  }

  while ((HAL_GetTick() - tickstart) < wait)
 8001726:	bf00      	nop
 8001728:	f7ff ffe0 	bl	80016ec <HAL_GetTick>
 800172c:	4602      	mov	r2, r0
 800172e:	68bb      	ldr	r3, [r7, #8]
 8001730:	1ad3      	subs	r3, r2, r3
 8001732:	68fa      	ldr	r2, [r7, #12]
 8001734:	429a      	cmp	r2, r3
 8001736:	d8f7      	bhi.n	8001728 <HAL_Delay+0x28>
  {
  }
}
 8001738:	bf00      	nop
 800173a:	bf00      	nop
 800173c:	3710      	adds	r7, #16
 800173e:	46bd      	mov	sp, r7
 8001740:	bd80      	pop	{r7, pc}
 8001742:	bf00      	nop
 8001744:	20000008 	.word	0x20000008

08001748 <HAL_ADC_Init>:
  *         of structure "ADC_InitTypeDef".
  * @param  hadc: ADC handle
  * @retval HAL status
  */
HAL_StatusTypeDef HAL_ADC_Init(ADC_HandleTypeDef* hadc)
{
 8001748:	b580      	push	{r7, lr}
 800174a:	b086      	sub	sp, #24
 800174c:	af00      	add	r7, sp, #0
 800174e:	6078      	str	r0, [r7, #4]
  HAL_StatusTypeDef tmp_hal_status = HAL_OK;
 8001750:	2300      	movs	r3, #0
 8001752:	75fb      	strb	r3, [r7, #23]
  uint32_t tmp_cr1 = 0U;
 8001754:	2300      	movs	r3, #0
 8001756:	613b      	str	r3, [r7, #16]
  uint32_t tmp_cr2 = 0U;
 8001758:	2300      	movs	r3, #0
 800175a:	60bb      	str	r3, [r7, #8]
  uint32_t tmp_sqr1 = 0U;
 800175c:	2300      	movs	r3, #0
 800175e:	60fb      	str	r3, [r7, #12]
  
  /* Check ADC handle */
  if(hadc == NULL)
 8001760:	687b      	ldr	r3, [r7, #4]
 8001762:	2b00      	cmp	r3, #0
 8001764:	d101      	bne.n	800176a <HAL_ADC_Init+0x22>
  {
    return HAL_ERROR;
 8001766:	2301      	movs	r3, #1
 8001768:	e0be      	b.n	80018e8 <HAL_ADC_Init+0x1a0>
  assert_param(IS_ADC_DATA_ALIGN(hadc->Init.DataAlign));
  assert_param(IS_ADC_SCAN_MODE(hadc->Init.ScanConvMode));
  assert_param(IS_FUNCTIONAL_STATE(hadc->Init.ContinuousConvMode));
  assert_param(IS_ADC_EXTTRIG(hadc->Init.ExternalTrigConv));
  
  if(hadc->Init.ScanConvMode != ADC_SCAN_DISABLE)
 800176a:	687b      	ldr	r3, [r7, #4]
 800176c:	689b      	ldr	r3, [r3, #8]
 800176e:	2b00      	cmp	r3, #0
  /* Refer to header of this file for more details on clock enabling          */
  /* procedure.                                                               */

  /* Actions performed only if ADC is coming from state reset:                */
  /* - Initialization of ADC MSP                                              */
  if (hadc->State == HAL_ADC_STATE_RESET)
 8001770:	687b      	ldr	r3, [r7, #4]
 8001772:	6a9b      	ldr	r3, [r3, #40]	@ 0x28
 8001774:	2b00      	cmp	r3, #0
 8001776:	d109      	bne.n	800178c <HAL_ADC_Init+0x44>
  {
    /* Initialize ADC error code */
    ADC_CLEAR_ERRORCODE(hadc);
 8001778:	687b      	ldr	r3, [r7, #4]
 800177a:	2200      	movs	r2, #0
 800177c:	62da      	str	r2, [r3, #44]	@ 0x2c
    
    /* Allocate lock resource and initialize it */
    hadc->Lock = HAL_UNLOCKED;
 800177e:	687b      	ldr	r3, [r7, #4]
 8001780:	2200      	movs	r2, #0
 8001782:	f883 2024 	strb.w	r2, [r3, #36]	@ 0x24
    
    /* Init the low level hardware */
    hadc->MspInitCallback(hadc);
#else
    /* Init the low level hardware */
    HAL_ADC_MspInit(hadc);
 8001786:	6878      	ldr	r0, [r7, #4]
 8001788:	f7ff fdda 	bl	8001340 <HAL_ADC_MspInit>
  /* Stop potential conversion on going, on regular and injected groups */
  /* Disable ADC peripheral */
  /* Note: In case of ADC already enabled, precaution to not launch an        */
  /*       unwanted conversion while modifying register CR2 by writing 1 to   */
  /*       bit ADON.                                                          */
  tmp_hal_status = ADC_ConversionStop_Disable(hadc);
 800178c:	6878      	ldr	r0, [r7, #4]
 800178e:	f000 fbc5 	bl	8001f1c <ADC_ConversionStop_Disable>
 8001792:	4603      	mov	r3, r0
 8001794:	75fb      	strb	r3, [r7, #23]
  
  
  /* Configuration of ADC parameters if previous preliminary actions are      */ 
  /* correctly completed.                                                     */
  if (HAL_IS_BIT_CLR(hadc->State, HAL_ADC_STATE_ERROR_INTERNAL) &&
 8001796:	687b      	ldr	r3, [r7, #4]
 8001798:	6a9b      	ldr	r3, [r3, #40]	@ 0x28
 800179a:	f003 0310 	and.w	r3, r3, #16
 800179e:	2b00      	cmp	r3, #0
 80017a0:	f040 8099 	bne.w	80018d6 <HAL_ADC_Init+0x18e>
 80017a4:	7dfb      	ldrb	r3, [r7, #23]
 80017a6:	2b00      	cmp	r3, #0
 80017a8:	f040 8095 	bne.w	80018d6 <HAL_ADC_Init+0x18e>
      (tmp_hal_status == HAL_OK)                                  )
  {
    /* Set ADC state */
    ADC_STATE_CLR_SET(hadc->State,
 80017ac:	687b      	ldr	r3, [r7, #4]
 80017ae:	6a9b      	ldr	r3, [r3, #40]	@ 0x28
 80017b0:	f423 5388 	bic.w	r3, r3, #4352	@ 0x1100
 80017b4:	f023 0302 	bic.w	r3, r3, #2
 80017b8:	f043 0202 	orr.w	r2, r3, #2
 80017bc:	687b      	ldr	r3, [r7, #4]
 80017be:	629a      	str	r2, [r3, #40]	@ 0x28
    /*  - continuous conversion mode                                          */
    /* Note: External trigger polarity (ADC_CR2_EXTTRIG) is set into          */
    /*       HAL_ADC_Start_xxx functions because if set in this function,     */
    /*       a conversion on injected group would start a conversion also on  */
    /*       regular group after ADC enabling.                                */
    tmp_cr2 |= (hadc->Init.DataAlign                                          |
 80017c0:	687b      	ldr	r3, [r7, #4]
 80017c2:	685a      	ldr	r2, [r3, #4]
                ADC_CFGR_EXTSEL(hadc, hadc->Init.ExternalTrigConv)            |
 80017c4:	687b      	ldr	r3, [r7, #4]
 80017c6:	69db      	ldr	r3, [r3, #28]
    tmp_cr2 |= (hadc->Init.DataAlign                                          |
 80017c8:	431a      	orrs	r2, r3
                ADC_CR2_CONTINUOUS((uint32_t)hadc->Init.ContinuousConvMode)   );
 80017ca:	687b      	ldr	r3, [r7, #4]
 80017cc:	7b1b      	ldrb	r3, [r3, #12]
 80017ce:	005b      	lsls	r3, r3, #1
                ADC_CFGR_EXTSEL(hadc, hadc->Init.ExternalTrigConv)            |
 80017d0:	4313      	orrs	r3, r2
    tmp_cr2 |= (hadc->Init.DataAlign                                          |
 80017d2:	68ba      	ldr	r2, [r7, #8]
 80017d4:	4313      	orrs	r3, r2
 80017d6:	60bb      	str	r3, [r7, #8]

    /* Configuration of ADC:                                                  */
    /*  - scan mode                                                           */
    /*  - discontinuous mode disable/enable                                   */
    /*  - discontinuous mode number of conversions                            */
    tmp_cr1 |= (ADC_CR1_SCAN_SET(hadc->Init.ScanConvMode));
 80017d8:	687b      	ldr	r3, [r7, #4]
 80017da:	689b      	ldr	r3, [r3, #8]
 80017dc:	f5b3 7f80 	cmp.w	r3, #256	@ 0x100
 80017e0:	d003      	beq.n	80017ea <HAL_ADC_Init+0xa2>
 80017e2:	687b      	ldr	r3, [r7, #4]
 80017e4:	689b      	ldr	r3, [r3, #8]
 80017e6:	2b01      	cmp	r3, #1
 80017e8:	d102      	bne.n	80017f0 <HAL_ADC_Init+0xa8>
 80017ea:	f44f 7380 	mov.w	r3, #256	@ 0x100
 80017ee:	e000      	b.n	80017f2 <HAL_ADC_Init+0xaa>
 80017f0:	2300      	movs	r3, #0
 80017f2:	693a      	ldr	r2, [r7, #16]
 80017f4:	4313      	orrs	r3, r2
 80017f6:	613b      	str	r3, [r7, #16]
    
    /* Enable discontinuous mode only if continuous mode is disabled */
    /* Note: If parameter "Init.ScanConvMode" is set to disable, parameter    */
    /*       discontinuous is set anyway, but will have no effect on ADC HW.  */
    if (hadc->Init.DiscontinuousConvMode == ENABLE)
 80017f8:	687b      	ldr	r3, [r7, #4]
 80017fa:	7d1b      	ldrb	r3, [r3, #20]
 80017fc:	2b01      	cmp	r3, #1
 80017fe:	d119      	bne.n	8001834 <HAL_ADC_Init+0xec>
    {
      if (hadc->Init.ContinuousConvMode == DISABLE)
 8001800:	687b      	ldr	r3, [r7, #4]
 8001802:	7b1b      	ldrb	r3, [r3, #12]
 8001804:	2b00      	cmp	r3, #0
 8001806:	d109      	bne.n	800181c <HAL_ADC_Init+0xd4>
      {
        /* Enable the selected ADC regular discontinuous mode */
        /* Set the number of channels to be converted in discontinuous mode */
        SET_BIT(tmp_cr1, ADC_CR1_DISCEN                                            |
 8001808:	687b      	ldr	r3, [r7, #4]
 800180a:	699b      	ldr	r3, [r3, #24]
 800180c:	3b01      	subs	r3, #1
 800180e:	035a      	lsls	r2, r3, #13
 8001810:	693b      	ldr	r3, [r7, #16]
 8001812:	4313      	orrs	r3, r2
 8001814:	f443 6300 	orr.w	r3, r3, #2048	@ 0x800
 8001818:	613b      	str	r3, [r7, #16]
 800181a:	e00b      	b.n	8001834 <HAL_ADC_Init+0xec>
      {
        /* ADC regular group settings continuous and sequencer discontinuous*/
        /* cannot be enabled simultaneously.                                */
        
        /* Update ADC state machine to error */
        SET_BIT(hadc->State, HAL_ADC_STATE_ERROR_CONFIG);
 800181c:	687b      	ldr	r3, [r7, #4]
 800181e:	6a9b      	ldr	r3, [r3, #40]	@ 0x28
 8001820:	f043 0220 	orr.w	r2, r3, #32
 8001824:	687b      	ldr	r3, [r7, #4]
 8001826:	629a      	str	r2, [r3, #40]	@ 0x28
        
        /* Set ADC error code to ADC IP internal error */
        SET_BIT(hadc->ErrorCode, HAL_ADC_ERROR_INTERNAL);
 8001828:	687b      	ldr	r3, [r7, #4]
 800182a:	6adb      	ldr	r3, [r3, #44]	@ 0x2c
 800182c:	f043 0201 	orr.w	r2, r3, #1
 8001830:	687b      	ldr	r3, [r7, #4]
 8001832:	62da      	str	r2, [r3, #44]	@ 0x2c
      }
    }
    
    /* Update ADC configuration register CR1 with previous settings */
      MODIFY_REG(hadc->Instance->CR1,
 8001834:	687b      	ldr	r3, [r7, #4]
 8001836:	681b      	ldr	r3, [r3, #0]
 8001838:	685b      	ldr	r3, [r3, #4]
 800183a:	f423 4169 	bic.w	r1, r3, #59648	@ 0xe900
 800183e:	687b      	ldr	r3, [r7, #4]
 8001840:	681b      	ldr	r3, [r3, #0]
 8001842:	693a      	ldr	r2, [r7, #16]
 8001844:	430a      	orrs	r2, r1
 8001846:	605a      	str	r2, [r3, #4]
                 ADC_CR1_DISCEN  |
                 ADC_CR1_DISCNUM    ,
                 tmp_cr1             );
    
    /* Update ADC configuration register CR2 with previous settings */
      MODIFY_REG(hadc->Instance->CR2,
 8001848:	687b      	ldr	r3, [r7, #4]
 800184a:	681b      	ldr	r3, [r3, #0]
 800184c:	689a      	ldr	r2, [r3, #8]
 800184e:	4b28      	ldr	r3, [pc, #160]	@ (80018f0 <HAL_ADC_Init+0x1a8>)
 8001850:	4013      	ands	r3, r2
 8001852:	687a      	ldr	r2, [r7, #4]
 8001854:	6812      	ldr	r2, [r2, #0]
 8001856:	68b9      	ldr	r1, [r7, #8]
 8001858:	430b      	orrs	r3, r1
 800185a:	6093      	str	r3, [r2, #8]
    /*   Note: Scan mode is present by hardware on this device and, if        */
    /*   disabled, discards automatically nb of conversions. Anyway, nb of    */
    /*   conversions is forced to 0x00 for alignment over all STM32 devices.  */
    /* - if scan mode is enabled, regular channels sequence length is set to  */
    /*   parameter "NbrOfConversion"                                          */
    if (ADC_CR1_SCAN_SET(hadc->Init.ScanConvMode) == ADC_SCAN_ENABLE)
 800185c:	687b      	ldr	r3, [r7, #4]
 800185e:	689b      	ldr	r3, [r3, #8]
 8001860:	f5b3 7f80 	cmp.w	r3, #256	@ 0x100
 8001864:	d003      	beq.n	800186e <HAL_ADC_Init+0x126>
 8001866:	687b      	ldr	r3, [r7, #4]
 8001868:	689b      	ldr	r3, [r3, #8]
 800186a:	2b01      	cmp	r3, #1
 800186c:	d104      	bne.n	8001878 <HAL_ADC_Init+0x130>
    {
      tmp_sqr1 = ADC_SQR1_L_SHIFT(hadc->Init.NbrOfConversion);
 800186e:	687b      	ldr	r3, [r7, #4]
 8001870:	691b      	ldr	r3, [r3, #16]
 8001872:	3b01      	subs	r3, #1
 8001874:	051b      	lsls	r3, r3, #20
 8001876:	60fb      	str	r3, [r7, #12]
    }
      
    MODIFY_REG(hadc->Instance->SQR1,
 8001878:	687b      	ldr	r3, [r7, #4]
 800187a:	681b      	ldr	r3, [r3, #0]
 800187c:	6adb      	ldr	r3, [r3, #44]	@ 0x2c
 800187e:	f423 0170 	bic.w	r1, r3, #15728640	@ 0xf00000
 8001882:	687b      	ldr	r3, [r7, #4]
 8001884:	681b      	ldr	r3, [r3, #0]
 8001886:	68fa      	ldr	r2, [r7, #12]
 8001888:	430a      	orrs	r2, r1
 800188a:	62da      	str	r2, [r3, #44]	@ 0x2c
    /* ensure of no potential problem of ADC core IP clocking.                */
    /* Check through register CR2 (excluding bits set in other functions:     */
    /* execution control bits (ADON, JSWSTART, SWSTART), regular group bits   */
    /* (DMA), injected group bits (JEXTTRIG and JEXTSEL), channel internal    */
    /* measurement path bit (TSVREFE).                                        */
    if (READ_BIT(hadc->Instance->CR2, ~(ADC_CR2_ADON | ADC_CR2_DMA |
 800188c:	687b      	ldr	r3, [r7, #4]
 800188e:	681b      	ldr	r3, [r3, #0]
 8001890:	689a      	ldr	r2, [r3, #8]
 8001892:	4b18      	ldr	r3, [pc, #96]	@ (80018f4 <HAL_ADC_Init+0x1ac>)
 8001894:	4013      	ands	r3, r2
 8001896:	68ba      	ldr	r2, [r7, #8]
 8001898:	429a      	cmp	r2, r3
 800189a:	d10b      	bne.n	80018b4 <HAL_ADC_Init+0x16c>
                                        ADC_CR2_JEXTTRIG | ADC_CR2_JEXTSEL |
                                        ADC_CR2_TSVREFE                     ))
         == tmp_cr2)
    {
      /* Set ADC error code to none */
      ADC_CLEAR_ERRORCODE(hadc);
 800189c:	687b      	ldr	r3, [r7, #4]
 800189e:	2200      	movs	r2, #0
 80018a0:	62da      	str	r2, [r3, #44]	@ 0x2c
      
      /* Set the ADC state */
      ADC_STATE_CLR_SET(hadc->State,
 80018a2:	687b      	ldr	r3, [r7, #4]
 80018a4:	6a9b      	ldr	r3, [r3, #40]	@ 0x28
 80018a6:	f023 0303 	bic.w	r3, r3, #3
 80018aa:	f043 0201 	orr.w	r2, r3, #1
 80018ae:	687b      	ldr	r3, [r7, #4]
 80018b0:	629a      	str	r2, [r3, #40]	@ 0x28
    if (READ_BIT(hadc->Instance->CR2, ~(ADC_CR2_ADON | ADC_CR2_DMA |
 80018b2:	e018      	b.n	80018e6 <HAL_ADC_Init+0x19e>
                        HAL_ADC_STATE_READY);
    }
    else
    {
      /* Update ADC state machine to error */
      ADC_STATE_CLR_SET(hadc->State,
 80018b4:	687b      	ldr	r3, [r7, #4]
 80018b6:	6a9b      	ldr	r3, [r3, #40]	@ 0x28
 80018b8:	f023 0312 	bic.w	r3, r3, #18
 80018bc:	f043 0210 	orr.w	r2, r3, #16
 80018c0:	687b      	ldr	r3, [r7, #4]
 80018c2:	629a      	str	r2, [r3, #40]	@ 0x28
                        HAL_ADC_STATE_BUSY_INTERNAL,
                        HAL_ADC_STATE_ERROR_INTERNAL);
      
      /* Set ADC error code to ADC IP internal error */
      SET_BIT(hadc->ErrorCode, HAL_ADC_ERROR_INTERNAL);
 80018c4:	687b      	ldr	r3, [r7, #4]
 80018c6:	6adb      	ldr	r3, [r3, #44]	@ 0x2c
 80018c8:	f043 0201 	orr.w	r2, r3, #1
 80018cc:	687b      	ldr	r3, [r7, #4]
 80018ce:	62da      	str	r2, [r3, #44]	@ 0x2c
      
      tmp_hal_status = HAL_ERROR;
 80018d0:	2301      	movs	r3, #1
 80018d2:	75fb      	strb	r3, [r7, #23]
    if (READ_BIT(hadc->Instance->CR2, ~(ADC_CR2_ADON | ADC_CR2_DMA |
 80018d4:	e007      	b.n	80018e6 <HAL_ADC_Init+0x19e>
  
  }
  else
  {
    /* Update ADC state machine to error */
    SET_BIT(hadc->State, HAL_ADC_STATE_ERROR_INTERNAL);
 80018d6:	687b      	ldr	r3, [r7, #4]
 80018d8:	6a9b      	ldr	r3, [r3, #40]	@ 0x28
 80018da:	f043 0210 	orr.w	r2, r3, #16
 80018de:	687b      	ldr	r3, [r7, #4]
 80018e0:	629a      	str	r2, [r3, #40]	@ 0x28
        
    tmp_hal_status = HAL_ERROR;
 80018e2:	2301      	movs	r3, #1
 80018e4:	75fb      	strb	r3, [r7, #23]
  }
  
  /* Return function status */
  return tmp_hal_status;
 80018e6:	7dfb      	ldrb	r3, [r7, #23]
}
 80018e8:	4618      	mov	r0, r3
 80018ea:	3718      	adds	r7, #24
 80018ec:	46bd      	mov	sp, r7
 80018ee:	bd80      	pop	{r7, pc}
 80018f0:	ffe1f7fd 	.word	0xffe1f7fd
 80018f4:	ff1f0efe 	.word	0xff1f0efe

080018f8 <HAL_ADC_Start>:
  *         Interruptions enabled in this function: None.
  * @param  hadc: ADC handle
  * @retval HAL status
  */
HAL_StatusTypeDef HAL_ADC_Start(ADC_HandleTypeDef* hadc)
{
 80018f8:	b580      	push	{r7, lr}
 80018fa:	b084      	sub	sp, #16
 80018fc:	af00      	add	r7, sp, #0
 80018fe:	6078      	str	r0, [r7, #4]
  HAL_StatusTypeDef tmp_hal_status = HAL_OK;
 8001900:	2300      	movs	r3, #0
 8001902:	73fb      	strb	r3, [r7, #15]
  
  /* Check the parameters */
  assert_param(IS_ADC_ALL_INSTANCE(hadc->Instance));
  
  /* Process locked */
  __HAL_LOCK(hadc);
 8001904:	687b      	ldr	r3, [r7, #4]
 8001906:	f893 3024 	ldrb.w	r3, [r3, #36]	@ 0x24
 800190a:	2b01      	cmp	r3, #1
 800190c:	d101      	bne.n	8001912 <HAL_ADC_Start+0x1a>
 800190e:	2302      	movs	r3, #2
 8001910:	e098      	b.n	8001a44 <HAL_ADC_Start+0x14c>
 8001912:	687b      	ldr	r3, [r7, #4]
 8001914:	2201      	movs	r2, #1
 8001916:	f883 2024 	strb.w	r2, [r3, #36]	@ 0x24
   
  /* Enable the ADC peripheral */
  tmp_hal_status = ADC_Enable(hadc);
 800191a:	6878      	ldr	r0, [r7, #4]
 800191c:	f000 faa4 	bl	8001e68 <ADC_Enable>
 8001920:	4603      	mov	r3, r0
 8001922:	73fb      	strb	r3, [r7, #15]
  
  /* Start conversion if ADC is effectively enabled */
  if (tmp_hal_status == HAL_OK)
 8001924:	7bfb      	ldrb	r3, [r7, #15]
 8001926:	2b00      	cmp	r3, #0
 8001928:	f040 8087 	bne.w	8001a3a <HAL_ADC_Start+0x142>
  {
    /* Set ADC state                                                          */
    /* - Clear state bitfield related to regular group conversion results     */
    /* - Set state bitfield related to regular operation                      */
    ADC_STATE_CLR_SET(hadc->State,
 800192c:	687b      	ldr	r3, [r7, #4]
 800192e:	6a9b      	ldr	r3, [r3, #40]	@ 0x28
 8001930:	f423 7340 	bic.w	r3, r3, #768	@ 0x300
 8001934:	f023 0301 	bic.w	r3, r3, #1
 8001938:	f443 7280 	orr.w	r2, r3, #256	@ 0x100
 800193c:	687b      	ldr	r3, [r7, #4]
 800193e:	629a      	str	r2, [r3, #40]	@ 0x28
                      HAL_ADC_STATE_REG_BUSY);
    
    /* Set group injected state (from auto-injection) and multimode state     */
    /* for all cases of multimode: independent mode, multimode ADC master     */
    /* or multimode ADC slave (for devices with several ADCs):                */
    if (ADC_NONMULTIMODE_OR_MULTIMODEMASTER(hadc))
 8001940:	687b      	ldr	r3, [r7, #4]
 8001942:	681b      	ldr	r3, [r3, #0]
 8001944:	4a41      	ldr	r2, [pc, #260]	@ (8001a4c <HAL_ADC_Start+0x154>)
 8001946:	4293      	cmp	r3, r2
 8001948:	d105      	bne.n	8001956 <HAL_ADC_Start+0x5e>
 800194a:	4b41      	ldr	r3, [pc, #260]	@ (8001a50 <HAL_ADC_Start+0x158>)
 800194c:	685b      	ldr	r3, [r3, #4]
 800194e:	f403 2370 	and.w	r3, r3, #983040	@ 0xf0000
 8001952:	2b00      	cmp	r3, #0
 8001954:	d115      	bne.n	8001982 <HAL_ADC_Start+0x8a>
    {
      /* Set ADC state (ADC independent or master) */
      CLEAR_BIT(hadc->State, HAL_ADC_STATE_MULTIMODE_SLAVE);
 8001956:	687b      	ldr	r3, [r7, #4]
 8001958:	6a9b      	ldr	r3, [r3, #40]	@ 0x28
 800195a:	f423 1280 	bic.w	r2, r3, #1048576	@ 0x100000
 800195e:	687b      	ldr	r3, [r7, #4]
 8001960:	629a      	str	r2, [r3, #40]	@ 0x28
      
      /* If conversions on group regular are also triggering group injected,  */
      /* update ADC state.                                                    */
      if (READ_BIT(hadc->Instance->CR1, ADC_CR1_JAUTO) != RESET)
 8001962:	687b      	ldr	r3, [r7, #4]
 8001964:	681b      	ldr	r3, [r3, #0]
 8001966:	685b      	ldr	r3, [r3, #4]
 8001968:	f403 6380 	and.w	r3, r3, #1024	@ 0x400
 800196c:	2b00      	cmp	r3, #0
 800196e:	d026      	beq.n	80019be <HAL_ADC_Start+0xc6>
      {
        ADC_STATE_CLR_SET(hadc->State, HAL_ADC_STATE_INJ_EOC, HAL_ADC_STATE_INJ_BUSY);  
 8001970:	687b      	ldr	r3, [r7, #4]
 8001972:	6a9b      	ldr	r3, [r3, #40]	@ 0x28
 8001974:	f423 5340 	bic.w	r3, r3, #12288	@ 0x3000
 8001978:	f443 5280 	orr.w	r2, r3, #4096	@ 0x1000
 800197c:	687b      	ldr	r3, [r7, #4]
 800197e:	629a      	str	r2, [r3, #40]	@ 0x28
      if (READ_BIT(hadc->Instance->CR1, ADC_CR1_JAUTO) != RESET)
 8001980:	e01d      	b.n	80019be <HAL_ADC_Start+0xc6>
      }
    }
    else
    {
      /* Set ADC state (ADC slave) */
      SET_BIT(hadc->State, HAL_ADC_STATE_MULTIMODE_SLAVE);
 8001982:	687b      	ldr	r3, [r7, #4]
 8001984:	6a9b      	ldr	r3, [r3, #40]	@ 0x28
 8001986:	f443 1280 	orr.w	r2, r3, #1048576	@ 0x100000
 800198a:	687b      	ldr	r3, [r7, #4]
 800198c:	629a      	str	r2, [r3, #40]	@ 0x28
      
      /* If conversions on group regular are also triggering group injected,  */
      /* update ADC state.                                                    */
      if (ADC_MULTIMODE_AUTO_INJECTED(hadc))
 800198e:	687b      	ldr	r3, [r7, #4]
 8001990:	681b      	ldr	r3, [r3, #0]
 8001992:	4a2f      	ldr	r2, [pc, #188]	@ (8001a50 <HAL_ADC_Start+0x158>)
 8001994:	4293      	cmp	r3, r2
 8001996:	d004      	beq.n	80019a2 <HAL_ADC_Start+0xaa>
 8001998:	687b      	ldr	r3, [r7, #4]
 800199a:	681b      	ldr	r3, [r3, #0]
 800199c:	4a2b      	ldr	r2, [pc, #172]	@ (8001a4c <HAL_ADC_Start+0x154>)
 800199e:	4293      	cmp	r3, r2
 80019a0:	d10d      	bne.n	80019be <HAL_ADC_Start+0xc6>
 80019a2:	4b2b      	ldr	r3, [pc, #172]	@ (8001a50 <HAL_ADC_Start+0x158>)
 80019a4:	685b      	ldr	r3, [r3, #4]
 80019a6:	f403 6380 	and.w	r3, r3, #1024	@ 0x400
 80019aa:	2b00      	cmp	r3, #0
 80019ac:	d007      	beq.n	80019be <HAL_ADC_Start+0xc6>
      {
        ADC_STATE_CLR_SET(hadc->State, HAL_ADC_STATE_INJ_EOC, HAL_ADC_STATE_INJ_BUSY);
 80019ae:	687b      	ldr	r3, [r7, #4]
 80019b0:	6a9b      	ldr	r3, [r3, #40]	@ 0x28
 80019b2:	f423 5340 	bic.w	r3, r3, #12288	@ 0x3000
 80019b6:	f443 5280 	orr.w	r2, r3, #4096	@ 0x1000
 80019ba:	687b      	ldr	r3, [r7, #4]
 80019bc:	629a      	str	r2, [r3, #40]	@ 0x28
      }
    }
    
    /* State machine update: Check if an injected conversion is ongoing */
    if (HAL_IS_BIT_SET(hadc->State, HAL_ADC_STATE_INJ_BUSY))
 80019be:	687b      	ldr	r3, [r7, #4]
 80019c0:	6a9b      	ldr	r3, [r3, #40]	@ 0x28
 80019c2:	f403 5380 	and.w	r3, r3, #4096	@ 0x1000
 80019c6:	2b00      	cmp	r3, #0
 80019c8:	d006      	beq.n	80019d8 <HAL_ADC_Start+0xe0>
    {
      /* Reset ADC error code fields related to conversions on group regular */
      CLEAR_BIT(hadc->ErrorCode, (HAL_ADC_ERROR_OVR | HAL_ADC_ERROR_DMA));         
 80019ca:	687b      	ldr	r3, [r7, #4]
 80019cc:	6adb      	ldr	r3, [r3, #44]	@ 0x2c
 80019ce:	f023 0206 	bic.w	r2, r3, #6
 80019d2:	687b      	ldr	r3, [r7, #4]
 80019d4:	62da      	str	r2, [r3, #44]	@ 0x2c
 80019d6:	e002      	b.n	80019de <HAL_ADC_Start+0xe6>
    }
    else
    {
      /* Reset ADC all error code fields */
      ADC_CLEAR_ERRORCODE(hadc);
 80019d8:	687b      	ldr	r3, [r7, #4]
 80019da:	2200      	movs	r2, #0
 80019dc:	62da      	str	r2, [r3, #44]	@ 0x2c
    }
    
    /* Process unlocked */
    /* Unlock before starting ADC conversions: in case of potential           */
    /* interruption, to let the process to ADC IRQ Handler.                   */
    __HAL_UNLOCK(hadc);
 80019de:	687b      	ldr	r3, [r7, #4]
 80019e0:	2200      	movs	r2, #0
 80019e2:	f883 2024 	strb.w	r2, [r3, #36]	@ 0x24
  
    /* Clear regular group conversion flag */
    /* (To ensure of no unknown state from potential previous ADC operations) */
    __HAL_ADC_CLEAR_FLAG(hadc, ADC_FLAG_EOC);
 80019e6:	687b      	ldr	r3, [r7, #4]
 80019e8:	681b      	ldr	r3, [r3, #0]
 80019ea:	f06f 0202 	mvn.w	r2, #2
 80019ee:	601a      	str	r2, [r3, #0]
    /*  - if ADC is slave, ADC is enabled only (conversion is not started).   */
    /*  - if ADC is master, ADC is enabled and conversion is started.         */
    /* If ADC is master, ADC is enabled and conversion is started.            */
    /* Note: Alternate trigger for single conversion could be to force an     */
    /*       additional set of bit ADON "hadc->Instance->CR2 |= ADC_CR2_ADON;"*/
    if (ADC_IS_SOFTWARE_START_REGULAR(hadc)      &&
 80019f0:	687b      	ldr	r3, [r7, #4]
 80019f2:	681b      	ldr	r3, [r3, #0]
 80019f4:	689b      	ldr	r3, [r3, #8]
 80019f6:	f403 2360 	and.w	r3, r3, #917504	@ 0xe0000
 80019fa:	f5b3 2f60 	cmp.w	r3, #917504	@ 0xe0000
 80019fe:	d113      	bne.n	8001a28 <HAL_ADC_Start+0x130>
        ADC_NONMULTIMODE_OR_MULTIMODEMASTER(hadc)  )
 8001a00:	687b      	ldr	r3, [r7, #4]
 8001a02:	681b      	ldr	r3, [r3, #0]
    if (ADC_IS_SOFTWARE_START_REGULAR(hadc)      &&
 8001a04:	4a11      	ldr	r2, [pc, #68]	@ (8001a4c <HAL_ADC_Start+0x154>)
 8001a06:	4293      	cmp	r3, r2
 8001a08:	d105      	bne.n	8001a16 <HAL_ADC_Start+0x11e>
        ADC_NONMULTIMODE_OR_MULTIMODEMASTER(hadc)  )
 8001a0a:	4b11      	ldr	r3, [pc, #68]	@ (8001a50 <HAL_ADC_Start+0x158>)
 8001a0c:	685b      	ldr	r3, [r3, #4]
 8001a0e:	f403 2370 	and.w	r3, r3, #983040	@ 0xf0000
    if (ADC_IS_SOFTWARE_START_REGULAR(hadc)      &&
 8001a12:	2b00      	cmp	r3, #0
 8001a14:	d108      	bne.n	8001a28 <HAL_ADC_Start+0x130>
    {
      /* Start ADC conversion on regular group with SW start */
      SET_BIT(hadc->Instance->CR2, (ADC_CR2_SWSTART | ADC_CR2_EXTTRIG));
 8001a16:	687b      	ldr	r3, [r7, #4]
 8001a18:	681b      	ldr	r3, [r3, #0]
 8001a1a:	689a      	ldr	r2, [r3, #8]
 8001a1c:	687b      	ldr	r3, [r7, #4]
 8001a1e:	681b      	ldr	r3, [r3, #0]
 8001a20:	f442 02a0 	orr.w	r2, r2, #5242880	@ 0x500000
 8001a24:	609a      	str	r2, [r3, #8]
 8001a26:	e00c      	b.n	8001a42 <HAL_ADC_Start+0x14a>
    }
    else
    {
      /* Start ADC conversion on regular group with external trigger */
      SET_BIT(hadc->Instance->CR2, ADC_CR2_EXTTRIG);
 8001a28:	687b      	ldr	r3, [r7, #4]
 8001a2a:	681b      	ldr	r3, [r3, #0]
 8001a2c:	689a      	ldr	r2, [r3, #8]
 8001a2e:	687b      	ldr	r3, [r7, #4]
 8001a30:	681b      	ldr	r3, [r3, #0]
 8001a32:	f442 1280 	orr.w	r2, r2, #1048576	@ 0x100000
 8001a36:	609a      	str	r2, [r3, #8]
 8001a38:	e003      	b.n	8001a42 <HAL_ADC_Start+0x14a>
    }
  }
  else
  {
    /* Process unlocked */
    __HAL_UNLOCK(hadc);
 8001a3a:	687b      	ldr	r3, [r7, #4]
 8001a3c:	2200      	movs	r2, #0
 8001a3e:	f883 2024 	strb.w	r2, [r3, #36]	@ 0x24
  }
    
  /* Return function status */
  return tmp_hal_status;
 8001a42:	7bfb      	ldrb	r3, [r7, #15]
}
 8001a44:	4618      	mov	r0, r3
 8001a46:	3710      	adds	r7, #16
 8001a48:	46bd      	mov	sp, r7
 8001a4a:	bd80      	pop	{r7, pc}
 8001a4c:	40012800 	.word	0x40012800
 8001a50:	40012400 	.word	0x40012400

08001a54 <HAL_ADC_PollForConversion>:
  * @param  hadc: ADC handle
  * @param  Timeout: Timeout value in millisecond.
  * @retval HAL status
  */
HAL_StatusTypeDef HAL_ADC_PollForConversion(ADC_HandleTypeDef* hadc, uint32_t Timeout)
{
 8001a54:	b590      	push	{r4, r7, lr}
 8001a56:	b087      	sub	sp, #28
 8001a58:	af00      	add	r7, sp, #0
 8001a5a:	6078      	str	r0, [r7, #4]
 8001a5c:	6039      	str	r1, [r7, #0]
  uint32_t tickstart = 0U;
 8001a5e:	2300      	movs	r3, #0
 8001a60:	617b      	str	r3, [r7, #20]
  
  /* Variables for polling in case of scan mode enabled and polling for each  */
  /* conversion.                                                              */
  __IO uint32_t Conversion_Timeout_CPU_cycles = 0U;
 8001a62:	2300      	movs	r3, #0
 8001a64:	60fb      	str	r3, [r7, #12]
  uint32_t Conversion_Timeout_CPU_cycles_max = 0U;
 8001a66:	2300      	movs	r3, #0
 8001a68:	613b      	str	r3, [r7, #16]
 
  /* Check the parameters */
  assert_param(IS_ADC_ALL_INSTANCE(hadc->Instance));
  
  /* Get tick count */
  tickstart = HAL_GetTick();
 8001a6a:	f7ff fe3f 	bl	80016ec <HAL_GetTick>
 8001a6e:	6178      	str	r0, [r7, #20]
  
  /* Verification that ADC configuration is compliant with polling for        */
  /* each conversion:                                                         */
  /* Particular case is ADC configured in DMA mode                            */
  if (HAL_IS_BIT_SET(hadc->Instance->CR2, ADC_CR2_DMA))
 8001a70:	687b      	ldr	r3, [r7, #4]
 8001a72:	681b      	ldr	r3, [r3, #0]
 8001a74:	689b      	ldr	r3, [r3, #8]
 8001a76:	f403 7380 	and.w	r3, r3, #256	@ 0x100
 8001a7a:	2b00      	cmp	r3, #0
 8001a7c:	d00b      	beq.n	8001a96 <HAL_ADC_PollForConversion+0x42>
  {
    /* Update ADC state machine to error */
    SET_BIT(hadc->State, HAL_ADC_STATE_ERROR_CONFIG);
 8001a7e:	687b      	ldr	r3, [r7, #4]
 8001a80:	6a9b      	ldr	r3, [r3, #40]	@ 0x28
 8001a82:	f043 0220 	orr.w	r2, r3, #32
 8001a86:	687b      	ldr	r3, [r7, #4]
 8001a88:	629a      	str	r2, [r3, #40]	@ 0x28
    
    /* Process unlocked */
    __HAL_UNLOCK(hadc);
 8001a8a:	687b      	ldr	r3, [r7, #4]
 8001a8c:	2200      	movs	r2, #0
 8001a8e:	f883 2024 	strb.w	r2, [r3, #36]	@ 0x24
    
    return HAL_ERROR;
 8001a92:	2301      	movs	r3, #1
 8001a94:	e0d3      	b.n	8001c3e <HAL_ADC_PollForConversion+0x1ea>
  /*    from ADC conversion time (selected sampling time + conversion time of */
  /*    12.5 ADC clock cycles) and APB2/ADC clock prescalers (depending on    */
  /*    settings, conversion time range can be from 28 to 32256 CPU cycles).  */
  /*    As flag EOC is not set after each conversion, no timeout status can   */
  /*    be set.                                                               */
  if (HAL_IS_BIT_CLR(hadc->Instance->CR1, ADC_CR1_SCAN) &&
 8001a96:	687b      	ldr	r3, [r7, #4]
 8001a98:	681b      	ldr	r3, [r3, #0]
 8001a9a:	685b      	ldr	r3, [r3, #4]
 8001a9c:	f403 7380 	and.w	r3, r3, #256	@ 0x100
 8001aa0:	2b00      	cmp	r3, #0
 8001aa2:	d131      	bne.n	8001b08 <HAL_ADC_PollForConversion+0xb4>
      HAL_IS_BIT_CLR(hadc->Instance->SQR1, ADC_SQR1_L)    )
 8001aa4:	687b      	ldr	r3, [r7, #4]
 8001aa6:	681b      	ldr	r3, [r3, #0]
 8001aa8:	6adb      	ldr	r3, [r3, #44]	@ 0x2c
 8001aaa:	f403 0370 	and.w	r3, r3, #15728640	@ 0xf00000
  if (HAL_IS_BIT_CLR(hadc->Instance->CR1, ADC_CR1_SCAN) &&
 8001aae:	2b00      	cmp	r3, #0
 8001ab0:	d12a      	bne.n	8001b08 <HAL_ADC_PollForConversion+0xb4>
  {
    /* Wait until End of Conversion flag is raised */
    while(HAL_IS_BIT_CLR(hadc->Instance->SR, ADC_FLAG_EOC))
 8001ab2:	e021      	b.n	8001af8 <HAL_ADC_PollForConversion+0xa4>
    {
      /* Check if timeout is disabled (set to infinite wait) */
      if(Timeout != HAL_MAX_DELAY)
 8001ab4:	683b      	ldr	r3, [r7, #0]
 8001ab6:	f1b3 3fff 	cmp.w	r3, #4294967295
 8001aba:	d01d      	beq.n	8001af8 <HAL_ADC_PollForConversion+0xa4>
      {
        if((Timeout == 0U) || ((HAL_GetTick() - tickstart ) > Timeout))
 8001abc:	683b      	ldr	r3, [r7, #0]
 8001abe:	2b00      	cmp	r3, #0
 8001ac0:	d007      	beq.n	8001ad2 <HAL_ADC_PollForConversion+0x7e>
 8001ac2:	f7ff fe13 	bl	80016ec <HAL_GetTick>
 8001ac6:	4602      	mov	r2, r0
 8001ac8:	697b      	ldr	r3, [r7, #20]
 8001aca:	1ad3      	subs	r3, r2, r3
 8001acc:	683a      	ldr	r2, [r7, #0]
 8001ace:	429a      	cmp	r2, r3
 8001ad0:	d212      	bcs.n	8001af8 <HAL_ADC_PollForConversion+0xa4>
        {
          /* New check to avoid false timeout detection in case of preemption */
          if(HAL_IS_BIT_CLR(hadc->Instance->SR, ADC_FLAG_EOC))
 8001ad2:	687b      	ldr	r3, [r7, #4]
 8001ad4:	681b      	ldr	r3, [r3, #0]
 8001ad6:	681b      	ldr	r3, [r3, #0]
 8001ad8:	f003 0302 	and.w	r3, r3, #2
 8001adc:	2b00      	cmp	r3, #0
 8001ade:	d10b      	bne.n	8001af8 <HAL_ADC_PollForConversion+0xa4>
          {
            /* Update ADC state machine to timeout */
            SET_BIT(hadc->State, HAL_ADC_STATE_TIMEOUT);
 8001ae0:	687b      	ldr	r3, [r7, #4]
 8001ae2:	6a9b      	ldr	r3, [r3, #40]	@ 0x28
 8001ae4:	f043 0204 	orr.w	r2, r3, #4
 8001ae8:	687b      	ldr	r3, [r7, #4]
 8001aea:	629a      	str	r2, [r3, #40]	@ 0x28
            
            /* Process unlocked */
            __HAL_UNLOCK(hadc);
 8001aec:	687b      	ldr	r3, [r7, #4]
 8001aee:	2200      	movs	r2, #0
 8001af0:	f883 2024 	strb.w	r2, [r3, #36]	@ 0x24
            
            return HAL_TIMEOUT;
 8001af4:	2303      	movs	r3, #3
 8001af6:	e0a2      	b.n	8001c3e <HAL_ADC_PollForConversion+0x1ea>
    while(HAL_IS_BIT_CLR(hadc->Instance->SR, ADC_FLAG_EOC))
 8001af8:	687b      	ldr	r3, [r7, #4]
 8001afa:	681b      	ldr	r3, [r3, #0]
 8001afc:	681b      	ldr	r3, [r3, #0]
 8001afe:	f003 0302 	and.w	r3, r3, #2
 8001b02:	2b00      	cmp	r3, #0
 8001b04:	d0d6      	beq.n	8001ab4 <HAL_ADC_PollForConversion+0x60>
  if (HAL_IS_BIT_CLR(hadc->Instance->CR1, ADC_CR1_SCAN) &&
 8001b06:	e070      	b.n	8001bea <HAL_ADC_PollForConversion+0x196>
    /* Replace polling by wait for maximum conversion time */
    /*  - Computation of CPU clock cycles corresponding to ADC clock cycles   */
    /*    and ADC maximum conversion cycles on all channels.                  */
    /*  - Wait for the expected ADC clock cycles delay                        */
    Conversion_Timeout_CPU_cycles_max = ((SystemCoreClock
                                          / HAL_RCCEx_GetPeriphCLKFreq(RCC_PERIPHCLK_ADC))
 8001b08:	4b4f      	ldr	r3, [pc, #316]	@ (8001c48 <HAL_ADC_PollForConversion+0x1f4>)
 8001b0a:	681c      	ldr	r4, [r3, #0]
 8001b0c:	2002      	movs	r0, #2
 8001b0e:	f001 fa87 	bl	8003020 <HAL_RCCEx_GetPeriphCLKFreq>
 8001b12:	4603      	mov	r3, r0
 8001b14:	fbb4 f2f3 	udiv	r2, r4, r3
                                         * ADC_CONVCYCLES_MAX_RANGE(hadc)                 );
 8001b18:	687b      	ldr	r3, [r7, #4]
 8001b1a:	681b      	ldr	r3, [r3, #0]
 8001b1c:	6919      	ldr	r1, [r3, #16]
 8001b1e:	4b4b      	ldr	r3, [pc, #300]	@ (8001c4c <HAL_ADC_PollForConversion+0x1f8>)
 8001b20:	400b      	ands	r3, r1
 8001b22:	2b00      	cmp	r3, #0
 8001b24:	d118      	bne.n	8001b58 <HAL_ADC_PollForConversion+0x104>
 8001b26:	687b      	ldr	r3, [r7, #4]
 8001b28:	681b      	ldr	r3, [r3, #0]
 8001b2a:	68d9      	ldr	r1, [r3, #12]
 8001b2c:	4b48      	ldr	r3, [pc, #288]	@ (8001c50 <HAL_ADC_PollForConversion+0x1fc>)
 8001b2e:	400b      	ands	r3, r1
 8001b30:	2b00      	cmp	r3, #0
 8001b32:	d111      	bne.n	8001b58 <HAL_ADC_PollForConversion+0x104>
 8001b34:	687b      	ldr	r3, [r7, #4]
 8001b36:	681b      	ldr	r3, [r3, #0]
 8001b38:	6919      	ldr	r1, [r3, #16]
 8001b3a:	4b46      	ldr	r3, [pc, #280]	@ (8001c54 <HAL_ADC_PollForConversion+0x200>)
 8001b3c:	400b      	ands	r3, r1
 8001b3e:	2b00      	cmp	r3, #0
 8001b40:	d108      	bne.n	8001b54 <HAL_ADC_PollForConversion+0x100>
 8001b42:	687b      	ldr	r3, [r7, #4]
 8001b44:	681b      	ldr	r3, [r3, #0]
 8001b46:	68d9      	ldr	r1, [r3, #12]
 8001b48:	4b43      	ldr	r3, [pc, #268]	@ (8001c58 <HAL_ADC_PollForConversion+0x204>)
 8001b4a:	400b      	ands	r3, r1
 8001b4c:	2b00      	cmp	r3, #0
 8001b4e:	d101      	bne.n	8001b54 <HAL_ADC_PollForConversion+0x100>
 8001b50:	2314      	movs	r3, #20
 8001b52:	e020      	b.n	8001b96 <HAL_ADC_PollForConversion+0x142>
 8001b54:	2329      	movs	r3, #41	@ 0x29
 8001b56:	e01e      	b.n	8001b96 <HAL_ADC_PollForConversion+0x142>
 8001b58:	687b      	ldr	r3, [r7, #4]
 8001b5a:	681b      	ldr	r3, [r3, #0]
 8001b5c:	6919      	ldr	r1, [r3, #16]
 8001b5e:	4b3d      	ldr	r3, [pc, #244]	@ (8001c54 <HAL_ADC_PollForConversion+0x200>)
 8001b60:	400b      	ands	r3, r1
 8001b62:	2b00      	cmp	r3, #0
 8001b64:	d106      	bne.n	8001b74 <HAL_ADC_PollForConversion+0x120>
 8001b66:	687b      	ldr	r3, [r7, #4]
 8001b68:	681b      	ldr	r3, [r3, #0]
 8001b6a:	68d9      	ldr	r1, [r3, #12]
 8001b6c:	4b3a      	ldr	r3, [pc, #232]	@ (8001c58 <HAL_ADC_PollForConversion+0x204>)
 8001b6e:	400b      	ands	r3, r1
 8001b70:	2b00      	cmp	r3, #0
 8001b72:	d00d      	beq.n	8001b90 <HAL_ADC_PollForConversion+0x13c>
 8001b74:	687b      	ldr	r3, [r7, #4]
 8001b76:	681b      	ldr	r3, [r3, #0]
 8001b78:	6919      	ldr	r1, [r3, #16]
 8001b7a:	4b38      	ldr	r3, [pc, #224]	@ (8001c5c <HAL_ADC_PollForConversion+0x208>)
 8001b7c:	400b      	ands	r3, r1
 8001b7e:	2b00      	cmp	r3, #0
 8001b80:	d108      	bne.n	8001b94 <HAL_ADC_PollForConversion+0x140>
 8001b82:	687b      	ldr	r3, [r7, #4]
 8001b84:	681b      	ldr	r3, [r3, #0]
 8001b86:	68d9      	ldr	r1, [r3, #12]
 8001b88:	4b34      	ldr	r3, [pc, #208]	@ (8001c5c <HAL_ADC_PollForConversion+0x208>)
 8001b8a:	400b      	ands	r3, r1
 8001b8c:	2b00      	cmp	r3, #0
 8001b8e:	d101      	bne.n	8001b94 <HAL_ADC_PollForConversion+0x140>
 8001b90:	2354      	movs	r3, #84	@ 0x54
 8001b92:	e000      	b.n	8001b96 <HAL_ADC_PollForConversion+0x142>
 8001b94:	23fc      	movs	r3, #252	@ 0xfc
    Conversion_Timeout_CPU_cycles_max = ((SystemCoreClock
 8001b96:	fb02 f303 	mul.w	r3, r2, r3
 8001b9a:	613b      	str	r3, [r7, #16]
    
    while(Conversion_Timeout_CPU_cycles < Conversion_Timeout_CPU_cycles_max)
 8001b9c:	e021      	b.n	8001be2 <HAL_ADC_PollForConversion+0x18e>
    {
      /* Check if timeout is disabled (set to infinite wait) */
      if(Timeout != HAL_MAX_DELAY)
 8001b9e:	683b      	ldr	r3, [r7, #0]
 8001ba0:	f1b3 3fff 	cmp.w	r3, #4294967295
 8001ba4:	d01a      	beq.n	8001bdc <HAL_ADC_PollForConversion+0x188>
      {
        if((Timeout == 0U) || ((HAL_GetTick() - tickstart) > Timeout))
 8001ba6:	683b      	ldr	r3, [r7, #0]
 8001ba8:	2b00      	cmp	r3, #0
 8001baa:	d007      	beq.n	8001bbc <HAL_ADC_PollForConversion+0x168>
 8001bac:	f7ff fd9e 	bl	80016ec <HAL_GetTick>
 8001bb0:	4602      	mov	r2, r0
 8001bb2:	697b      	ldr	r3, [r7, #20]
 8001bb4:	1ad3      	subs	r3, r2, r3
 8001bb6:	683a      	ldr	r2, [r7, #0]
 8001bb8:	429a      	cmp	r2, r3
 8001bba:	d20f      	bcs.n	8001bdc <HAL_ADC_PollForConversion+0x188>
        {
          /* New check to avoid false timeout detection in case of preemption */
          if(Conversion_Timeout_CPU_cycles < Conversion_Timeout_CPU_cycles_max)
 8001bbc:	68fb      	ldr	r3, [r7, #12]
 8001bbe:	693a      	ldr	r2, [r7, #16]
 8001bc0:	429a      	cmp	r2, r3
 8001bc2:	d90b      	bls.n	8001bdc <HAL_ADC_PollForConversion+0x188>
          {
            /* Update ADC state machine to timeout */
            SET_BIT(hadc->State, HAL_ADC_STATE_TIMEOUT);
 8001bc4:	687b      	ldr	r3, [r7, #4]
 8001bc6:	6a9b      	ldr	r3, [r3, #40]	@ 0x28
 8001bc8:	f043 0204 	orr.w	r2, r3, #4
 8001bcc:	687b      	ldr	r3, [r7, #4]
 8001bce:	629a      	str	r2, [r3, #40]	@ 0x28

            /* Process unlocked */
            __HAL_UNLOCK(hadc);
 8001bd0:	687b      	ldr	r3, [r7, #4]
 8001bd2:	2200      	movs	r2, #0
 8001bd4:	f883 2024 	strb.w	r2, [r3, #36]	@ 0x24

            return HAL_TIMEOUT;
 8001bd8:	2303      	movs	r3, #3
 8001bda:	e030      	b.n	8001c3e <HAL_ADC_PollForConversion+0x1ea>
          }
        }
      }
      Conversion_Timeout_CPU_cycles ++;
 8001bdc:	68fb      	ldr	r3, [r7, #12]
 8001bde:	3301      	adds	r3, #1
 8001be0:	60fb      	str	r3, [r7, #12]
    while(Conversion_Timeout_CPU_cycles < Conversion_Timeout_CPU_cycles_max)
 8001be2:	68fb      	ldr	r3, [r7, #12]
 8001be4:	693a      	ldr	r2, [r7, #16]
 8001be6:	429a      	cmp	r2, r3
 8001be8:	d8d9      	bhi.n	8001b9e <HAL_ADC_PollForConversion+0x14a>
    }
  }
  
  /* Clear regular group conversion flag */
  __HAL_ADC_CLEAR_FLAG(hadc, ADC_FLAG_STRT | ADC_FLAG_EOC);
 8001bea:	687b      	ldr	r3, [r7, #4]
 8001bec:	681b      	ldr	r3, [r3, #0]
 8001bee:	f06f 0212 	mvn.w	r2, #18
 8001bf2:	601a      	str	r2, [r3, #0]
  
  /* Update ADC state machine */
  SET_BIT(hadc->State, HAL_ADC_STATE_REG_EOC);
 8001bf4:	687b      	ldr	r3, [r7, #4]
 8001bf6:	6a9b      	ldr	r3, [r3, #40]	@ 0x28
 8001bf8:	f443 7200 	orr.w	r2, r3, #512	@ 0x200
 8001bfc:	687b      	ldr	r3, [r7, #4]
 8001bfe:	629a      	str	r2, [r3, #40]	@ 0x28
  /* Determine whether any further conversion upcoming on group regular       */
  /* by external trigger, continuous mode or scan sequence on going.          */
  /* Note: On STM32F1 devices, in case of sequencer enabled                   */
  /*       (several ranks selected), end of conversion flag is raised         */
  /*       at the end of the sequence.                                        */
  if(ADC_IS_SOFTWARE_START_REGULAR(hadc)        && 
 8001c00:	687b      	ldr	r3, [r7, #4]
 8001c02:	681b      	ldr	r3, [r3, #0]
 8001c04:	689b      	ldr	r3, [r3, #8]
 8001c06:	f403 2360 	and.w	r3, r3, #917504	@ 0xe0000
 8001c0a:	f5b3 2f60 	cmp.w	r3, #917504	@ 0xe0000
 8001c0e:	d115      	bne.n	8001c3c <HAL_ADC_PollForConversion+0x1e8>
     (hadc->Init.ContinuousConvMode == DISABLE)   )
 8001c10:	687b      	ldr	r3, [r7, #4]
 8001c12:	7b1b      	ldrb	r3, [r3, #12]
  if(ADC_IS_SOFTWARE_START_REGULAR(hadc)        && 
 8001c14:	2b00      	cmp	r3, #0
 8001c16:	d111      	bne.n	8001c3c <HAL_ADC_PollForConversion+0x1e8>
  {   
    /* Set ADC state */
    CLEAR_BIT(hadc->State, HAL_ADC_STATE_REG_BUSY);   
 8001c18:	687b      	ldr	r3, [r7, #4]
 8001c1a:	6a9b      	ldr	r3, [r3, #40]	@ 0x28
 8001c1c:	f423 7280 	bic.w	r2, r3, #256	@ 0x100
 8001c20:	687b      	ldr	r3, [r7, #4]
 8001c22:	629a      	str	r2, [r3, #40]	@ 0x28

    if (HAL_IS_BIT_CLR(hadc->State, HAL_ADC_STATE_INJ_BUSY))
 8001c24:	687b      	ldr	r3, [r7, #4]
 8001c26:	6a9b      	ldr	r3, [r3, #40]	@ 0x28
 8001c28:	f403 5380 	and.w	r3, r3, #4096	@ 0x1000
 8001c2c:	2b00      	cmp	r3, #0
 8001c2e:	d105      	bne.n	8001c3c <HAL_ADC_PollForConversion+0x1e8>
    { 
      SET_BIT(hadc->State, HAL_ADC_STATE_READY);
 8001c30:	687b      	ldr	r3, [r7, #4]
 8001c32:	6a9b      	ldr	r3, [r3, #40]	@ 0x28
 8001c34:	f043 0201 	orr.w	r2, r3, #1
 8001c38:	687b      	ldr	r3, [r7, #4]
 8001c3a:	629a      	str	r2, [r3, #40]	@ 0x28
    }
  }
  
  /* Return ADC state */
  return HAL_OK;
 8001c3c:	2300      	movs	r3, #0
}
 8001c3e:	4618      	mov	r0, r3
 8001c40:	371c      	adds	r7, #28
 8001c42:	46bd      	mov	sp, r7
 8001c44:	bd90      	pop	{r4, r7, pc}
 8001c46:	bf00      	nop
 8001c48:	20000000 	.word	0x20000000
 8001c4c:	24924924 	.word	0x24924924
 8001c50:	00924924 	.word	0x00924924
 8001c54:	12492492 	.word	0x12492492
 8001c58:	00492492 	.word	0x00492492
 8001c5c:	00249249 	.word	0x00249249

08001c60 <HAL_ADC_GetValue>:
  *         or @ref __HAL_ADC_CLEAR_FLAG(&hadc, ADC_FLAG_EOS).
  * @param  hadc: ADC handle
  * @retval ADC group regular conversion data
  */
uint32_t HAL_ADC_GetValue(ADC_HandleTypeDef* hadc)
{
 8001c60:	b480      	push	{r7}
 8001c62:	b083      	sub	sp, #12
 8001c64:	af00      	add	r7, sp, #0
 8001c66:	6078      	str	r0, [r7, #4]

  /* Note: EOC flag is not cleared here by software because automatically     */
  /*       cleared by hardware when reading register DR.                      */
  
  /* Return ADC converted value */ 
  return hadc->Instance->DR;
 8001c68:	687b      	ldr	r3, [r7, #4]
 8001c6a:	681b      	ldr	r3, [r3, #0]
 8001c6c:	6cdb      	ldr	r3, [r3, #76]	@ 0x4c
}
 8001c6e:	4618      	mov	r0, r3
 8001c70:	370c      	adds	r7, #12
 8001c72:	46bd      	mov	sp, r7
 8001c74:	bc80      	pop	{r7}
 8001c76:	4770      	bx	lr

08001c78 <HAL_ADC_ConfigChannel>:
  * @param  hadc: ADC handle
  * @param  sConfig: Structure of ADC channel for regular group.
  * @retval HAL status
  */
HAL_StatusTypeDef HAL_ADC_ConfigChannel(ADC_HandleTypeDef* hadc, ADC_ChannelConfTypeDef* sConfig)
{ 
 8001c78:	b480      	push	{r7}
 8001c7a:	b085      	sub	sp, #20
 8001c7c:	af00      	add	r7, sp, #0
 8001c7e:	6078      	str	r0, [r7, #4]
 8001c80:	6039      	str	r1, [r7, #0]
  HAL_StatusTypeDef tmp_hal_status = HAL_OK;
 8001c82:	2300      	movs	r3, #0
 8001c84:	73fb      	strb	r3, [r7, #15]
  __IO uint32_t wait_loop_index = 0U;
 8001c86:	2300      	movs	r3, #0
 8001c88:	60bb      	str	r3, [r7, #8]
  assert_param(IS_ADC_CHANNEL(sConfig->Channel));
  assert_param(IS_ADC_REGULAR_RANK(sConfig->Rank));
  assert_param(IS_ADC_SAMPLE_TIME(sConfig->SamplingTime));
  
  /* Process locked */
  __HAL_LOCK(hadc);
 8001c8a:	687b      	ldr	r3, [r7, #4]
 8001c8c:	f893 3024 	ldrb.w	r3, [r3, #36]	@ 0x24
 8001c90:	2b01      	cmp	r3, #1
 8001c92:	d101      	bne.n	8001c98 <HAL_ADC_ConfigChannel+0x20>
 8001c94:	2302      	movs	r3, #2
 8001c96:	e0dc      	b.n	8001e52 <HAL_ADC_ConfigChannel+0x1da>
 8001c98:	687b      	ldr	r3, [r7, #4]
 8001c9a:	2201      	movs	r2, #1
 8001c9c:	f883 2024 	strb.w	r2, [r3, #36]	@ 0x24
  
  
  /* Regular sequence configuration */
  /* For Rank 1 to 6 */
  if (sConfig->Rank < 7U)
 8001ca0:	683b      	ldr	r3, [r7, #0]
 8001ca2:	685b      	ldr	r3, [r3, #4]
 8001ca4:	2b06      	cmp	r3, #6
 8001ca6:	d81c      	bhi.n	8001ce2 <HAL_ADC_ConfigChannel+0x6a>
  {
    MODIFY_REG(hadc->Instance->SQR3                        ,
 8001ca8:	687b      	ldr	r3, [r7, #4]
 8001caa:	681b      	ldr	r3, [r3, #0]
 8001cac:	6b59      	ldr	r1, [r3, #52]	@ 0x34
 8001cae:	683b      	ldr	r3, [r7, #0]
 8001cb0:	685a      	ldr	r2, [r3, #4]
 8001cb2:	4613      	mov	r3, r2
 8001cb4:	009b      	lsls	r3, r3, #2
 8001cb6:	4413      	add	r3, r2
 8001cb8:	3b05      	subs	r3, #5
 8001cba:	221f      	movs	r2, #31
 8001cbc:	fa02 f303 	lsl.w	r3, r2, r3
 8001cc0:	43db      	mvns	r3, r3
 8001cc2:	4019      	ands	r1, r3
 8001cc4:	683b      	ldr	r3, [r7, #0]
 8001cc6:	6818      	ldr	r0, [r3, #0]
 8001cc8:	683b      	ldr	r3, [r7, #0]
 8001cca:	685a      	ldr	r2, [r3, #4]
 8001ccc:	4613      	mov	r3, r2
 8001cce:	009b      	lsls	r3, r3, #2
 8001cd0:	4413      	add	r3, r2
 8001cd2:	3b05      	subs	r3, #5
 8001cd4:	fa00 f203 	lsl.w	r2, r0, r3
 8001cd8:	687b      	ldr	r3, [r7, #4]
 8001cda:	681b      	ldr	r3, [r3, #0]
 8001cdc:	430a      	orrs	r2, r1
 8001cde:	635a      	str	r2, [r3, #52]	@ 0x34
 8001ce0:	e03c      	b.n	8001d5c <HAL_ADC_ConfigChannel+0xe4>
               ADC_SQR3_RK(ADC_SQR3_SQ1, sConfig->Rank)    ,
               ADC_SQR3_RK(sConfig->Channel, sConfig->Rank) );
  }
  /* For Rank 7 to 12 */
  else if (sConfig->Rank < 13U)
 8001ce2:	683b      	ldr	r3, [r7, #0]
 8001ce4:	685b      	ldr	r3, [r3, #4]
 8001ce6:	2b0c      	cmp	r3, #12
 8001ce8:	d81c      	bhi.n	8001d24 <HAL_ADC_ConfigChannel+0xac>
  {
    MODIFY_REG(hadc->Instance->SQR2                        ,
 8001cea:	687b      	ldr	r3, [r7, #4]
 8001cec:	681b      	ldr	r3, [r3, #0]
 8001cee:	6b19      	ldr	r1, [r3, #48]	@ 0x30
 8001cf0:	683b      	ldr	r3, [r7, #0]
 8001cf2:	685a      	ldr	r2, [r3, #4]
 8001cf4:	4613      	mov	r3, r2
 8001cf6:	009b      	lsls	r3, r3, #2
 8001cf8:	4413      	add	r3, r2
 8001cfa:	3b23      	subs	r3, #35	@ 0x23
 8001cfc:	221f      	movs	r2, #31
 8001cfe:	fa02 f303 	lsl.w	r3, r2, r3
 8001d02:	43db      	mvns	r3, r3
 8001d04:	4019      	ands	r1, r3
 8001d06:	683b      	ldr	r3, [r7, #0]
 8001d08:	6818      	ldr	r0, [r3, #0]
 8001d0a:	683b      	ldr	r3, [r7, #0]
 8001d0c:	685a      	ldr	r2, [r3, #4]
 8001d0e:	4613      	mov	r3, r2
 8001d10:	009b      	lsls	r3, r3, #2
 8001d12:	4413      	add	r3, r2
 8001d14:	3b23      	subs	r3, #35	@ 0x23
 8001d16:	fa00 f203 	lsl.w	r2, r0, r3
 8001d1a:	687b      	ldr	r3, [r7, #4]
 8001d1c:	681b      	ldr	r3, [r3, #0]
 8001d1e:	430a      	orrs	r2, r1
 8001d20:	631a      	str	r2, [r3, #48]	@ 0x30
 8001d22:	e01b      	b.n	8001d5c <HAL_ADC_ConfigChannel+0xe4>
               ADC_SQR2_RK(sConfig->Channel, sConfig->Rank) );
  }
  /* For Rank 13 to 16 */
  else
  {
    MODIFY_REG(hadc->Instance->SQR1                        ,
 8001d24:	687b      	ldr	r3, [r7, #4]
 8001d26:	681b      	ldr	r3, [r3, #0]
 8001d28:	6ad9      	ldr	r1, [r3, #44]	@ 0x2c
 8001d2a:	683b      	ldr	r3, [r7, #0]
 8001d2c:	685a      	ldr	r2, [r3, #4]
 8001d2e:	4613      	mov	r3, r2
 8001d30:	009b      	lsls	r3, r3, #2
 8001d32:	4413      	add	r3, r2
 8001d34:	3b41      	subs	r3, #65	@ 0x41
 8001d36:	221f      	movs	r2, #31
 8001d38:	fa02 f303 	lsl.w	r3, r2, r3
 8001d3c:	43db      	mvns	r3, r3
 8001d3e:	4019      	ands	r1, r3
 8001d40:	683b      	ldr	r3, [r7, #0]
 8001d42:	6818      	ldr	r0, [r3, #0]
 8001d44:	683b      	ldr	r3, [r7, #0]
 8001d46:	685a      	ldr	r2, [r3, #4]
 8001d48:	4613      	mov	r3, r2
 8001d4a:	009b      	lsls	r3, r3, #2
 8001d4c:	4413      	add	r3, r2
 8001d4e:	3b41      	subs	r3, #65	@ 0x41
 8001d50:	fa00 f203 	lsl.w	r2, r0, r3
 8001d54:	687b      	ldr	r3, [r7, #4]
 8001d56:	681b      	ldr	r3, [r3, #0]
 8001d58:	430a      	orrs	r2, r1
 8001d5a:	62da      	str	r2, [r3, #44]	@ 0x2c
  }
  
  
  /* Channel sampling time configuration */
  /* For channels 10 to 17 */
  if (sConfig->Channel >= ADC_CHANNEL_10)
 8001d5c:	683b      	ldr	r3, [r7, #0]
 8001d5e:	681b      	ldr	r3, [r3, #0]
 8001d60:	2b09      	cmp	r3, #9
 8001d62:	d91c      	bls.n	8001d9e <HAL_ADC_ConfigChannel+0x126>
  {
    MODIFY_REG(hadc->Instance->SMPR1                             ,
 8001d64:	687b      	ldr	r3, [r7, #4]
 8001d66:	681b      	ldr	r3, [r3, #0]
 8001d68:	68d9      	ldr	r1, [r3, #12]
 8001d6a:	683b      	ldr	r3, [r7, #0]
 8001d6c:	681a      	ldr	r2, [r3, #0]
 8001d6e:	4613      	mov	r3, r2
 8001d70:	005b      	lsls	r3, r3, #1
 8001d72:	4413      	add	r3, r2
 8001d74:	3b1e      	subs	r3, #30
 8001d76:	2207      	movs	r2, #7
 8001d78:	fa02 f303 	lsl.w	r3, r2, r3
 8001d7c:	43db      	mvns	r3, r3
 8001d7e:	4019      	ands	r1, r3
 8001d80:	683b      	ldr	r3, [r7, #0]
 8001d82:	6898      	ldr	r0, [r3, #8]
 8001d84:	683b      	ldr	r3, [r7, #0]
 8001d86:	681a      	ldr	r2, [r3, #0]
 8001d88:	4613      	mov	r3, r2
 8001d8a:	005b      	lsls	r3, r3, #1
 8001d8c:	4413      	add	r3, r2
 8001d8e:	3b1e      	subs	r3, #30
 8001d90:	fa00 f203 	lsl.w	r2, r0, r3
 8001d94:	687b      	ldr	r3, [r7, #4]
 8001d96:	681b      	ldr	r3, [r3, #0]
 8001d98:	430a      	orrs	r2, r1
 8001d9a:	60da      	str	r2, [r3, #12]
 8001d9c:	e019      	b.n	8001dd2 <HAL_ADC_ConfigChannel+0x15a>
               ADC_SMPR1(ADC_SMPR1_SMP10, sConfig->Channel)      ,
               ADC_SMPR1(sConfig->SamplingTime, sConfig->Channel) );
  }
  else /* For channels 0 to 9 */
  {
    MODIFY_REG(hadc->Instance->SMPR2                             ,
 8001d9e:	687b      	ldr	r3, [r7, #4]
 8001da0:	681b      	ldr	r3, [r3, #0]
 8001da2:	6919      	ldr	r1, [r3, #16]
 8001da4:	683b      	ldr	r3, [r7, #0]
 8001da6:	681a      	ldr	r2, [r3, #0]
 8001da8:	4613      	mov	r3, r2
 8001daa:	005b      	lsls	r3, r3, #1
 8001dac:	4413      	add	r3, r2
 8001dae:	2207      	movs	r2, #7
 8001db0:	fa02 f303 	lsl.w	r3, r2, r3
 8001db4:	43db      	mvns	r3, r3
 8001db6:	4019      	ands	r1, r3
 8001db8:	683b      	ldr	r3, [r7, #0]
 8001dba:	6898      	ldr	r0, [r3, #8]
 8001dbc:	683b      	ldr	r3, [r7, #0]
 8001dbe:	681a      	ldr	r2, [r3, #0]
 8001dc0:	4613      	mov	r3, r2
 8001dc2:	005b      	lsls	r3, r3, #1
 8001dc4:	4413      	add	r3, r2
 8001dc6:	fa00 f203 	lsl.w	r2, r0, r3
 8001dca:	687b      	ldr	r3, [r7, #4]
 8001dcc:	681b      	ldr	r3, [r3, #0]
 8001dce:	430a      	orrs	r2, r1
 8001dd0:	611a      	str	r2, [r3, #16]
               ADC_SMPR2(sConfig->SamplingTime, sConfig->Channel) );
  }
  
  /* If ADC1 Channel_16 or Channel_17 is selected, enable Temperature sensor  */
  /* and VREFINT measurement path.                                            */
  if ((sConfig->Channel == ADC_CHANNEL_TEMPSENSOR) ||
 8001dd2:	683b      	ldr	r3, [r7, #0]
 8001dd4:	681b      	ldr	r3, [r3, #0]
 8001dd6:	2b10      	cmp	r3, #16
 8001dd8:	d003      	beq.n	8001de2 <HAL_ADC_ConfigChannel+0x16a>
      (sConfig->Channel == ADC_CHANNEL_VREFINT)      )
 8001dda:	683b      	ldr	r3, [r7, #0]
 8001ddc:	681b      	ldr	r3, [r3, #0]
  if ((sConfig->Channel == ADC_CHANNEL_TEMPSENSOR) ||
 8001dde:	2b11      	cmp	r3, #17
 8001de0:	d132      	bne.n	8001e48 <HAL_ADC_ConfigChannel+0x1d0>
  {
    /* For STM32F1 devices with several ADC: Only ADC1 can access internal    */
    /* measurement channels (VrefInt/TempSensor). If these channels are       */
    /* intended to be set on other ADC instances, an error is reported.       */
    if (hadc->Instance == ADC1)
 8001de2:	687b      	ldr	r3, [r7, #4]
 8001de4:	681b      	ldr	r3, [r3, #0]
 8001de6:	4a1d      	ldr	r2, [pc, #116]	@ (8001e5c <HAL_ADC_ConfigChannel+0x1e4>)
 8001de8:	4293      	cmp	r3, r2
 8001dea:	d125      	bne.n	8001e38 <HAL_ADC_ConfigChannel+0x1c0>
    {
      if (READ_BIT(hadc->Instance->CR2, ADC_CR2_TSVREFE) == RESET)
 8001dec:	687b      	ldr	r3, [r7, #4]
 8001dee:	681b      	ldr	r3, [r3, #0]
 8001df0:	689b      	ldr	r3, [r3, #8]
 8001df2:	f403 0300 	and.w	r3, r3, #8388608	@ 0x800000
 8001df6:	2b00      	cmp	r3, #0
 8001df8:	d126      	bne.n	8001e48 <HAL_ADC_ConfigChannel+0x1d0>
      {
        SET_BIT(hadc->Instance->CR2, ADC_CR2_TSVREFE);
 8001dfa:	687b      	ldr	r3, [r7, #4]
 8001dfc:	681b      	ldr	r3, [r3, #0]
 8001dfe:	689a      	ldr	r2, [r3, #8]
 8001e00:	687b      	ldr	r3, [r7, #4]
 8001e02:	681b      	ldr	r3, [r3, #0]
 8001e04:	f442 0200 	orr.w	r2, r2, #8388608	@ 0x800000
 8001e08:	609a      	str	r2, [r3, #8]
        
        if (sConfig->Channel == ADC_CHANNEL_TEMPSENSOR)
 8001e0a:	683b      	ldr	r3, [r7, #0]
 8001e0c:	681b      	ldr	r3, [r3, #0]
 8001e0e:	2b10      	cmp	r3, #16
 8001e10:	d11a      	bne.n	8001e48 <HAL_ADC_ConfigChannel+0x1d0>
        {
          /* Delay for temperature sensor stabilization time */
          /* Compute number of CPU cycles to wait for */
          wait_loop_index = (ADC_TEMPSENSOR_DELAY_US * (SystemCoreClock / 1000000U));
 8001e12:	4b13      	ldr	r3, [pc, #76]	@ (8001e60 <HAL_ADC_ConfigChannel+0x1e8>)
 8001e14:	681b      	ldr	r3, [r3, #0]
 8001e16:	4a13      	ldr	r2, [pc, #76]	@ (8001e64 <HAL_ADC_ConfigChannel+0x1ec>)
 8001e18:	fba2 2303 	umull	r2, r3, r2, r3
 8001e1c:	0c9a      	lsrs	r2, r3, #18
 8001e1e:	4613      	mov	r3, r2
 8001e20:	009b      	lsls	r3, r3, #2
 8001e22:	4413      	add	r3, r2
 8001e24:	005b      	lsls	r3, r3, #1
 8001e26:	60bb      	str	r3, [r7, #8]
          while(wait_loop_index != 0U)
 8001e28:	e002      	b.n	8001e30 <HAL_ADC_ConfigChannel+0x1b8>
          {
            wait_loop_index--;
 8001e2a:	68bb      	ldr	r3, [r7, #8]
 8001e2c:	3b01      	subs	r3, #1
 8001e2e:	60bb      	str	r3, [r7, #8]
          while(wait_loop_index != 0U)
 8001e30:	68bb      	ldr	r3, [r7, #8]
 8001e32:	2b00      	cmp	r3, #0
 8001e34:	d1f9      	bne.n	8001e2a <HAL_ADC_ConfigChannel+0x1b2>
 8001e36:	e007      	b.n	8001e48 <HAL_ADC_ConfigChannel+0x1d0>
      }
    }
    else
    {
      /* Update ADC state machine to error */
      SET_BIT(hadc->State, HAL_ADC_STATE_ERROR_CONFIG);
 8001e38:	687b      	ldr	r3, [r7, #4]
 8001e3a:	6a9b      	ldr	r3, [r3, #40]	@ 0x28
 8001e3c:	f043 0220 	orr.w	r2, r3, #32
 8001e40:	687b      	ldr	r3, [r7, #4]
 8001e42:	629a      	str	r2, [r3, #40]	@ 0x28
      
      tmp_hal_status = HAL_ERROR;
 8001e44:	2301      	movs	r3, #1
 8001e46:	73fb      	strb	r3, [r7, #15]
    }
  }
  
  /* Process unlocked */
  __HAL_UNLOCK(hadc);
 8001e48:	687b      	ldr	r3, [r7, #4]
 8001e4a:	2200      	movs	r2, #0
 8001e4c:	f883 2024 	strb.w	r2, [r3, #36]	@ 0x24
  
  /* Return function status */
  return tmp_hal_status;
 8001e50:	7bfb      	ldrb	r3, [r7, #15]
}
 8001e52:	4618      	mov	r0, r3
 8001e54:	3714      	adds	r7, #20
 8001e56:	46bd      	mov	sp, r7
 8001e58:	bc80      	pop	{r7}
 8001e5a:	4770      	bx	lr
 8001e5c:	40012400 	.word	0x40012400
 8001e60:	20000000 	.word	0x20000000
 8001e64:	431bde83 	.word	0x431bde83

08001e68 <ADC_Enable>:
  *         and voltage regulator must be enabled (done into HAL_ADC_Init()).
  * @param  hadc: ADC handle
  * @retval HAL status.
  */
HAL_StatusTypeDef ADC_Enable(ADC_HandleTypeDef* hadc)
{
 8001e68:	b580      	push	{r7, lr}
 8001e6a:	b084      	sub	sp, #16
 8001e6c:	af00      	add	r7, sp, #0
 8001e6e:	6078      	str	r0, [r7, #4]
  uint32_t tickstart = 0U;
 8001e70:	2300      	movs	r3, #0
 8001e72:	60fb      	str	r3, [r7, #12]
  __IO uint32_t wait_loop_index = 0U;
 8001e74:	2300      	movs	r3, #0
 8001e76:	60bb      	str	r3, [r7, #8]
  
  /* ADC enable and wait for ADC ready (in case of ADC is disabled or         */
  /* enabling phase not yet completed: flag ADC ready not yet set).           */
  /* Timeout implemented to not be stuck if ADC cannot be enabled (possible   */
  /* causes: ADC clock not running, ...).                                     */
  if (ADC_IS_ENABLE(hadc) == RESET)
 8001e78:	687b      	ldr	r3, [r7, #4]
 8001e7a:	681b      	ldr	r3, [r3, #0]
 8001e7c:	689b      	ldr	r3, [r3, #8]
 8001e7e:	f003 0301 	and.w	r3, r3, #1
 8001e82:	2b01      	cmp	r3, #1
 8001e84:	d040      	beq.n	8001f08 <ADC_Enable+0xa0>
  {
    /* Enable the Peripheral */
    __HAL_ADC_ENABLE(hadc);
 8001e86:	687b      	ldr	r3, [r7, #4]
 8001e88:	681b      	ldr	r3, [r3, #0]
 8001e8a:	689a      	ldr	r2, [r3, #8]
 8001e8c:	687b      	ldr	r3, [r7, #4]
 8001e8e:	681b      	ldr	r3, [r3, #0]
 8001e90:	f042 0201 	orr.w	r2, r2, #1
 8001e94:	609a      	str	r2, [r3, #8]
    
    /* Delay for ADC stabilization time */
    /* Compute number of CPU cycles to wait for */
    wait_loop_index = (ADC_STAB_DELAY_US * (SystemCoreClock / 1000000U));
 8001e96:	4b1f      	ldr	r3, [pc, #124]	@ (8001f14 <ADC_Enable+0xac>)
 8001e98:	681b      	ldr	r3, [r3, #0]
 8001e9a:	4a1f      	ldr	r2, [pc, #124]	@ (8001f18 <ADC_Enable+0xb0>)
 8001e9c:	fba2 2303 	umull	r2, r3, r2, r3
 8001ea0:	0c9b      	lsrs	r3, r3, #18
 8001ea2:	60bb      	str	r3, [r7, #8]
    while(wait_loop_index != 0U)
 8001ea4:	e002      	b.n	8001eac <ADC_Enable+0x44>
    {
      wait_loop_index--;
 8001ea6:	68bb      	ldr	r3, [r7, #8]
 8001ea8:	3b01      	subs	r3, #1
 8001eaa:	60bb      	str	r3, [r7, #8]
    while(wait_loop_index != 0U)
 8001eac:	68bb      	ldr	r3, [r7, #8]
 8001eae:	2b00      	cmp	r3, #0
 8001eb0:	d1f9      	bne.n	8001ea6 <ADC_Enable+0x3e>
    }
    
    /* Get tick count */
    tickstart = HAL_GetTick();
 8001eb2:	f7ff fc1b 	bl	80016ec <HAL_GetTick>
 8001eb6:	60f8      	str	r0, [r7, #12]

    /* Wait for ADC effectively enabled */
    while(ADC_IS_ENABLE(hadc) == RESET)
 8001eb8:	e01f      	b.n	8001efa <ADC_Enable+0x92>
    {
      if((HAL_GetTick() - tickstart) > ADC_ENABLE_TIMEOUT)
 8001eba:	f7ff fc17 	bl	80016ec <HAL_GetTick>
 8001ebe:	4602      	mov	r2, r0
 8001ec0:	68fb      	ldr	r3, [r7, #12]
 8001ec2:	1ad3      	subs	r3, r2, r3
 8001ec4:	2b02      	cmp	r3, #2
 8001ec6:	d918      	bls.n	8001efa <ADC_Enable+0x92>
      {
        /* New check to avoid false timeout detection in case of preemption */
        if(ADC_IS_ENABLE(hadc) == RESET)
 8001ec8:	687b      	ldr	r3, [r7, #4]
 8001eca:	681b      	ldr	r3, [r3, #0]
 8001ecc:	689b      	ldr	r3, [r3, #8]
 8001ece:	f003 0301 	and.w	r3, r3, #1
 8001ed2:	2b01      	cmp	r3, #1
 8001ed4:	d011      	beq.n	8001efa <ADC_Enable+0x92>
        {
          /* Update ADC state machine to error */
          SET_BIT(hadc->State, HAL_ADC_STATE_ERROR_INTERNAL);
 8001ed6:	687b      	ldr	r3, [r7, #4]
 8001ed8:	6a9b      	ldr	r3, [r3, #40]	@ 0x28
 8001eda:	f043 0210 	orr.w	r2, r3, #16
 8001ede:	687b      	ldr	r3, [r7, #4]
 8001ee0:	629a      	str	r2, [r3, #40]	@ 0x28

          /* Set ADC error code to ADC IP internal error */
          SET_BIT(hadc->ErrorCode, HAL_ADC_ERROR_INTERNAL);
 8001ee2:	687b      	ldr	r3, [r7, #4]
 8001ee4:	6adb      	ldr	r3, [r3, #44]	@ 0x2c
 8001ee6:	f043 0201 	orr.w	r2, r3, #1
 8001eea:	687b      	ldr	r3, [r7, #4]
 8001eec:	62da      	str	r2, [r3, #44]	@ 0x2c

          /* Process unlocked */
          __HAL_UNLOCK(hadc);
 8001eee:	687b      	ldr	r3, [r7, #4]
 8001ef0:	2200      	movs	r2, #0
 8001ef2:	f883 2024 	strb.w	r2, [r3, #36]	@ 0x24

          return HAL_ERROR;
 8001ef6:	2301      	movs	r3, #1
 8001ef8:	e007      	b.n	8001f0a <ADC_Enable+0xa2>
    while(ADC_IS_ENABLE(hadc) == RESET)
 8001efa:	687b      	ldr	r3, [r7, #4]
 8001efc:	681b      	ldr	r3, [r3, #0]
 8001efe:	689b      	ldr	r3, [r3, #8]
 8001f00:	f003 0301 	and.w	r3, r3, #1
 8001f04:	2b01      	cmp	r3, #1
 8001f06:	d1d8      	bne.n	8001eba <ADC_Enable+0x52>
      }
    }
  }
   
  /* Return HAL status */
  return HAL_OK;
 8001f08:	2300      	movs	r3, #0
}
 8001f0a:	4618      	mov	r0, r3
 8001f0c:	3710      	adds	r7, #16
 8001f0e:	46bd      	mov	sp, r7
 8001f10:	bd80      	pop	{r7, pc}
 8001f12:	bf00      	nop
 8001f14:	20000000 	.word	0x20000000
 8001f18:	431bde83 	.word	0x431bde83

08001f1c <ADC_ConversionStop_Disable>:
  *         stopped to disable the ADC.
  * @param  hadc: ADC handle
  * @retval HAL status.
  */
HAL_StatusTypeDef ADC_ConversionStop_Disable(ADC_HandleTypeDef* hadc)
{
 8001f1c:	b580      	push	{r7, lr}
 8001f1e:	b084      	sub	sp, #16
 8001f20:	af00      	add	r7, sp, #0
 8001f22:	6078      	str	r0, [r7, #4]
  uint32_t tickstart = 0U;
 8001f24:	2300      	movs	r3, #0
 8001f26:	60fb      	str	r3, [r7, #12]
  
  /* Verification if ADC is not already disabled */
  if (ADC_IS_ENABLE(hadc) != RESET)
 8001f28:	687b      	ldr	r3, [r7, #4]
 8001f2a:	681b      	ldr	r3, [r3, #0]
 8001f2c:	689b      	ldr	r3, [r3, #8]
 8001f2e:	f003 0301 	and.w	r3, r3, #1
 8001f32:	2b01      	cmp	r3, #1
 8001f34:	d12e      	bne.n	8001f94 <ADC_ConversionStop_Disable+0x78>
  {
    /* Disable the ADC peripheral */
    __HAL_ADC_DISABLE(hadc);
 8001f36:	687b      	ldr	r3, [r7, #4]
 8001f38:	681b      	ldr	r3, [r3, #0]
 8001f3a:	689a      	ldr	r2, [r3, #8]
 8001f3c:	687b      	ldr	r3, [r7, #4]
 8001f3e:	681b      	ldr	r3, [r3, #0]
 8001f40:	f022 0201 	bic.w	r2, r2, #1
 8001f44:	609a      	str	r2, [r3, #8]
     
    /* Get tick count */
    tickstart = HAL_GetTick();
 8001f46:	f7ff fbd1 	bl	80016ec <HAL_GetTick>
 8001f4a:	60f8      	str	r0, [r7, #12]
    
    /* Wait for ADC effectively disabled */
    while(ADC_IS_ENABLE(hadc) != RESET)
 8001f4c:	e01b      	b.n	8001f86 <ADC_ConversionStop_Disable+0x6a>
    {
      if((HAL_GetTick() - tickstart) > ADC_DISABLE_TIMEOUT)
 8001f4e:	f7ff fbcd 	bl	80016ec <HAL_GetTick>
 8001f52:	4602      	mov	r2, r0
 8001f54:	68fb      	ldr	r3, [r7, #12]
 8001f56:	1ad3      	subs	r3, r2, r3
 8001f58:	2b02      	cmp	r3, #2
 8001f5a:	d914      	bls.n	8001f86 <ADC_ConversionStop_Disable+0x6a>
      {
        /* New check to avoid false timeout detection in case of preemption */
        if(ADC_IS_ENABLE(hadc) != RESET)
 8001f5c:	687b      	ldr	r3, [r7, #4]
 8001f5e:	681b      	ldr	r3, [r3, #0]
 8001f60:	689b      	ldr	r3, [r3, #8]
 8001f62:	f003 0301 	and.w	r3, r3, #1
 8001f66:	2b01      	cmp	r3, #1
 8001f68:	d10d      	bne.n	8001f86 <ADC_ConversionStop_Disable+0x6a>
        {
          /* Update ADC state machine to error */
          SET_BIT(hadc->State, HAL_ADC_STATE_ERROR_INTERNAL);
 8001f6a:	687b      	ldr	r3, [r7, #4]
 8001f6c:	6a9b      	ldr	r3, [r3, #40]	@ 0x28
 8001f6e:	f043 0210 	orr.w	r2, r3, #16
 8001f72:	687b      	ldr	r3, [r7, #4]
 8001f74:	629a      	str	r2, [r3, #40]	@ 0x28

          /* Set ADC error code to ADC IP internal error */
          SET_BIT(hadc->ErrorCode, HAL_ADC_ERROR_INTERNAL);
 8001f76:	687b      	ldr	r3, [r7, #4]
 8001f78:	6adb      	ldr	r3, [r3, #44]	@ 0x2c
 8001f7a:	f043 0201 	orr.w	r2, r3, #1
 8001f7e:	687b      	ldr	r3, [r7, #4]
 8001f80:	62da      	str	r2, [r3, #44]	@ 0x2c

          return HAL_ERROR;
 8001f82:	2301      	movs	r3, #1
 8001f84:	e007      	b.n	8001f96 <ADC_ConversionStop_Disable+0x7a>
    while(ADC_IS_ENABLE(hadc) != RESET)
 8001f86:	687b      	ldr	r3, [r7, #4]
 8001f88:	681b      	ldr	r3, [r3, #0]
 8001f8a:	689b      	ldr	r3, [r3, #8]
 8001f8c:	f003 0301 	and.w	r3, r3, #1
 8001f90:	2b01      	cmp	r3, #1
 8001f92:	d0dc      	beq.n	8001f4e <ADC_ConversionStop_Disable+0x32>
      }
    }
  }
  
  /* Return HAL status */
  return HAL_OK;
 8001f94:	2300      	movs	r3, #0
}
 8001f96:	4618      	mov	r0, r3
 8001f98:	3710      	adds	r7, #16
 8001f9a:	46bd      	mov	sp, r7
 8001f9c:	bd80      	pop	{r7, pc}
	...

08001fa0 <HAL_ADCEx_Calibration_Start>:
  *         the completion of this function.
  * @param  hadc: ADC handle
  * @retval HAL status
  */
HAL_StatusTypeDef HAL_ADCEx_Calibration_Start(ADC_HandleTypeDef* hadc)
{
 8001fa0:	b590      	push	{r4, r7, lr}
 8001fa2:	b087      	sub	sp, #28
 8001fa4:	af00      	add	r7, sp, #0
 8001fa6:	6078      	str	r0, [r7, #4]
  HAL_StatusTypeDef tmp_hal_status = HAL_OK;
 8001fa8:	2300      	movs	r3, #0
 8001faa:	75fb      	strb	r3, [r7, #23]
  uint32_t tickstart;
  __IO uint32_t wait_loop_index = 0U;
 8001fac:	2300      	movs	r3, #0
 8001fae:	60fb      	str	r3, [r7, #12]
  
  /* Check the parameters */
  assert_param(IS_ADC_ALL_INSTANCE(hadc->Instance));

  /* Process locked */
  __HAL_LOCK(hadc);
 8001fb0:	687b      	ldr	r3, [r7, #4]
 8001fb2:	f893 3024 	ldrb.w	r3, [r3, #36]	@ 0x24
 8001fb6:	2b01      	cmp	r3, #1
 8001fb8:	d101      	bne.n	8001fbe <HAL_ADCEx_Calibration_Start+0x1e>
 8001fba:	2302      	movs	r3, #2
 8001fbc:	e097      	b.n	80020ee <HAL_ADCEx_Calibration_Start+0x14e>
 8001fbe:	687b      	ldr	r3, [r7, #4]
 8001fc0:	2201      	movs	r2, #1
 8001fc2:	f883 2024 	strb.w	r2, [r3, #36]	@ 0x24
    
   /* 1. Disable ADC peripheral                                                 */
   tmp_hal_status = ADC_ConversionStop_Disable(hadc);
 8001fc6:	6878      	ldr	r0, [r7, #4]
 8001fc8:	f7ff ffa8 	bl	8001f1c <ADC_ConversionStop_Disable>
 8001fcc:	4603      	mov	r3, r0
 8001fce:	75fb      	strb	r3, [r7, #23]
  
   /* 2. Calibration prerequisite delay before starting the calibration.       */
   /*    - ADC must be enabled for at least two ADC clock cycles               */
   tmp_hal_status = ADC_Enable(hadc);
 8001fd0:	6878      	ldr	r0, [r7, #4]
 8001fd2:	f7ff ff49 	bl	8001e68 <ADC_Enable>
 8001fd6:	4603      	mov	r3, r0
 8001fd8:	75fb      	strb	r3, [r7, #23]

   /* Check if ADC is effectively enabled */
   if (tmp_hal_status == HAL_OK)
 8001fda:	7dfb      	ldrb	r3, [r7, #23]
 8001fdc:	2b00      	cmp	r3, #0
 8001fde:	f040 8081 	bne.w	80020e4 <HAL_ADCEx_Calibration_Start+0x144>
   {
     /* Set ADC state */
     ADC_STATE_CLR_SET(hadc->State,
 8001fe2:	687b      	ldr	r3, [r7, #4]
 8001fe4:	6a9b      	ldr	r3, [r3, #40]	@ 0x28
 8001fe6:	f423 5388 	bic.w	r3, r3, #4352	@ 0x1100
 8001fea:	f023 0302 	bic.w	r3, r3, #2
 8001fee:	f043 0202 	orr.w	r2, r3, #2
 8001ff2:	687b      	ldr	r3, [r7, #4]
 8001ff4:	629a      	str	r2, [r3, #40]	@ 0x28
    
    /* Hardware prerequisite: delay before starting the calibration.          */
    /*  - Computation of CPU clock cycles corresponding to ADC clock cycles.  */
    /*  - Wait for the expected ADC clock cycles delay */
    wait_loop_index = ((SystemCoreClock
                        / HAL_RCCEx_GetPeriphCLKFreq(RCC_PERIPHCLK_ADC))
 8001ff6:	4b40      	ldr	r3, [pc, #256]	@ (80020f8 <HAL_ADCEx_Calibration_Start+0x158>)
 8001ff8:	681c      	ldr	r4, [r3, #0]
 8001ffa:	2002      	movs	r0, #2
 8001ffc:	f001 f810 	bl	8003020 <HAL_RCCEx_GetPeriphCLKFreq>
 8002000:	4603      	mov	r3, r0
 8002002:	fbb4 f3f3 	udiv	r3, r4, r3
                       * ADC_PRECALIBRATION_DELAY_ADCCLOCKCYCLES        );
 8002006:	005b      	lsls	r3, r3, #1
    wait_loop_index = ((SystemCoreClock
 8002008:	60fb      	str	r3, [r7, #12]

    while(wait_loop_index != 0U)
 800200a:	e002      	b.n	8002012 <HAL_ADCEx_Calibration_Start+0x72>
    {
      wait_loop_index--;
 800200c:	68fb      	ldr	r3, [r7, #12]
 800200e:	3b01      	subs	r3, #1
 8002010:	60fb      	str	r3, [r7, #12]
    while(wait_loop_index != 0U)
 8002012:	68fb      	ldr	r3, [r7, #12]
 8002014:	2b00      	cmp	r3, #0
 8002016:	d1f9      	bne.n	800200c <HAL_ADCEx_Calibration_Start+0x6c>
    }

    /* 3. Resets ADC calibration registers */  
    SET_BIT(hadc->Instance->CR2, ADC_CR2_RSTCAL);
 8002018:	687b      	ldr	r3, [r7, #4]
 800201a:	681b      	ldr	r3, [r3, #0]
 800201c:	689a      	ldr	r2, [r3, #8]
 800201e:	687b      	ldr	r3, [r7, #4]
 8002020:	681b      	ldr	r3, [r3, #0]
 8002022:	f042 0208 	orr.w	r2, r2, #8
 8002026:	609a      	str	r2, [r3, #8]
    
    tickstart = HAL_GetTick();  
 8002028:	f7ff fb60 	bl	80016ec <HAL_GetTick>
 800202c:	6138      	str	r0, [r7, #16]

    /* Wait for calibration reset completion */
    while(HAL_IS_BIT_SET(hadc->Instance->CR2, ADC_CR2_RSTCAL))
 800202e:	e01b      	b.n	8002068 <HAL_ADCEx_Calibration_Start+0xc8>
    {
      if((HAL_GetTick() - tickstart) > ADC_CALIBRATION_TIMEOUT)
 8002030:	f7ff fb5c 	bl	80016ec <HAL_GetTick>
 8002034:	4602      	mov	r2, r0
 8002036:	693b      	ldr	r3, [r7, #16]
 8002038:	1ad3      	subs	r3, r2, r3
 800203a:	2b0a      	cmp	r3, #10
 800203c:	d914      	bls.n	8002068 <HAL_ADCEx_Calibration_Start+0xc8>
      {
        /* New check to avoid false timeout detection in case of preemption */
        if(HAL_IS_BIT_SET(hadc->Instance->CR2, ADC_CR2_RSTCAL))
 800203e:	687b      	ldr	r3, [r7, #4]
 8002040:	681b      	ldr	r3, [r3, #0]
 8002042:	689b      	ldr	r3, [r3, #8]
 8002044:	f003 0308 	and.w	r3, r3, #8
 8002048:	2b00      	cmp	r3, #0
 800204a:	d00d      	beq.n	8002068 <HAL_ADCEx_Calibration_Start+0xc8>
        {
          /* Update ADC state machine to error */
          ADC_STATE_CLR_SET(hadc->State,
 800204c:	687b      	ldr	r3, [r7, #4]
 800204e:	6a9b      	ldr	r3, [r3, #40]	@ 0x28
 8002050:	f023 0312 	bic.w	r3, r3, #18
 8002054:	f043 0210 	orr.w	r2, r3, #16
 8002058:	687b      	ldr	r3, [r7, #4]
 800205a:	629a      	str	r2, [r3, #40]	@ 0x28
                            HAL_ADC_STATE_BUSY_INTERNAL,
                            HAL_ADC_STATE_ERROR_INTERNAL);

          /* Process unlocked */
          __HAL_UNLOCK(hadc);
 800205c:	687b      	ldr	r3, [r7, #4]
 800205e:	2200      	movs	r2, #0
 8002060:	f883 2024 	strb.w	r2, [r3, #36]	@ 0x24

          return HAL_ERROR;
 8002064:	2301      	movs	r3, #1
 8002066:	e042      	b.n	80020ee <HAL_ADCEx_Calibration_Start+0x14e>
    while(HAL_IS_BIT_SET(hadc->Instance->CR2, ADC_CR2_RSTCAL))
 8002068:	687b      	ldr	r3, [r7, #4]
 800206a:	681b      	ldr	r3, [r3, #0]
 800206c:	689b      	ldr	r3, [r3, #8]
 800206e:	f003 0308 	and.w	r3, r3, #8
 8002072:	2b00      	cmp	r3, #0
 8002074:	d1dc      	bne.n	8002030 <HAL_ADCEx_Calibration_Start+0x90>
        }
      }
    }
    
    /* 4. Start ADC calibration */
    SET_BIT(hadc->Instance->CR2, ADC_CR2_CAL);
 8002076:	687b      	ldr	r3, [r7, #4]
 8002078:	681b      	ldr	r3, [r3, #0]
 800207a:	689a      	ldr	r2, [r3, #8]
 800207c:	687b      	ldr	r3, [r7, #4]
 800207e:	681b      	ldr	r3, [r3, #0]
 8002080:	f042 0204 	orr.w	r2, r2, #4
 8002084:	609a      	str	r2, [r3, #8]
    
    tickstart = HAL_GetTick();  
 8002086:	f7ff fb31 	bl	80016ec <HAL_GetTick>
 800208a:	6138      	str	r0, [r7, #16]

    /* Wait for calibration completion */
    while(HAL_IS_BIT_SET(hadc->Instance->CR2, ADC_CR2_CAL))
 800208c:	e01b      	b.n	80020c6 <HAL_ADCEx_Calibration_Start+0x126>
    {
      if((HAL_GetTick() - tickstart) > ADC_CALIBRATION_TIMEOUT)
 800208e:	f7ff fb2d 	bl	80016ec <HAL_GetTick>
 8002092:	4602      	mov	r2, r0
 8002094:	693b      	ldr	r3, [r7, #16]
 8002096:	1ad3      	subs	r3, r2, r3
 8002098:	2b0a      	cmp	r3, #10
 800209a:	d914      	bls.n	80020c6 <HAL_ADCEx_Calibration_Start+0x126>
      {
        /* New check to avoid false timeout detection in case of preemption */
        if(HAL_IS_BIT_SET(hadc->Instance->CR2, ADC_CR2_CAL))
 800209c:	687b      	ldr	r3, [r7, #4]
 800209e:	681b      	ldr	r3, [r3, #0]
 80020a0:	689b      	ldr	r3, [r3, #8]
 80020a2:	f003 0304 	and.w	r3, r3, #4
 80020a6:	2b00      	cmp	r3, #0
 80020a8:	d00d      	beq.n	80020c6 <HAL_ADCEx_Calibration_Start+0x126>
        {
          /* Update ADC state machine to error */
          ADC_STATE_CLR_SET(hadc->State,
 80020aa:	687b      	ldr	r3, [r7, #4]
 80020ac:	6a9b      	ldr	r3, [r3, #40]	@ 0x28
 80020ae:	f023 0312 	bic.w	r3, r3, #18
 80020b2:	f043 0210 	orr.w	r2, r3, #16
 80020b6:	687b      	ldr	r3, [r7, #4]
 80020b8:	629a      	str	r2, [r3, #40]	@ 0x28
                            HAL_ADC_STATE_BUSY_INTERNAL,
                            HAL_ADC_STATE_ERROR_INTERNAL);

          /* Process unlocked */
          __HAL_UNLOCK(hadc);
 80020ba:	687b      	ldr	r3, [r7, #4]
 80020bc:	2200      	movs	r2, #0
 80020be:	f883 2024 	strb.w	r2, [r3, #36]	@ 0x24

          return HAL_ERROR;
 80020c2:	2301      	movs	r3, #1
 80020c4:	e013      	b.n	80020ee <HAL_ADCEx_Calibration_Start+0x14e>
    while(HAL_IS_BIT_SET(hadc->Instance->CR2, ADC_CR2_CAL))
 80020c6:	687b      	ldr	r3, [r7, #4]
 80020c8:	681b      	ldr	r3, [r3, #0]
 80020ca:	689b      	ldr	r3, [r3, #8]
 80020cc:	f003 0304 	and.w	r3, r3, #4
 80020d0:	2b00      	cmp	r3, #0
 80020d2:	d1dc      	bne.n	800208e <HAL_ADCEx_Calibration_Start+0xee>
        }
      }
    }
    
    /* Set ADC state */
    ADC_STATE_CLR_SET(hadc->State,
 80020d4:	687b      	ldr	r3, [r7, #4]
 80020d6:	6a9b      	ldr	r3, [r3, #40]	@ 0x28
 80020d8:	f023 0303 	bic.w	r3, r3, #3
 80020dc:	f043 0201 	orr.w	r2, r3, #1
 80020e0:	687b      	ldr	r3, [r7, #4]
 80020e2:	629a      	str	r2, [r3, #40]	@ 0x28
                      HAL_ADC_STATE_BUSY_INTERNAL,
                      HAL_ADC_STATE_READY);
  }
  
  /* Process unlocked */
  __HAL_UNLOCK(hadc);
 80020e4:	687b      	ldr	r3, [r7, #4]
 80020e6:	2200      	movs	r2, #0
 80020e8:	f883 2024 	strb.w	r2, [r3, #36]	@ 0x24
  
  /* Return function status */
  return tmp_hal_status;
 80020ec:	7dfb      	ldrb	r3, [r7, #23]
}
 80020ee:	4618      	mov	r0, r3
 80020f0:	371c      	adds	r7, #28
 80020f2:	46bd      	mov	sp, r7
 80020f4:	bd90      	pop	{r4, r7, pc}
 80020f6:	bf00      	nop
 80020f8:	20000000 	.word	0x20000000

080020fc <__NVIC_SetPriorityGrouping>:
           In case of a conflict between priority grouping and available
           priority bits (__NVIC_PRIO_BITS), the smallest possible priority group is set.
  \param [in]      PriorityGroup  Priority grouping field.
 */
__STATIC_INLINE void __NVIC_SetPriorityGrouping(uint32_t PriorityGroup)
{
 80020fc:	b480      	push	{r7}
 80020fe:	b085      	sub	sp, #20
 8002100:	af00      	add	r7, sp, #0
 8002102:	6078      	str	r0, [r7, #4]
  uint32_t reg_value;
  uint32_t PriorityGroupTmp = (PriorityGroup & (uint32_t)0x07UL);             /* only values 0..7 are used          */
 8002104:	687b      	ldr	r3, [r7, #4]
 8002106:	f003 0307 	and.w	r3, r3, #7
 800210a:	60fb      	str	r3, [r7, #12]

  reg_value  =  SCB->AIRCR;                                                   /* read old register configuration    */
 800210c:	4b0c      	ldr	r3, [pc, #48]	@ (8002140 <__NVIC_SetPriorityGrouping+0x44>)
 800210e:	68db      	ldr	r3, [r3, #12]
 8002110:	60bb      	str	r3, [r7, #8]
  reg_value &= ~((uint32_t)(SCB_AIRCR_VECTKEY_Msk | SCB_AIRCR_PRIGROUP_Msk)); /* clear bits to change               */
 8002112:	68ba      	ldr	r2, [r7, #8]
 8002114:	f64f 03ff 	movw	r3, #63743	@ 0xf8ff
 8002118:	4013      	ands	r3, r2
 800211a:	60bb      	str	r3, [r7, #8]
  reg_value  =  (reg_value                                   |
                ((uint32_t)0x5FAUL << SCB_AIRCR_VECTKEY_Pos) |
                (PriorityGroupTmp << SCB_AIRCR_PRIGROUP_Pos) );               /* Insert write key and priority group */
 800211c:	68fb      	ldr	r3, [r7, #12]
 800211e:	021a      	lsls	r2, r3, #8
                ((uint32_t)0x5FAUL << SCB_AIRCR_VECTKEY_Pos) |
 8002120:	68bb      	ldr	r3, [r7, #8]
 8002122:	4313      	orrs	r3, r2
  reg_value  =  (reg_value                                   |
 8002124:	f043 63bf 	orr.w	r3, r3, #100139008	@ 0x5f80000
 8002128:	f443 3300 	orr.w	r3, r3, #131072	@ 0x20000
 800212c:	60bb      	str	r3, [r7, #8]
  SCB->AIRCR =  reg_value;
 800212e:	4a04      	ldr	r2, [pc, #16]	@ (8002140 <__NVIC_SetPriorityGrouping+0x44>)
 8002130:	68bb      	ldr	r3, [r7, #8]
 8002132:	60d3      	str	r3, [r2, #12]
}
 8002134:	bf00      	nop
 8002136:	3714      	adds	r7, #20
 8002138:	46bd      	mov	sp, r7
 800213a:	bc80      	pop	{r7}
 800213c:	4770      	bx	lr
 800213e:	bf00      	nop
 8002140:	e000ed00 	.word	0xe000ed00

08002144 <__NVIC_GetPriorityGrouping>:
  \brief   Get Priority Grouping
  \details Reads the priority grouping field from the NVIC Interrupt Controller.
  \return                Priority grouping field (SCB->AIRCR [10:8] PRIGROUP field).
 */
__STATIC_INLINE uint32_t __NVIC_GetPriorityGrouping(void)
{
 8002144:	b480      	push	{r7}
 8002146:	af00      	add	r7, sp, #0
  return ((uint32_t)((SCB->AIRCR & SCB_AIRCR_PRIGROUP_Msk) >> SCB_AIRCR_PRIGROUP_Pos));
 8002148:	4b04      	ldr	r3, [pc, #16]	@ (800215c <__NVIC_GetPriorityGrouping+0x18>)
 800214a:	68db      	ldr	r3, [r3, #12]
 800214c:	0a1b      	lsrs	r3, r3, #8
 800214e:	f003 0307 	and.w	r3, r3, #7
}
 8002152:	4618      	mov	r0, r3
 8002154:	46bd      	mov	sp, r7
 8002156:	bc80      	pop	{r7}
 8002158:	4770      	bx	lr
 800215a:	bf00      	nop
 800215c:	e000ed00 	.word	0xe000ed00

08002160 <__NVIC_EnableIRQ>:
  \details Enables a device specific interrupt in the NVIC interrupt controller.
  \param [in]      IRQn  Device specific interrupt number.
  \note    IRQn must not be negative.
 */
__STATIC_INLINE void __NVIC_EnableIRQ(IRQn_Type IRQn)
{
 8002160:	b480      	push	{r7}
 8002162:	b083      	sub	sp, #12
 8002164:	af00      	add	r7, sp, #0
 8002166:	4603      	mov	r3, r0
 8002168:	71fb      	strb	r3, [r7, #7]
  if ((int32_t)(IRQn) >= 0)
 800216a:	f997 3007 	ldrsb.w	r3, [r7, #7]
 800216e:	2b00      	cmp	r3, #0
 8002170:	db0b      	blt.n	800218a <__NVIC_EnableIRQ+0x2a>
  {
    NVIC->ISER[(((uint32_t)IRQn) >> 5UL)] = (uint32_t)(1UL << (((uint32_t)IRQn) & 0x1FUL));
 8002172:	79fb      	ldrb	r3, [r7, #7]
 8002174:	f003 021f 	and.w	r2, r3, #31
 8002178:	4906      	ldr	r1, [pc, #24]	@ (8002194 <__NVIC_EnableIRQ+0x34>)
 800217a:	f997 3007 	ldrsb.w	r3, [r7, #7]
 800217e:	095b      	lsrs	r3, r3, #5
 8002180:	2001      	movs	r0, #1
 8002182:	fa00 f202 	lsl.w	r2, r0, r2
 8002186:	f841 2023 	str.w	r2, [r1, r3, lsl #2]
  }
}
 800218a:	bf00      	nop
 800218c:	370c      	adds	r7, #12
 800218e:	46bd      	mov	sp, r7
 8002190:	bc80      	pop	{r7}
 8002192:	4770      	bx	lr
 8002194:	e000e100 	.word	0xe000e100

08002198 <__NVIC_SetPriority>:
  \param [in]      IRQn  Interrupt number.
  \param [in]  priority  Priority to set.
  \note    The priority cannot be set for every processor exception.
 */
__STATIC_INLINE void __NVIC_SetPriority(IRQn_Type IRQn, uint32_t priority)
{
 8002198:	b480      	push	{r7}
 800219a:	b083      	sub	sp, #12
 800219c:	af00      	add	r7, sp, #0
 800219e:	4603      	mov	r3, r0
 80021a0:	6039      	str	r1, [r7, #0]
 80021a2:	71fb      	strb	r3, [r7, #7]
  if ((int32_t)(IRQn) >= 0)
 80021a4:	f997 3007 	ldrsb.w	r3, [r7, #7]
 80021a8:	2b00      	cmp	r3, #0
 80021aa:	db0a      	blt.n	80021c2 <__NVIC_SetPriority+0x2a>
  {
    NVIC->IP[((uint32_t)IRQn)]               = (uint8_t)((priority << (8U - __NVIC_PRIO_BITS)) & (uint32_t)0xFFUL);
 80021ac:	683b      	ldr	r3, [r7, #0]
 80021ae:	b2da      	uxtb	r2, r3
 80021b0:	490c      	ldr	r1, [pc, #48]	@ (80021e4 <__NVIC_SetPriority+0x4c>)
 80021b2:	f997 3007 	ldrsb.w	r3, [r7, #7]
 80021b6:	0112      	lsls	r2, r2, #4
 80021b8:	b2d2      	uxtb	r2, r2
 80021ba:	440b      	add	r3, r1
 80021bc:	f883 2300 	strb.w	r2, [r3, #768]	@ 0x300
  }
  else
  {
    SCB->SHP[(((uint32_t)IRQn) & 0xFUL)-4UL] = (uint8_t)((priority << (8U - __NVIC_PRIO_BITS)) & (uint32_t)0xFFUL);
  }
}
 80021c0:	e00a      	b.n	80021d8 <__NVIC_SetPriority+0x40>
    SCB->SHP[(((uint32_t)IRQn) & 0xFUL)-4UL] = (uint8_t)((priority << (8U - __NVIC_PRIO_BITS)) & (uint32_t)0xFFUL);
 80021c2:	683b      	ldr	r3, [r7, #0]
 80021c4:	b2da      	uxtb	r2, r3
 80021c6:	4908      	ldr	r1, [pc, #32]	@ (80021e8 <__NVIC_SetPriority+0x50>)
 80021c8:	79fb      	ldrb	r3, [r7, #7]
 80021ca:	f003 030f 	and.w	r3, r3, #15
 80021ce:	3b04      	subs	r3, #4
 80021d0:	0112      	lsls	r2, r2, #4
 80021d2:	b2d2      	uxtb	r2, r2
 80021d4:	440b      	add	r3, r1
 80021d6:	761a      	strb	r2, [r3, #24]
}
 80021d8:	bf00      	nop
 80021da:	370c      	adds	r7, #12
 80021dc:	46bd      	mov	sp, r7
 80021de:	bc80      	pop	{r7}
 80021e0:	4770      	bx	lr
 80021e2:	bf00      	nop
 80021e4:	e000e100 	.word	0xe000e100
 80021e8:	e000ed00 	.word	0xe000ed00

080021ec <NVIC_EncodePriority>:
  \param [in]   PreemptPriority  Preemptive priority value (starting from 0).
  \param [in]       SubPriority  Subpriority value (starting from 0).
  \return                        Encoded priority. Value can be used in the function \ref NVIC_SetPriority().
 */
__STATIC_INLINE uint32_t NVIC_EncodePriority (uint32_t PriorityGroup, uint32_t PreemptPriority, uint32_t SubPriority)
{
 80021ec:	b480      	push	{r7}
 80021ee:	b089      	sub	sp, #36	@ 0x24
 80021f0:	af00      	add	r7, sp, #0
 80021f2:	60f8      	str	r0, [r7, #12]
 80021f4:	60b9      	str	r1, [r7, #8]
 80021f6:	607a      	str	r2, [r7, #4]
  uint32_t PriorityGroupTmp = (PriorityGroup & (uint32_t)0x07UL);   /* only values 0..7 are used          */
 80021f8:	68fb      	ldr	r3, [r7, #12]
 80021fa:	f003 0307 	and.w	r3, r3, #7
 80021fe:	61fb      	str	r3, [r7, #28]
  uint32_t PreemptPriorityBits;
  uint32_t SubPriorityBits;

  PreemptPriorityBits = ((7UL - PriorityGroupTmp) > (uint32_t)(__NVIC_PRIO_BITS)) ? (uint32_t)(__NVIC_PRIO_BITS) : (uint32_t)(7UL - PriorityGroupTmp);
 8002200:	69fb      	ldr	r3, [r7, #28]
 8002202:	f1c3 0307 	rsb	r3, r3, #7
 8002206:	2b04      	cmp	r3, #4
 8002208:	bf28      	it	cs
 800220a:	2304      	movcs	r3, #4
 800220c:	61bb      	str	r3, [r7, #24]
  SubPriorityBits     = ((PriorityGroupTmp + (uint32_t)(__NVIC_PRIO_BITS)) < (uint32_t)7UL) ? (uint32_t)0UL : (uint32_t)((PriorityGroupTmp - 7UL) + (uint32_t)(__NVIC_PRIO_BITS));
 800220e:	69fb      	ldr	r3, [r7, #28]
 8002210:	3304      	adds	r3, #4
 8002212:	2b06      	cmp	r3, #6
 8002214:	d902      	bls.n	800221c <NVIC_EncodePriority+0x30>
 8002216:	69fb      	ldr	r3, [r7, #28]
 8002218:	3b03      	subs	r3, #3
 800221a:	e000      	b.n	800221e <NVIC_EncodePriority+0x32>
 800221c:	2300      	movs	r3, #0
 800221e:	617b      	str	r3, [r7, #20]

  return (
           ((PreemptPriority & (uint32_t)((1UL << (PreemptPriorityBits)) - 1UL)) << SubPriorityBits) |
 8002220:	f04f 32ff 	mov.w	r2, #4294967295
 8002224:	69bb      	ldr	r3, [r7, #24]
 8002226:	fa02 f303 	lsl.w	r3, r2, r3
 800222a:	43da      	mvns	r2, r3
 800222c:	68bb      	ldr	r3, [r7, #8]
 800222e:	401a      	ands	r2, r3
 8002230:	697b      	ldr	r3, [r7, #20]
 8002232:	409a      	lsls	r2, r3
           ((SubPriority     & (uint32_t)((1UL << (SubPriorityBits    )) - 1UL)))
 8002234:	f04f 31ff 	mov.w	r1, #4294967295
 8002238:	697b      	ldr	r3, [r7, #20]
 800223a:	fa01 f303 	lsl.w	r3, r1, r3
 800223e:	43d9      	mvns	r1, r3
 8002240:	687b      	ldr	r3, [r7, #4]
 8002242:	400b      	ands	r3, r1
           ((PreemptPriority & (uint32_t)((1UL << (PreemptPriorityBits)) - 1UL)) << SubPriorityBits) |
 8002244:	4313      	orrs	r3, r2
         );
}
 8002246:	4618      	mov	r0, r3
 8002248:	3724      	adds	r7, #36	@ 0x24
 800224a:	46bd      	mov	sp, r7
 800224c:	bc80      	pop	{r7}
 800224e:	4770      	bx	lr

08002250 <SysTick_Config>:
  \note    When the variable <b>__Vendor_SysTickConfig</b> is set to 1, then the
           function <b>SysTick_Config</b> is not included. In this case, the file <b><i>device</i>.h</b>
           must contain a vendor-specific implementation of this function.
 */
__STATIC_INLINE uint32_t SysTick_Config(uint32_t ticks)
{
 8002250:	b580      	push	{r7, lr}
 8002252:	b082      	sub	sp, #8
 8002254:	af00      	add	r7, sp, #0
 8002256:	6078      	str	r0, [r7, #4]
  if ((ticks - 1UL) > SysTick_LOAD_RELOAD_Msk)
 8002258:	687b      	ldr	r3, [r7, #4]
 800225a:	3b01      	subs	r3, #1
 800225c:	f1b3 7f80 	cmp.w	r3, #16777216	@ 0x1000000
 8002260:	d301      	bcc.n	8002266 <SysTick_Config+0x16>
  {
    return (1UL);                                                   /* Reload value impossible */
 8002262:	2301      	movs	r3, #1
 8002264:	e00f      	b.n	8002286 <SysTick_Config+0x36>
  }

  SysTick->LOAD  = (uint32_t)(ticks - 1UL);                         /* set reload register */
 8002266:	4a0a      	ldr	r2, [pc, #40]	@ (8002290 <SysTick_Config+0x40>)
 8002268:	687b      	ldr	r3, [r7, #4]
 800226a:	3b01      	subs	r3, #1
 800226c:	6053      	str	r3, [r2, #4]
  NVIC_SetPriority (SysTick_IRQn, (1UL << __NVIC_PRIO_BITS) - 1UL); /* set Priority for Systick Interrupt */
 800226e:	210f      	movs	r1, #15
 8002270:	f04f 30ff 	mov.w	r0, #4294967295
 8002274:	f7ff ff90 	bl	8002198 <__NVIC_SetPriority>
  SysTick->VAL   = 0UL;                                             /* Load the SysTick Counter Value */
 8002278:	4b05      	ldr	r3, [pc, #20]	@ (8002290 <SysTick_Config+0x40>)
 800227a:	2200      	movs	r2, #0
 800227c:	609a      	str	r2, [r3, #8]
  SysTick->CTRL  = SysTick_CTRL_CLKSOURCE_Msk |
 800227e:	4b04      	ldr	r3, [pc, #16]	@ (8002290 <SysTick_Config+0x40>)
 8002280:	2207      	movs	r2, #7
 8002282:	601a      	str	r2, [r3, #0]
                   SysTick_CTRL_TICKINT_Msk   |
                   SysTick_CTRL_ENABLE_Msk;                         /* Enable SysTick IRQ and SysTick Timer */
  return (0UL);                                                     /* Function successful */
 8002284:	2300      	movs	r3, #0
}
 8002286:	4618      	mov	r0, r3
 8002288:	3708      	adds	r7, #8
 800228a:	46bd      	mov	sp, r7
 800228c:	bd80      	pop	{r7, pc}
 800228e:	bf00      	nop
 8002290:	e000e010 	.word	0xe000e010

08002294 <HAL_NVIC_SetPriorityGrouping>:
  * @note   When the NVIC_PriorityGroup_0 is selected, IRQ preemption is no more possible. 
  *         The pending IRQ priority will be managed only by the subpriority. 
  * @retval None
  */
void HAL_NVIC_SetPriorityGrouping(uint32_t PriorityGroup)
{
 8002294:	b580      	push	{r7, lr}
 8002296:	b082      	sub	sp, #8
 8002298:	af00      	add	r7, sp, #0
 800229a:	6078      	str	r0, [r7, #4]
  /* Check the parameters */
  assert_param(IS_NVIC_PRIORITY_GROUP(PriorityGroup));
  
  /* Set the PRIGROUP[10:8] bits according to the PriorityGroup parameter value */
  NVIC_SetPriorityGrouping(PriorityGroup);
 800229c:	6878      	ldr	r0, [r7, #4]
 800229e:	f7ff ff2d 	bl	80020fc <__NVIC_SetPriorityGrouping>
}
 80022a2:	bf00      	nop
 80022a4:	3708      	adds	r7, #8
 80022a6:	46bd      	mov	sp, r7
 80022a8:	bd80      	pop	{r7, pc}

080022aa <HAL_NVIC_SetPriority>:
  *         This parameter can be a value between 0 and 15
  *         A lower priority value indicates a higher priority.          
  * @retval None
  */
void HAL_NVIC_SetPriority(IRQn_Type IRQn, uint32_t PreemptPriority, uint32_t SubPriority)
{ 
 80022aa:	b580      	push	{r7, lr}
 80022ac:	b086      	sub	sp, #24
 80022ae:	af00      	add	r7, sp, #0
 80022b0:	4603      	mov	r3, r0
 80022b2:	60b9      	str	r1, [r7, #8]
 80022b4:	607a      	str	r2, [r7, #4]
 80022b6:	73fb      	strb	r3, [r7, #15]
  uint32_t prioritygroup = 0x00U;
 80022b8:	2300      	movs	r3, #0
 80022ba:	617b      	str	r3, [r7, #20]
  
  /* Check the parameters */
  assert_param(IS_NVIC_SUB_PRIORITY(SubPriority));
  assert_param(IS_NVIC_PREEMPTION_PRIORITY(PreemptPriority));
  
  prioritygroup = NVIC_GetPriorityGrouping();
 80022bc:	f7ff ff42 	bl	8002144 <__NVIC_GetPriorityGrouping>
 80022c0:	6178      	str	r0, [r7, #20]
  
  NVIC_SetPriority(IRQn, NVIC_EncodePriority(prioritygroup, PreemptPriority, SubPriority));
 80022c2:	687a      	ldr	r2, [r7, #4]
 80022c4:	68b9      	ldr	r1, [r7, #8]
 80022c6:	6978      	ldr	r0, [r7, #20]
 80022c8:	f7ff ff90 	bl	80021ec <NVIC_EncodePriority>
 80022cc:	4602      	mov	r2, r0
 80022ce:	f997 300f 	ldrsb.w	r3, [r7, #15]
 80022d2:	4611      	mov	r1, r2
 80022d4:	4618      	mov	r0, r3
 80022d6:	f7ff ff5f 	bl	8002198 <__NVIC_SetPriority>
}
 80022da:	bf00      	nop
 80022dc:	3718      	adds	r7, #24
 80022de:	46bd      	mov	sp, r7
 80022e0:	bd80      	pop	{r7, pc}

080022e2 <HAL_NVIC_EnableIRQ>:
  *         This parameter can be an enumerator of IRQn_Type enumeration
  *         (For the complete STM32 Devices IRQ Channels list, please refer to the appropriate CMSIS device file (stm32f10xxx.h))
  * @retval None
  */
void HAL_NVIC_EnableIRQ(IRQn_Type IRQn)
{
 80022e2:	b580      	push	{r7, lr}
 80022e4:	b082      	sub	sp, #8
 80022e6:	af00      	add	r7, sp, #0
 80022e8:	4603      	mov	r3, r0
 80022ea:	71fb      	strb	r3, [r7, #7]
  /* Check the parameters */
  assert_param(IS_NVIC_DEVICE_IRQ(IRQn));

  /* Enable interrupt */
  NVIC_EnableIRQ(IRQn);
 80022ec:	f997 3007 	ldrsb.w	r3, [r7, #7]
 80022f0:	4618      	mov	r0, r3
 80022f2:	f7ff ff35 	bl	8002160 <__NVIC_EnableIRQ>
}
 80022f6:	bf00      	nop
 80022f8:	3708      	adds	r7, #8
 80022fa:	46bd      	mov	sp, r7
 80022fc:	bd80      	pop	{r7, pc}

080022fe <HAL_SYSTICK_Config>:
  * @param  TicksNumb: Specifies the ticks Number of ticks between two interrupts.
  * @retval status:  - 0  Function succeeded.
  *                  - 1  Function failed.
  */
uint32_t HAL_SYSTICK_Config(uint32_t TicksNumb)
{
 80022fe:	b580      	push	{r7, lr}
 8002300:	b082      	sub	sp, #8
 8002302:	af00      	add	r7, sp, #0
 8002304:	6078      	str	r0, [r7, #4]
   return SysTick_Config(TicksNumb);
 8002306:	6878      	ldr	r0, [r7, #4]
 8002308:	f7ff ffa2 	bl	8002250 <SysTick_Config>
 800230c:	4603      	mov	r3, r0
}
 800230e:	4618      	mov	r0, r3
 8002310:	3708      	adds	r7, #8
 8002312:	46bd      	mov	sp, r7
 8002314:	bd80      	pop	{r7, pc}
	...

08002318 <HAL_GPIO_Init>:
  * @param  GPIO_Init: pointer to a GPIO_InitTypeDef structure that contains
  *         the configuration information for the specified GPIO peripheral.
  * @retval None
  */
void HAL_GPIO_Init(GPIO_TypeDef  *GPIOx, GPIO_InitTypeDef *GPIO_Init)
{
 8002318:	b480      	push	{r7}
 800231a:	b08b      	sub	sp, #44	@ 0x2c
 800231c:	af00      	add	r7, sp, #0
 800231e:	6078      	str	r0, [r7, #4]
 8002320:	6039      	str	r1, [r7, #0]
  uint32_t position = 0x00u;
 8002322:	2300      	movs	r3, #0
 8002324:	627b      	str	r3, [r7, #36]	@ 0x24
  uint32_t ioposition;
  uint32_t iocurrent;
  uint32_t temp;
  uint32_t config = 0x00u;
 8002326:	2300      	movs	r3, #0
 8002328:	623b      	str	r3, [r7, #32]
  assert_param(IS_GPIO_ALL_INSTANCE(GPIOx));
  assert_param(IS_GPIO_PIN(GPIO_Init->Pin));
  assert_param(IS_GPIO_MODE(GPIO_Init->Mode));

  /* Configure the port pins */
  while (((GPIO_Init->Pin) >> position) != 0x00u)
 800232a:	e169      	b.n	8002600 <HAL_GPIO_Init+0x2e8>
  {
    /* Get the IO position */
    ioposition = (0x01uL << position);
 800232c:	2201      	movs	r2, #1
 800232e:	6a7b      	ldr	r3, [r7, #36]	@ 0x24
 8002330:	fa02 f303 	lsl.w	r3, r2, r3
 8002334:	61fb      	str	r3, [r7, #28]

    /* Get the current IO position */
    iocurrent = (uint32_t)(GPIO_Init->Pin) & ioposition;
 8002336:	683b      	ldr	r3, [r7, #0]
 8002338:	681b      	ldr	r3, [r3, #0]
 800233a:	69fa      	ldr	r2, [r7, #28]
 800233c:	4013      	ands	r3, r2
 800233e:	61bb      	str	r3, [r7, #24]

    if (iocurrent == ioposition)
 8002340:	69ba      	ldr	r2, [r7, #24]
 8002342:	69fb      	ldr	r3, [r7, #28]
 8002344:	429a      	cmp	r2, r3
 8002346:	f040 8158 	bne.w	80025fa <HAL_GPIO_Init+0x2e2>
    {
      /* Check the Alternate function parameters */
      assert_param(IS_GPIO_AF_INSTANCE(GPIOx));

      /* Based on the required mode, filling config variable with MODEy[1:0] and CNFy[3:2] corresponding bits */
      switch (GPIO_Init->Mode)
 800234a:	683b      	ldr	r3, [r7, #0]
 800234c:	685b      	ldr	r3, [r3, #4]
 800234e:	4a9a      	ldr	r2, [pc, #616]	@ (80025b8 <HAL_GPIO_Init+0x2a0>)
 8002350:	4293      	cmp	r3, r2
 8002352:	d05e      	beq.n	8002412 <HAL_GPIO_Init+0xfa>
 8002354:	4a98      	ldr	r2, [pc, #608]	@ (80025b8 <HAL_GPIO_Init+0x2a0>)
 8002356:	4293      	cmp	r3, r2
 8002358:	d875      	bhi.n	8002446 <HAL_GPIO_Init+0x12e>
 800235a:	4a98      	ldr	r2, [pc, #608]	@ (80025bc <HAL_GPIO_Init+0x2a4>)
 800235c:	4293      	cmp	r3, r2
 800235e:	d058      	beq.n	8002412 <HAL_GPIO_Init+0xfa>
 8002360:	4a96      	ldr	r2, [pc, #600]	@ (80025bc <HAL_GPIO_Init+0x2a4>)
 8002362:	4293      	cmp	r3, r2
 8002364:	d86f      	bhi.n	8002446 <HAL_GPIO_Init+0x12e>
 8002366:	4a96      	ldr	r2, [pc, #600]	@ (80025c0 <HAL_GPIO_Init+0x2a8>)
 8002368:	4293      	cmp	r3, r2
 800236a:	d052      	beq.n	8002412 <HAL_GPIO_Init+0xfa>
 800236c:	4a94      	ldr	r2, [pc, #592]	@ (80025c0 <HAL_GPIO_Init+0x2a8>)
 800236e:	4293      	cmp	r3, r2
 8002370:	d869      	bhi.n	8002446 <HAL_GPIO_Init+0x12e>
 8002372:	4a94      	ldr	r2, [pc, #592]	@ (80025c4 <HAL_GPIO_Init+0x2ac>)
 8002374:	4293      	cmp	r3, r2
 8002376:	d04c      	beq.n	8002412 <HAL_GPIO_Init+0xfa>
 8002378:	4a92      	ldr	r2, [pc, #584]	@ (80025c4 <HAL_GPIO_Init+0x2ac>)
 800237a:	4293      	cmp	r3, r2
 800237c:	d863      	bhi.n	8002446 <HAL_GPIO_Init+0x12e>
 800237e:	4a92      	ldr	r2, [pc, #584]	@ (80025c8 <HAL_GPIO_Init+0x2b0>)
 8002380:	4293      	cmp	r3, r2
 8002382:	d046      	beq.n	8002412 <HAL_GPIO_Init+0xfa>
 8002384:	4a90      	ldr	r2, [pc, #576]	@ (80025c8 <HAL_GPIO_Init+0x2b0>)
 8002386:	4293      	cmp	r3, r2
 8002388:	d85d      	bhi.n	8002446 <HAL_GPIO_Init+0x12e>
 800238a:	2b12      	cmp	r3, #18
 800238c:	d82a      	bhi.n	80023e4 <HAL_GPIO_Init+0xcc>
 800238e:	2b12      	cmp	r3, #18
 8002390:	d859      	bhi.n	8002446 <HAL_GPIO_Init+0x12e>
 8002392:	a201      	add	r2, pc, #4	@ (adr r2, 8002398 <HAL_GPIO_Init+0x80>)
 8002394:	f852 f023 	ldr.w	pc, [r2, r3, lsl #2]
 8002398:	08002413 	.word	0x08002413
 800239c:	080023ed 	.word	0x080023ed
 80023a0:	080023ff 	.word	0x080023ff
 80023a4:	08002441 	.word	0x08002441
 80023a8:	08002447 	.word	0x08002447
 80023ac:	08002447 	.word	0x08002447
 80023b0:	08002447 	.word	0x08002447
 80023b4:	08002447 	.word	0x08002447
 80023b8:	08002447 	.word	0x08002447
 80023bc:	08002447 	.word	0x08002447
 80023c0:	08002447 	.word	0x08002447
 80023c4:	08002447 	.word	0x08002447
 80023c8:	08002447 	.word	0x08002447
 80023cc:	08002447 	.word	0x08002447
 80023d0:	08002447 	.word	0x08002447
 80023d4:	08002447 	.word	0x08002447
 80023d8:	08002447 	.word	0x08002447
 80023dc:	080023f5 	.word	0x080023f5
 80023e0:	08002409 	.word	0x08002409
 80023e4:	4a79      	ldr	r2, [pc, #484]	@ (80025cc <HAL_GPIO_Init+0x2b4>)
 80023e6:	4293      	cmp	r3, r2
 80023e8:	d013      	beq.n	8002412 <HAL_GPIO_Init+0xfa>
          config = GPIO_CR_MODE_INPUT + GPIO_CR_CNF_ANALOG;
          break;

        /* Parameters are checked with assert_param */
        default:
          break;
 80023ea:	e02c      	b.n	8002446 <HAL_GPIO_Init+0x12e>
          config = GPIO_Init->Speed + GPIO_CR_CNF_GP_OUTPUT_PP;
 80023ec:	683b      	ldr	r3, [r7, #0]
 80023ee:	68db      	ldr	r3, [r3, #12]
 80023f0:	623b      	str	r3, [r7, #32]
          break;
 80023f2:	e029      	b.n	8002448 <HAL_GPIO_Init+0x130>
          config = GPIO_Init->Speed + GPIO_CR_CNF_GP_OUTPUT_OD;
 80023f4:	683b      	ldr	r3, [r7, #0]
 80023f6:	68db      	ldr	r3, [r3, #12]
 80023f8:	3304      	adds	r3, #4
 80023fa:	623b      	str	r3, [r7, #32]
          break;
 80023fc:	e024      	b.n	8002448 <HAL_GPIO_Init+0x130>
          config = GPIO_Init->Speed + GPIO_CR_CNF_AF_OUTPUT_PP;
 80023fe:	683b      	ldr	r3, [r7, #0]
 8002400:	68db      	ldr	r3, [r3, #12]
 8002402:	3308      	adds	r3, #8
 8002404:	623b      	str	r3, [r7, #32]
          break;
 8002406:	e01f      	b.n	8002448 <HAL_GPIO_Init+0x130>
          config = GPIO_Init->Speed + GPIO_CR_CNF_AF_OUTPUT_OD;
 8002408:	683b      	ldr	r3, [r7, #0]
 800240a:	68db      	ldr	r3, [r3, #12]
 800240c:	330c      	adds	r3, #12
 800240e:	623b      	str	r3, [r7, #32]
          break;
 8002410:	e01a      	b.n	8002448 <HAL_GPIO_Init+0x130>
          if (GPIO_Init->Pull == GPIO_NOPULL)
 8002412:	683b      	ldr	r3, [r7, #0]
 8002414:	689b      	ldr	r3, [r3, #8]
 8002416:	2b00      	cmp	r3, #0
 8002418:	d102      	bne.n	8002420 <HAL_GPIO_Init+0x108>
            config = GPIO_CR_MODE_INPUT + GPIO_CR_CNF_INPUT_FLOATING;
 800241a:	2304      	movs	r3, #4
 800241c:	623b      	str	r3, [r7, #32]
          break;
 800241e:	e013      	b.n	8002448 <HAL_GPIO_Init+0x130>
          else if (GPIO_Init->Pull == GPIO_PULLUP)
 8002420:	683b      	ldr	r3, [r7, #0]
 8002422:	689b      	ldr	r3, [r3, #8]
 8002424:	2b01      	cmp	r3, #1
 8002426:	d105      	bne.n	8002434 <HAL_GPIO_Init+0x11c>
            config = GPIO_CR_MODE_INPUT + GPIO_CR_CNF_INPUT_PU_PD;
 8002428:	2308      	movs	r3, #8
 800242a:	623b      	str	r3, [r7, #32]
            GPIOx->BSRR = ioposition;
 800242c:	687b      	ldr	r3, [r7, #4]
 800242e:	69fa      	ldr	r2, [r7, #28]
 8002430:	611a      	str	r2, [r3, #16]
          break;
 8002432:	e009      	b.n	8002448 <HAL_GPIO_Init+0x130>
            config = GPIO_CR_MODE_INPUT + GPIO_CR_CNF_INPUT_PU_PD;
 8002434:	2308      	movs	r3, #8
 8002436:	623b      	str	r3, [r7, #32]
            GPIOx->BRR = ioposition;
 8002438:	687b      	ldr	r3, [r7, #4]
 800243a:	69fa      	ldr	r2, [r7, #28]
 800243c:	615a      	str	r2, [r3, #20]
          break;
 800243e:	e003      	b.n	8002448 <HAL_GPIO_Init+0x130>
          config = GPIO_CR_MODE_INPUT + GPIO_CR_CNF_ANALOG;
 8002440:	2300      	movs	r3, #0
 8002442:	623b      	str	r3, [r7, #32]
          break;
 8002444:	e000      	b.n	8002448 <HAL_GPIO_Init+0x130>
          break;
 8002446:	bf00      	nop
      }

      /* Check if the current bit belongs to first half or last half of the pin count number
       in order to address CRH or CRL register*/
      configregister = (iocurrent < GPIO_PIN_8) ? &GPIOx->CRL     : &GPIOx->CRH;
 8002448:	69bb      	ldr	r3, [r7, #24]
 800244a:	2bff      	cmp	r3, #255	@ 0xff
 800244c:	d801      	bhi.n	8002452 <HAL_GPIO_Init+0x13a>
 800244e:	687b      	ldr	r3, [r7, #4]
 8002450:	e001      	b.n	8002456 <HAL_GPIO_Init+0x13e>
 8002452:	687b      	ldr	r3, [r7, #4]
 8002454:	3304      	adds	r3, #4
 8002456:	617b      	str	r3, [r7, #20]
      registeroffset = (iocurrent < GPIO_PIN_8) ? (position << 2u) : ((position - 8u) << 2u);
 8002458:	69bb      	ldr	r3, [r7, #24]
 800245a:	2bff      	cmp	r3, #255	@ 0xff
 800245c:	d802      	bhi.n	8002464 <HAL_GPIO_Init+0x14c>
 800245e:	6a7b      	ldr	r3, [r7, #36]	@ 0x24
 8002460:	009b      	lsls	r3, r3, #2
 8002462:	e002      	b.n	800246a <HAL_GPIO_Init+0x152>
 8002464:	6a7b      	ldr	r3, [r7, #36]	@ 0x24
 8002466:	3b08      	subs	r3, #8
 8002468:	009b      	lsls	r3, r3, #2
 800246a:	613b      	str	r3, [r7, #16]

      /* Apply the new configuration of the pin to the register */
      MODIFY_REG((*configregister), ((GPIO_CRL_MODE0 | GPIO_CRL_CNF0) << registeroffset), (config << registeroffset));
 800246c:	697b      	ldr	r3, [r7, #20]
 800246e:	681a      	ldr	r2, [r3, #0]
 8002470:	210f      	movs	r1, #15
 8002472:	693b      	ldr	r3, [r7, #16]
 8002474:	fa01 f303 	lsl.w	r3, r1, r3
 8002478:	43db      	mvns	r3, r3
 800247a:	401a      	ands	r2, r3
 800247c:	6a39      	ldr	r1, [r7, #32]
 800247e:	693b      	ldr	r3, [r7, #16]
 8002480:	fa01 f303 	lsl.w	r3, r1, r3
 8002484:	431a      	orrs	r2, r3
 8002486:	697b      	ldr	r3, [r7, #20]
 8002488:	601a      	str	r2, [r3, #0]

      /*--------------------- EXTI Mode Configuration ------------------------*/
      /* Configure the External Interrupt or event for the current IO */
      if ((GPIO_Init->Mode & EXTI_MODE) == EXTI_MODE)
 800248a:	683b      	ldr	r3, [r7, #0]
 800248c:	685b      	ldr	r3, [r3, #4]
 800248e:	f003 5380 	and.w	r3, r3, #268435456	@ 0x10000000
 8002492:	2b00      	cmp	r3, #0
 8002494:	f000 80b1 	beq.w	80025fa <HAL_GPIO_Init+0x2e2>
      {
        /* Enable AFIO Clock */
        __HAL_RCC_AFIO_CLK_ENABLE();
 8002498:	4b4d      	ldr	r3, [pc, #308]	@ (80025d0 <HAL_GPIO_Init+0x2b8>)
 800249a:	699b      	ldr	r3, [r3, #24]
 800249c:	4a4c      	ldr	r2, [pc, #304]	@ (80025d0 <HAL_GPIO_Init+0x2b8>)
 800249e:	f043 0301 	orr.w	r3, r3, #1
 80024a2:	6193      	str	r3, [r2, #24]
 80024a4:	4b4a      	ldr	r3, [pc, #296]	@ (80025d0 <HAL_GPIO_Init+0x2b8>)
 80024a6:	699b      	ldr	r3, [r3, #24]
 80024a8:	f003 0301 	and.w	r3, r3, #1
 80024ac:	60bb      	str	r3, [r7, #8]
 80024ae:	68bb      	ldr	r3, [r7, #8]
        temp = AFIO->EXTICR[position >> 2u];
 80024b0:	4a48      	ldr	r2, [pc, #288]	@ (80025d4 <HAL_GPIO_Init+0x2bc>)
 80024b2:	6a7b      	ldr	r3, [r7, #36]	@ 0x24
 80024b4:	089b      	lsrs	r3, r3, #2
 80024b6:	3302      	adds	r3, #2
 80024b8:	f852 3023 	ldr.w	r3, [r2, r3, lsl #2]
 80024bc:	60fb      	str	r3, [r7, #12]
        CLEAR_BIT(temp, (0x0Fu) << (4u * (position & 0x03u)));
 80024be:	6a7b      	ldr	r3, [r7, #36]	@ 0x24
 80024c0:	f003 0303 	and.w	r3, r3, #3
 80024c4:	009b      	lsls	r3, r3, #2
 80024c6:	220f      	movs	r2, #15
 80024c8:	fa02 f303 	lsl.w	r3, r2, r3
 80024cc:	43db      	mvns	r3, r3
 80024ce:	68fa      	ldr	r2, [r7, #12]
 80024d0:	4013      	ands	r3, r2
 80024d2:	60fb      	str	r3, [r7, #12]
        SET_BIT(temp, (GPIO_GET_INDEX(GPIOx)) << (4u * (position & 0x03u)));
 80024d4:	687b      	ldr	r3, [r7, #4]
 80024d6:	4a40      	ldr	r2, [pc, #256]	@ (80025d8 <HAL_GPIO_Init+0x2c0>)
 80024d8:	4293      	cmp	r3, r2
 80024da:	d013      	beq.n	8002504 <HAL_GPIO_Init+0x1ec>
 80024dc:	687b      	ldr	r3, [r7, #4]
 80024de:	4a3f      	ldr	r2, [pc, #252]	@ (80025dc <HAL_GPIO_Init+0x2c4>)
 80024e0:	4293      	cmp	r3, r2
 80024e2:	d00d      	beq.n	8002500 <HAL_GPIO_Init+0x1e8>
 80024e4:	687b      	ldr	r3, [r7, #4]
 80024e6:	4a3e      	ldr	r2, [pc, #248]	@ (80025e0 <HAL_GPIO_Init+0x2c8>)
 80024e8:	4293      	cmp	r3, r2
 80024ea:	d007      	beq.n	80024fc <HAL_GPIO_Init+0x1e4>
 80024ec:	687b      	ldr	r3, [r7, #4]
 80024ee:	4a3d      	ldr	r2, [pc, #244]	@ (80025e4 <HAL_GPIO_Init+0x2cc>)
 80024f0:	4293      	cmp	r3, r2
 80024f2:	d101      	bne.n	80024f8 <HAL_GPIO_Init+0x1e0>
 80024f4:	2303      	movs	r3, #3
 80024f6:	e006      	b.n	8002506 <HAL_GPIO_Init+0x1ee>
 80024f8:	2304      	movs	r3, #4
 80024fa:	e004      	b.n	8002506 <HAL_GPIO_Init+0x1ee>
 80024fc:	2302      	movs	r3, #2
 80024fe:	e002      	b.n	8002506 <HAL_GPIO_Init+0x1ee>
 8002500:	2301      	movs	r3, #1
 8002502:	e000      	b.n	8002506 <HAL_GPIO_Init+0x1ee>
 8002504:	2300      	movs	r3, #0
 8002506:	6a7a      	ldr	r2, [r7, #36]	@ 0x24
 8002508:	f002 0203 	and.w	r2, r2, #3
 800250c:	0092      	lsls	r2, r2, #2
 800250e:	4093      	lsls	r3, r2
 8002510:	68fa      	ldr	r2, [r7, #12]
 8002512:	4313      	orrs	r3, r2
 8002514:	60fb      	str	r3, [r7, #12]
        AFIO->EXTICR[position >> 2u] = temp;
 8002516:	492f      	ldr	r1, [pc, #188]	@ (80025d4 <HAL_GPIO_Init+0x2bc>)
 8002518:	6a7b      	ldr	r3, [r7, #36]	@ 0x24
 800251a:	089b      	lsrs	r3, r3, #2
 800251c:	3302      	adds	r3, #2
 800251e:	68fa      	ldr	r2, [r7, #12]
 8002520:	f841 2023 	str.w	r2, [r1, r3, lsl #2]


        /* Enable or disable the rising trigger */
        if ((GPIO_Init->Mode & RISING_EDGE) == RISING_EDGE)
 8002524:	683b      	ldr	r3, [r7, #0]
 8002526:	685b      	ldr	r3, [r3, #4]
 8002528:	f403 1380 	and.w	r3, r3, #1048576	@ 0x100000
 800252c:	2b00      	cmp	r3, #0
 800252e:	d006      	beq.n	800253e <HAL_GPIO_Init+0x226>
        {
          SET_BIT(EXTI->RTSR, iocurrent);
 8002530:	4b2d      	ldr	r3, [pc, #180]	@ (80025e8 <HAL_GPIO_Init+0x2d0>)
 8002532:	689a      	ldr	r2, [r3, #8]
 8002534:	492c      	ldr	r1, [pc, #176]	@ (80025e8 <HAL_GPIO_Init+0x2d0>)
 8002536:	69bb      	ldr	r3, [r7, #24]
 8002538:	4313      	orrs	r3, r2
 800253a:	608b      	str	r3, [r1, #8]
 800253c:	e006      	b.n	800254c <HAL_GPIO_Init+0x234>
        }
        else
        {
          CLEAR_BIT(EXTI->RTSR, iocurrent);
 800253e:	4b2a      	ldr	r3, [pc, #168]	@ (80025e8 <HAL_GPIO_Init+0x2d0>)
 8002540:	689a      	ldr	r2, [r3, #8]
 8002542:	69bb      	ldr	r3, [r7, #24]
 8002544:	43db      	mvns	r3, r3
 8002546:	4928      	ldr	r1, [pc, #160]	@ (80025e8 <HAL_GPIO_Init+0x2d0>)
 8002548:	4013      	ands	r3, r2
 800254a:	608b      	str	r3, [r1, #8]
        }

        /* Enable or disable the falling trigger */
        if ((GPIO_Init->Mode & FALLING_EDGE) == FALLING_EDGE)
 800254c:	683b      	ldr	r3, [r7, #0]
 800254e:	685b      	ldr	r3, [r3, #4]
 8002550:	f403 1300 	and.w	r3, r3, #2097152	@ 0x200000
 8002554:	2b00      	cmp	r3, #0
 8002556:	d006      	beq.n	8002566 <HAL_GPIO_Init+0x24e>
        {
          SET_BIT(EXTI->FTSR, iocurrent);
 8002558:	4b23      	ldr	r3, [pc, #140]	@ (80025e8 <HAL_GPIO_Init+0x2d0>)
 800255a:	68da      	ldr	r2, [r3, #12]
 800255c:	4922      	ldr	r1, [pc, #136]	@ (80025e8 <HAL_GPIO_Init+0x2d0>)
 800255e:	69bb      	ldr	r3, [r7, #24]
 8002560:	4313      	orrs	r3, r2
 8002562:	60cb      	str	r3, [r1, #12]
 8002564:	e006      	b.n	8002574 <HAL_GPIO_Init+0x25c>
        }
        else
        {
          CLEAR_BIT(EXTI->FTSR, iocurrent);
 8002566:	4b20      	ldr	r3, [pc, #128]	@ (80025e8 <HAL_GPIO_Init+0x2d0>)
 8002568:	68da      	ldr	r2, [r3, #12]
 800256a:	69bb      	ldr	r3, [r7, #24]
 800256c:	43db      	mvns	r3, r3
 800256e:	491e      	ldr	r1, [pc, #120]	@ (80025e8 <HAL_GPIO_Init+0x2d0>)
 8002570:	4013      	ands	r3, r2
 8002572:	60cb      	str	r3, [r1, #12]
        }

        /* Configure the event mask */
        if ((GPIO_Init->Mode & GPIO_MODE_EVT) == GPIO_MODE_EVT)
 8002574:	683b      	ldr	r3, [r7, #0]
 8002576:	685b      	ldr	r3, [r3, #4]
 8002578:	f403 3300 	and.w	r3, r3, #131072	@ 0x20000
 800257c:	2b00      	cmp	r3, #0
 800257e:	d006      	beq.n	800258e <HAL_GPIO_Init+0x276>
        {
          SET_BIT(EXTI->EMR, iocurrent);
 8002580:	4b19      	ldr	r3, [pc, #100]	@ (80025e8 <HAL_GPIO_Init+0x2d0>)
 8002582:	685a      	ldr	r2, [r3, #4]
 8002584:	4918      	ldr	r1, [pc, #96]	@ (80025e8 <HAL_GPIO_Init+0x2d0>)
 8002586:	69bb      	ldr	r3, [r7, #24]
 8002588:	4313      	orrs	r3, r2
 800258a:	604b      	str	r3, [r1, #4]
 800258c:	e006      	b.n	800259c <HAL_GPIO_Init+0x284>
        }
        else
        {
          CLEAR_BIT(EXTI->EMR, iocurrent);
 800258e:	4b16      	ldr	r3, [pc, #88]	@ (80025e8 <HAL_GPIO_Init+0x2d0>)
 8002590:	685a      	ldr	r2, [r3, #4]
 8002592:	69bb      	ldr	r3, [r7, #24]
 8002594:	43db      	mvns	r3, r3
 8002596:	4914      	ldr	r1, [pc, #80]	@ (80025e8 <HAL_GPIO_Init+0x2d0>)
 8002598:	4013      	ands	r3, r2
 800259a:	604b      	str	r3, [r1, #4]
        }

        /* Configure the interrupt mask */
        if ((GPIO_Init->Mode & GPIO_MODE_IT) == GPIO_MODE_IT)
 800259c:	683b      	ldr	r3, [r7, #0]
 800259e:	685b      	ldr	r3, [r3, #4]
 80025a0:	f403 3380 	and.w	r3, r3, #65536	@ 0x10000
 80025a4:	2b00      	cmp	r3, #0
 80025a6:	d021      	beq.n	80025ec <HAL_GPIO_Init+0x2d4>
        {
          SET_BIT(EXTI->IMR, iocurrent);
 80025a8:	4b0f      	ldr	r3, [pc, #60]	@ (80025e8 <HAL_GPIO_Init+0x2d0>)
 80025aa:	681a      	ldr	r2, [r3, #0]
 80025ac:	490e      	ldr	r1, [pc, #56]	@ (80025e8 <HAL_GPIO_Init+0x2d0>)
 80025ae:	69bb      	ldr	r3, [r7, #24]
 80025b0:	4313      	orrs	r3, r2
 80025b2:	600b      	str	r3, [r1, #0]
 80025b4:	e021      	b.n	80025fa <HAL_GPIO_Init+0x2e2>
 80025b6:	bf00      	nop
 80025b8:	10320000 	.word	0x10320000
 80025bc:	10310000 	.word	0x10310000
 80025c0:	10220000 	.word	0x10220000
 80025c4:	10210000 	.word	0x10210000
 80025c8:	10120000 	.word	0x10120000
 80025cc:	10110000 	.word	0x10110000
 80025d0:	40021000 	.word	0x40021000
 80025d4:	40010000 	.word	0x40010000
 80025d8:	40010800 	.word	0x40010800
 80025dc:	40010c00 	.word	0x40010c00
 80025e0:	40011000 	.word	0x40011000
 80025e4:	40011400 	.word	0x40011400
 80025e8:	40010400 	.word	0x40010400
        }
        else
        {
          CLEAR_BIT(EXTI->IMR, iocurrent);
 80025ec:	4b0b      	ldr	r3, [pc, #44]	@ (800261c <HAL_GPIO_Init+0x304>)
 80025ee:	681a      	ldr	r2, [r3, #0]
 80025f0:	69bb      	ldr	r3, [r7, #24]
 80025f2:	43db      	mvns	r3, r3
 80025f4:	4909      	ldr	r1, [pc, #36]	@ (800261c <HAL_GPIO_Init+0x304>)
 80025f6:	4013      	ands	r3, r2
 80025f8:	600b      	str	r3, [r1, #0]
        }
      }
    }

	position++;
 80025fa:	6a7b      	ldr	r3, [r7, #36]	@ 0x24
 80025fc:	3301      	adds	r3, #1
 80025fe:	627b      	str	r3, [r7, #36]	@ 0x24
  while (((GPIO_Init->Pin) >> position) != 0x00u)
 8002600:	683b      	ldr	r3, [r7, #0]
 8002602:	681a      	ldr	r2, [r3, #0]
 8002604:	6a7b      	ldr	r3, [r7, #36]	@ 0x24
 8002606:	fa22 f303 	lsr.w	r3, r2, r3
 800260a:	2b00      	cmp	r3, #0
 800260c:	f47f ae8e 	bne.w	800232c <HAL_GPIO_Init+0x14>
  }
}
 8002610:	bf00      	nop
 8002612:	bf00      	nop
 8002614:	372c      	adds	r7, #44	@ 0x2c
 8002616:	46bd      	mov	sp, r7
 8002618:	bc80      	pop	{r7}
 800261a:	4770      	bx	lr
 800261c:	40010400 	.word	0x40010400

08002620 <HAL_GPIO_WritePin>:
  *            @arg GPIO_PIN_RESET: to clear the port pin
  *            @arg GPIO_PIN_SET: to set the port pin
  * @retval None
  */
void HAL_GPIO_WritePin(GPIO_TypeDef *GPIOx, uint16_t GPIO_Pin, GPIO_PinState PinState)
{
 8002620:	b480      	push	{r7}
 8002622:	b083      	sub	sp, #12
 8002624:	af00      	add	r7, sp, #0
 8002626:	6078      	str	r0, [r7, #4]
 8002628:	460b      	mov	r3, r1
 800262a:	807b      	strh	r3, [r7, #2]
 800262c:	4613      	mov	r3, r2
 800262e:	707b      	strb	r3, [r7, #1]
  /* Check the parameters */
  assert_param(IS_GPIO_PIN(GPIO_Pin));
  assert_param(IS_GPIO_PIN_ACTION(PinState));

  if (PinState != GPIO_PIN_RESET)
 8002630:	787b      	ldrb	r3, [r7, #1]
 8002632:	2b00      	cmp	r3, #0
 8002634:	d003      	beq.n	800263e <HAL_GPIO_WritePin+0x1e>
  {
    GPIOx->BSRR = GPIO_Pin;
 8002636:	887a      	ldrh	r2, [r7, #2]
 8002638:	687b      	ldr	r3, [r7, #4]
 800263a:	611a      	str	r2, [r3, #16]
  }
  else
  {
    GPIOx->BSRR = (uint32_t)GPIO_Pin << 16u;
  }
}
 800263c:	e003      	b.n	8002646 <HAL_GPIO_WritePin+0x26>
    GPIOx->BSRR = (uint32_t)GPIO_Pin << 16u;
 800263e:	887b      	ldrh	r3, [r7, #2]
 8002640:	041a      	lsls	r2, r3, #16
 8002642:	687b      	ldr	r3, [r7, #4]
 8002644:	611a      	str	r2, [r3, #16]
}
 8002646:	bf00      	nop
 8002648:	370c      	adds	r7, #12
 800264a:	46bd      	mov	sp, r7
 800264c:	bc80      	pop	{r7}
 800264e:	4770      	bx	lr

08002650 <HAL_GPIO_EXTI_IRQHandler>:
  * @brief  This function handles EXTI interrupt request.
  * @param  GPIO_Pin: Specifies the pins connected EXTI line
  * @retval None
  */
void HAL_GPIO_EXTI_IRQHandler(uint16_t GPIO_Pin)
{
 8002650:	b580      	push	{r7, lr}
 8002652:	b082      	sub	sp, #8
 8002654:	af00      	add	r7, sp, #0
 8002656:	4603      	mov	r3, r0
 8002658:	80fb      	strh	r3, [r7, #6]
  /* EXTI line interrupt detected */
  if (__HAL_GPIO_EXTI_GET_IT(GPIO_Pin) != 0x00u)
 800265a:	4b08      	ldr	r3, [pc, #32]	@ (800267c <HAL_GPIO_EXTI_IRQHandler+0x2c>)
 800265c:	695a      	ldr	r2, [r3, #20]
 800265e:	88fb      	ldrh	r3, [r7, #6]
 8002660:	4013      	ands	r3, r2
 8002662:	2b00      	cmp	r3, #0
 8002664:	d006      	beq.n	8002674 <HAL_GPIO_EXTI_IRQHandler+0x24>
  {
    __HAL_GPIO_EXTI_CLEAR_IT(GPIO_Pin);
 8002666:	4a05      	ldr	r2, [pc, #20]	@ (800267c <HAL_GPIO_EXTI_IRQHandler+0x2c>)
 8002668:	88fb      	ldrh	r3, [r7, #6]
 800266a:	6153      	str	r3, [r2, #20]
    HAL_GPIO_EXTI_Callback(GPIO_Pin);
 800266c:	88fb      	ldrh	r3, [r7, #6]
 800266e:	4618      	mov	r0, r3
 8002670:	f000 f806 	bl	8002680 <HAL_GPIO_EXTI_Callback>
  }
}
 8002674:	bf00      	nop
 8002676:	3708      	adds	r7, #8
 8002678:	46bd      	mov	sp, r7
 800267a:	bd80      	pop	{r7, pc}
 800267c:	40010400 	.word	0x40010400

08002680 <HAL_GPIO_EXTI_Callback>:
  * @brief  EXTI line detection callbacks.
  * @param  GPIO_Pin: Specifies the pins connected EXTI line
  * @retval None
  */
__weak void HAL_GPIO_EXTI_Callback(uint16_t GPIO_Pin)
{
 8002680:	b480      	push	{r7}
 8002682:	b083      	sub	sp, #12
 8002684:	af00      	add	r7, sp, #0
 8002686:	4603      	mov	r3, r0
 8002688:	80fb      	strh	r3, [r7, #6]
  /* Prevent unused argument(s) compilation warning */
  UNUSED(GPIO_Pin);
  /* NOTE: This function Should not be modified, when the callback is needed,
           the HAL_GPIO_EXTI_Callback could be implemented in the user file
   */
}
 800268a:	bf00      	nop
 800268c:	370c      	adds	r7, #12
 800268e:	46bd      	mov	sp, r7
 8002690:	bc80      	pop	{r7}
 8002692:	4770      	bx	lr

08002694 <HAL_RCC_OscConfig>:
  *         supported by this macro. User should request a transition to HSE Off
  *         first and then HSE On or HSE Bypass.
  * @retval HAL status
  */
HAL_StatusTypeDef HAL_RCC_OscConfig(RCC_OscInitTypeDef  *RCC_OscInitStruct)
{
 8002694:	b580      	push	{r7, lr}
 8002696:	b086      	sub	sp, #24
 8002698:	af00      	add	r7, sp, #0
 800269a:	6078      	str	r0, [r7, #4]
  uint32_t tickstart;
  uint32_t pll_config;

  /* Check Null pointer */
  if (RCC_OscInitStruct == NULL)
 800269c:	687b      	ldr	r3, [r7, #4]
 800269e:	2b00      	cmp	r3, #0
 80026a0:	d101      	bne.n	80026a6 <HAL_RCC_OscConfig+0x12>
  {
    return HAL_ERROR;
 80026a2:	2301      	movs	r3, #1
 80026a4:	e272      	b.n	8002b8c <HAL_RCC_OscConfig+0x4f8>

  /* Check the parameters */
  assert_param(IS_RCC_OSCILLATORTYPE(RCC_OscInitStruct->OscillatorType));

  /*------------------------------- HSE Configuration ------------------------*/
  if (((RCC_OscInitStruct->OscillatorType) & RCC_OSCILLATORTYPE_HSE) == RCC_OSCILLATORTYPE_HSE)
 80026a6:	687b      	ldr	r3, [r7, #4]
 80026a8:	681b      	ldr	r3, [r3, #0]
 80026aa:	f003 0301 	and.w	r3, r3, #1
 80026ae:	2b00      	cmp	r3, #0
 80026b0:	f000 8087 	beq.w	80027c2 <HAL_RCC_OscConfig+0x12e>
  {
    /* Check the parameters */
    assert_param(IS_RCC_HSE(RCC_OscInitStruct->HSEState));

    /* When the HSE is used as system clock or clock source for PLL in these cases it is not allowed to be disabled */
    if ((__HAL_RCC_GET_SYSCLK_SOURCE() == RCC_SYSCLKSOURCE_STATUS_HSE)
 80026b4:	4b92      	ldr	r3, [pc, #584]	@ (8002900 <HAL_RCC_OscConfig+0x26c>)
 80026b6:	685b      	ldr	r3, [r3, #4]
 80026b8:	f003 030c 	and.w	r3, r3, #12
 80026bc:	2b04      	cmp	r3, #4
 80026be:	d00c      	beq.n	80026da <HAL_RCC_OscConfig+0x46>
        || ((__HAL_RCC_GET_SYSCLK_SOURCE() == RCC_SYSCLKSOURCE_STATUS_PLLCLK) && (__HAL_RCC_GET_PLL_OSCSOURCE() == RCC_PLLSOURCE_HSE)))
 80026c0:	4b8f      	ldr	r3, [pc, #572]	@ (8002900 <HAL_RCC_OscConfig+0x26c>)
 80026c2:	685b      	ldr	r3, [r3, #4]
 80026c4:	f003 030c 	and.w	r3, r3, #12
 80026c8:	2b08      	cmp	r3, #8
 80026ca:	d112      	bne.n	80026f2 <HAL_RCC_OscConfig+0x5e>
 80026cc:	4b8c      	ldr	r3, [pc, #560]	@ (8002900 <HAL_RCC_OscConfig+0x26c>)
 80026ce:	685b      	ldr	r3, [r3, #4]
 80026d0:	f403 3380 	and.w	r3, r3, #65536	@ 0x10000
 80026d4:	f5b3 3f80 	cmp.w	r3, #65536	@ 0x10000
 80026d8:	d10b      	bne.n	80026f2 <HAL_RCC_OscConfig+0x5e>
    {
      if ((__HAL_RCC_GET_FLAG(RCC_FLAG_HSERDY) != RESET) && (RCC_OscInitStruct->HSEState == RCC_HSE_OFF))
 80026da:	4b89      	ldr	r3, [pc, #548]	@ (8002900 <HAL_RCC_OscConfig+0x26c>)
 80026dc:	681b      	ldr	r3, [r3, #0]
 80026de:	f403 3300 	and.w	r3, r3, #131072	@ 0x20000
 80026e2:	2b00      	cmp	r3, #0
 80026e4:	d06c      	beq.n	80027c0 <HAL_RCC_OscConfig+0x12c>
 80026e6:	687b      	ldr	r3, [r7, #4]
 80026e8:	685b      	ldr	r3, [r3, #4]
 80026ea:	2b00      	cmp	r3, #0
 80026ec:	d168      	bne.n	80027c0 <HAL_RCC_OscConfig+0x12c>
      {
        return HAL_ERROR;
 80026ee:	2301      	movs	r3, #1
 80026f0:	e24c      	b.n	8002b8c <HAL_RCC_OscConfig+0x4f8>
      }
    }
    else
    {
      /* Set the new HSE configuration ---------------------------------------*/
      __HAL_RCC_HSE_CONFIG(RCC_OscInitStruct->HSEState);
 80026f2:	687b      	ldr	r3, [r7, #4]
 80026f4:	685b      	ldr	r3, [r3, #4]
 80026f6:	f5b3 3f80 	cmp.w	r3, #65536	@ 0x10000
 80026fa:	d106      	bne.n	800270a <HAL_RCC_OscConfig+0x76>
 80026fc:	4b80      	ldr	r3, [pc, #512]	@ (8002900 <HAL_RCC_OscConfig+0x26c>)
 80026fe:	681b      	ldr	r3, [r3, #0]
 8002700:	4a7f      	ldr	r2, [pc, #508]	@ (8002900 <HAL_RCC_OscConfig+0x26c>)
 8002702:	f443 3380 	orr.w	r3, r3, #65536	@ 0x10000
 8002706:	6013      	str	r3, [r2, #0]
 8002708:	e02e      	b.n	8002768 <HAL_RCC_OscConfig+0xd4>
 800270a:	687b      	ldr	r3, [r7, #4]
 800270c:	685b      	ldr	r3, [r3, #4]
 800270e:	2b00      	cmp	r3, #0
 8002710:	d10c      	bne.n	800272c <HAL_RCC_OscConfig+0x98>
 8002712:	4b7b      	ldr	r3, [pc, #492]	@ (8002900 <HAL_RCC_OscConfig+0x26c>)
 8002714:	681b      	ldr	r3, [r3, #0]
 8002716:	4a7a      	ldr	r2, [pc, #488]	@ (8002900 <HAL_RCC_OscConfig+0x26c>)
 8002718:	f423 3380 	bic.w	r3, r3, #65536	@ 0x10000
 800271c:	6013      	str	r3, [r2, #0]
 800271e:	4b78      	ldr	r3, [pc, #480]	@ (8002900 <HAL_RCC_OscConfig+0x26c>)
 8002720:	681b      	ldr	r3, [r3, #0]
 8002722:	4a77      	ldr	r2, [pc, #476]	@ (8002900 <HAL_RCC_OscConfig+0x26c>)
 8002724:	f423 2380 	bic.w	r3, r3, #262144	@ 0x40000
 8002728:	6013      	str	r3, [r2, #0]
 800272a:	e01d      	b.n	8002768 <HAL_RCC_OscConfig+0xd4>
 800272c:	687b      	ldr	r3, [r7, #4]
 800272e:	685b      	ldr	r3, [r3, #4]
 8002730:	f5b3 2fa0 	cmp.w	r3, #327680	@ 0x50000
 8002734:	d10c      	bne.n	8002750 <HAL_RCC_OscConfig+0xbc>
 8002736:	4b72      	ldr	r3, [pc, #456]	@ (8002900 <HAL_RCC_OscConfig+0x26c>)
 8002738:	681b      	ldr	r3, [r3, #0]
 800273a:	4a71      	ldr	r2, [pc, #452]	@ (8002900 <HAL_RCC_OscConfig+0x26c>)
 800273c:	f443 2380 	orr.w	r3, r3, #262144	@ 0x40000
 8002740:	6013      	str	r3, [r2, #0]
 8002742:	4b6f      	ldr	r3, [pc, #444]	@ (8002900 <HAL_RCC_OscConfig+0x26c>)
 8002744:	681b      	ldr	r3, [r3, #0]
 8002746:	4a6e      	ldr	r2, [pc, #440]	@ (8002900 <HAL_RCC_OscConfig+0x26c>)
 8002748:	f443 3380 	orr.w	r3, r3, #65536	@ 0x10000
 800274c:	6013      	str	r3, [r2, #0]
 800274e:	e00b      	b.n	8002768 <HAL_RCC_OscConfig+0xd4>
 8002750:	4b6b      	ldr	r3, [pc, #428]	@ (8002900 <HAL_RCC_OscConfig+0x26c>)
 8002752:	681b      	ldr	r3, [r3, #0]
 8002754:	4a6a      	ldr	r2, [pc, #424]	@ (8002900 <HAL_RCC_OscConfig+0x26c>)
 8002756:	f423 3380 	bic.w	r3, r3, #65536	@ 0x10000
 800275a:	6013      	str	r3, [r2, #0]
 800275c:	4b68      	ldr	r3, [pc, #416]	@ (8002900 <HAL_RCC_OscConfig+0x26c>)
 800275e:	681b      	ldr	r3, [r3, #0]
 8002760:	4a67      	ldr	r2, [pc, #412]	@ (8002900 <HAL_RCC_OscConfig+0x26c>)
 8002762:	f423 2380 	bic.w	r3, r3, #262144	@ 0x40000
 8002766:	6013      	str	r3, [r2, #0]


      /* Check the HSE State */
      if (RCC_OscInitStruct->HSEState != RCC_HSE_OFF)
 8002768:	687b      	ldr	r3, [r7, #4]
 800276a:	685b      	ldr	r3, [r3, #4]
 800276c:	2b00      	cmp	r3, #0
 800276e:	d013      	beq.n	8002798 <HAL_RCC_OscConfig+0x104>
      {
        /* Get Start Tick */
        tickstart = HAL_GetTick();
 8002770:	f7fe ffbc 	bl	80016ec <HAL_GetTick>
 8002774:	6138      	str	r0, [r7, #16]

        /* Wait till HSE is ready */
        while (__HAL_RCC_GET_FLAG(RCC_FLAG_HSERDY) == RESET)
 8002776:	e008      	b.n	800278a <HAL_RCC_OscConfig+0xf6>
        {
          if ((HAL_GetTick() - tickstart) > HSE_TIMEOUT_VALUE)
 8002778:	f7fe ffb8 	bl	80016ec <HAL_GetTick>
 800277c:	4602      	mov	r2, r0
 800277e:	693b      	ldr	r3, [r7, #16]
 8002780:	1ad3      	subs	r3, r2, r3
 8002782:	2b64      	cmp	r3, #100	@ 0x64
 8002784:	d901      	bls.n	800278a <HAL_RCC_OscConfig+0xf6>
          {
            return HAL_TIMEOUT;
 8002786:	2303      	movs	r3, #3
 8002788:	e200      	b.n	8002b8c <HAL_RCC_OscConfig+0x4f8>
        while (__HAL_RCC_GET_FLAG(RCC_FLAG_HSERDY) == RESET)
 800278a:	4b5d      	ldr	r3, [pc, #372]	@ (8002900 <HAL_RCC_OscConfig+0x26c>)
 800278c:	681b      	ldr	r3, [r3, #0]
 800278e:	f403 3300 	and.w	r3, r3, #131072	@ 0x20000
 8002792:	2b00      	cmp	r3, #0
 8002794:	d0f0      	beq.n	8002778 <HAL_RCC_OscConfig+0xe4>
 8002796:	e014      	b.n	80027c2 <HAL_RCC_OscConfig+0x12e>
        }
      }
      else
      {
        /* Get Start Tick */
        tickstart = HAL_GetTick();
 8002798:	f7fe ffa8 	bl	80016ec <HAL_GetTick>
 800279c:	6138      	str	r0, [r7, #16]

        /* Wait till HSE is disabled */
        while (__HAL_RCC_GET_FLAG(RCC_FLAG_HSERDY) != RESET)
 800279e:	e008      	b.n	80027b2 <HAL_RCC_OscConfig+0x11e>
        {
          if ((HAL_GetTick() - tickstart) > HSE_TIMEOUT_VALUE)
 80027a0:	f7fe ffa4 	bl	80016ec <HAL_GetTick>
 80027a4:	4602      	mov	r2, r0
 80027a6:	693b      	ldr	r3, [r7, #16]
 80027a8:	1ad3      	subs	r3, r2, r3
 80027aa:	2b64      	cmp	r3, #100	@ 0x64
 80027ac:	d901      	bls.n	80027b2 <HAL_RCC_OscConfig+0x11e>
          {
            return HAL_TIMEOUT;
 80027ae:	2303      	movs	r3, #3
 80027b0:	e1ec      	b.n	8002b8c <HAL_RCC_OscConfig+0x4f8>
        while (__HAL_RCC_GET_FLAG(RCC_FLAG_HSERDY) != RESET)
 80027b2:	4b53      	ldr	r3, [pc, #332]	@ (8002900 <HAL_RCC_OscConfig+0x26c>)
 80027b4:	681b      	ldr	r3, [r3, #0]
 80027b6:	f403 3300 	and.w	r3, r3, #131072	@ 0x20000
 80027ba:	2b00      	cmp	r3, #0
 80027bc:	d1f0      	bne.n	80027a0 <HAL_RCC_OscConfig+0x10c>
 80027be:	e000      	b.n	80027c2 <HAL_RCC_OscConfig+0x12e>
      if ((__HAL_RCC_GET_FLAG(RCC_FLAG_HSERDY) != RESET) && (RCC_OscInitStruct->HSEState == RCC_HSE_OFF))
 80027c0:	bf00      	nop
        }
      }
    }
  }
  /*----------------------------- HSI Configuration --------------------------*/
  if (((RCC_OscInitStruct->OscillatorType) & RCC_OSCILLATORTYPE_HSI) == RCC_OSCILLATORTYPE_HSI)
 80027c2:	687b      	ldr	r3, [r7, #4]
 80027c4:	681b      	ldr	r3, [r3, #0]
 80027c6:	f003 0302 	and.w	r3, r3, #2
 80027ca:	2b00      	cmp	r3, #0
 80027cc:	d063      	beq.n	8002896 <HAL_RCC_OscConfig+0x202>
    /* Check the parameters */
    assert_param(IS_RCC_HSI(RCC_OscInitStruct->HSIState));
    assert_param(IS_RCC_CALIBRATION_VALUE(RCC_OscInitStruct->HSICalibrationValue));

    /* Check if HSI is used as system clock or as PLL source when PLL is selected as system clock */
    if ((__HAL_RCC_GET_SYSCLK_SOURCE() == RCC_SYSCLKSOURCE_STATUS_HSI)
 80027ce:	4b4c      	ldr	r3, [pc, #304]	@ (8002900 <HAL_RCC_OscConfig+0x26c>)
 80027d0:	685b      	ldr	r3, [r3, #4]
 80027d2:	f003 030c 	and.w	r3, r3, #12
 80027d6:	2b00      	cmp	r3, #0
 80027d8:	d00b      	beq.n	80027f2 <HAL_RCC_OscConfig+0x15e>
        || ((__HAL_RCC_GET_SYSCLK_SOURCE() == RCC_SYSCLKSOURCE_STATUS_PLLCLK) && (__HAL_RCC_GET_PLL_OSCSOURCE() == RCC_PLLSOURCE_HSI_DIV2)))
 80027da:	4b49      	ldr	r3, [pc, #292]	@ (8002900 <HAL_RCC_OscConfig+0x26c>)
 80027dc:	685b      	ldr	r3, [r3, #4]
 80027de:	f003 030c 	and.w	r3, r3, #12
 80027e2:	2b08      	cmp	r3, #8
 80027e4:	d11c      	bne.n	8002820 <HAL_RCC_OscConfig+0x18c>
 80027e6:	4b46      	ldr	r3, [pc, #280]	@ (8002900 <HAL_RCC_OscConfig+0x26c>)
 80027e8:	685b      	ldr	r3, [r3, #4]
 80027ea:	f403 3380 	and.w	r3, r3, #65536	@ 0x10000
 80027ee:	2b00      	cmp	r3, #0
 80027f0:	d116      	bne.n	8002820 <HAL_RCC_OscConfig+0x18c>
    {
      /* When HSI is used as system clock it will not disabled */
      if ((__HAL_RCC_GET_FLAG(RCC_FLAG_HSIRDY) != RESET) && (RCC_OscInitStruct->HSIState != RCC_HSI_ON))
 80027f2:	4b43      	ldr	r3, [pc, #268]	@ (8002900 <HAL_RCC_OscConfig+0x26c>)
 80027f4:	681b      	ldr	r3, [r3, #0]
 80027f6:	f003 0302 	and.w	r3, r3, #2
 80027fa:	2b00      	cmp	r3, #0
 80027fc:	d005      	beq.n	800280a <HAL_RCC_OscConfig+0x176>
 80027fe:	687b      	ldr	r3, [r7, #4]
 8002800:	691b      	ldr	r3, [r3, #16]
 8002802:	2b01      	cmp	r3, #1
 8002804:	d001      	beq.n	800280a <HAL_RCC_OscConfig+0x176>
      {
        return HAL_ERROR;
 8002806:	2301      	movs	r3, #1
 8002808:	e1c0      	b.n	8002b8c <HAL_RCC_OscConfig+0x4f8>
      }
      /* Otherwise, just the calibration is allowed */
      else
      {
        /* Adjusts the Internal High Speed oscillator (HSI) calibration value.*/
        __HAL_RCC_HSI_CALIBRATIONVALUE_ADJUST(RCC_OscInitStruct->HSICalibrationValue);
 800280a:	4b3d      	ldr	r3, [pc, #244]	@ (8002900 <HAL_RCC_OscConfig+0x26c>)
 800280c:	681b      	ldr	r3, [r3, #0]
 800280e:	f023 02f8 	bic.w	r2, r3, #248	@ 0xf8
 8002812:	687b      	ldr	r3, [r7, #4]
 8002814:	695b      	ldr	r3, [r3, #20]
 8002816:	00db      	lsls	r3, r3, #3
 8002818:	4939      	ldr	r1, [pc, #228]	@ (8002900 <HAL_RCC_OscConfig+0x26c>)
 800281a:	4313      	orrs	r3, r2
 800281c:	600b      	str	r3, [r1, #0]
      if ((__HAL_RCC_GET_FLAG(RCC_FLAG_HSIRDY) != RESET) && (RCC_OscInitStruct->HSIState != RCC_HSI_ON))
 800281e:	e03a      	b.n	8002896 <HAL_RCC_OscConfig+0x202>
      }
    }
    else
    {
      /* Check the HSI State */
      if (RCC_OscInitStruct->HSIState != RCC_HSI_OFF)
 8002820:	687b      	ldr	r3, [r7, #4]
 8002822:	691b      	ldr	r3, [r3, #16]
 8002824:	2b00      	cmp	r3, #0
 8002826:	d020      	beq.n	800286a <HAL_RCC_OscConfig+0x1d6>
      {
        /* Enable the Internal High Speed oscillator (HSI). */
        __HAL_RCC_HSI_ENABLE();
 8002828:	4b36      	ldr	r3, [pc, #216]	@ (8002904 <HAL_RCC_OscConfig+0x270>)
 800282a:	2201      	movs	r2, #1
 800282c:	601a      	str	r2, [r3, #0]

        /* Get Start Tick */
        tickstart = HAL_GetTick();
 800282e:	f7fe ff5d 	bl	80016ec <HAL_GetTick>
 8002832:	6138      	str	r0, [r7, #16]

        /* Wait till HSI is ready */
        while (__HAL_RCC_GET_FLAG(RCC_FLAG_HSIRDY) == RESET)
 8002834:	e008      	b.n	8002848 <HAL_RCC_OscConfig+0x1b4>
        {
          if ((HAL_GetTick() - tickstart) > HSI_TIMEOUT_VALUE)
 8002836:	f7fe ff59 	bl	80016ec <HAL_GetTick>
 800283a:	4602      	mov	r2, r0
 800283c:	693b      	ldr	r3, [r7, #16]
 800283e:	1ad3      	subs	r3, r2, r3
 8002840:	2b02      	cmp	r3, #2
 8002842:	d901      	bls.n	8002848 <HAL_RCC_OscConfig+0x1b4>
          {
            return HAL_TIMEOUT;
 8002844:	2303      	movs	r3, #3
 8002846:	e1a1      	b.n	8002b8c <HAL_RCC_OscConfig+0x4f8>
        while (__HAL_RCC_GET_FLAG(RCC_FLAG_HSIRDY) == RESET)
 8002848:	4b2d      	ldr	r3, [pc, #180]	@ (8002900 <HAL_RCC_OscConfig+0x26c>)
 800284a:	681b      	ldr	r3, [r3, #0]
 800284c:	f003 0302 	and.w	r3, r3, #2
 8002850:	2b00      	cmp	r3, #0
 8002852:	d0f0      	beq.n	8002836 <HAL_RCC_OscConfig+0x1a2>
          }
        }

        /* Adjusts the Internal High Speed oscillator (HSI) calibration value.*/
        __HAL_RCC_HSI_CALIBRATIONVALUE_ADJUST(RCC_OscInitStruct->HSICalibrationValue);
 8002854:	4b2a      	ldr	r3, [pc, #168]	@ (8002900 <HAL_RCC_OscConfig+0x26c>)
 8002856:	681b      	ldr	r3, [r3, #0]
 8002858:	f023 02f8 	bic.w	r2, r3, #248	@ 0xf8
 800285c:	687b      	ldr	r3, [r7, #4]
 800285e:	695b      	ldr	r3, [r3, #20]
 8002860:	00db      	lsls	r3, r3, #3
 8002862:	4927      	ldr	r1, [pc, #156]	@ (8002900 <HAL_RCC_OscConfig+0x26c>)
 8002864:	4313      	orrs	r3, r2
 8002866:	600b      	str	r3, [r1, #0]
 8002868:	e015      	b.n	8002896 <HAL_RCC_OscConfig+0x202>
      }
      else
      {
        /* Disable the Internal High Speed oscillator (HSI). */
        __HAL_RCC_HSI_DISABLE();
 800286a:	4b26      	ldr	r3, [pc, #152]	@ (8002904 <HAL_RCC_OscConfig+0x270>)
 800286c:	2200      	movs	r2, #0
 800286e:	601a      	str	r2, [r3, #0]

        /* Get Start Tick */
        tickstart = HAL_GetTick();
 8002870:	f7fe ff3c 	bl	80016ec <HAL_GetTick>
 8002874:	6138      	str	r0, [r7, #16]

        /* Wait till HSI is disabled */
        while (__HAL_RCC_GET_FLAG(RCC_FLAG_HSIRDY) != RESET)
 8002876:	e008      	b.n	800288a <HAL_RCC_OscConfig+0x1f6>
        {
          if ((HAL_GetTick() - tickstart) > HSI_TIMEOUT_VALUE)
 8002878:	f7fe ff38 	bl	80016ec <HAL_GetTick>
 800287c:	4602      	mov	r2, r0
 800287e:	693b      	ldr	r3, [r7, #16]
 8002880:	1ad3      	subs	r3, r2, r3
 8002882:	2b02      	cmp	r3, #2
 8002884:	d901      	bls.n	800288a <HAL_RCC_OscConfig+0x1f6>
          {
            return HAL_TIMEOUT;
 8002886:	2303      	movs	r3, #3
 8002888:	e180      	b.n	8002b8c <HAL_RCC_OscConfig+0x4f8>
        while (__HAL_RCC_GET_FLAG(RCC_FLAG_HSIRDY) != RESET)
 800288a:	4b1d      	ldr	r3, [pc, #116]	@ (8002900 <HAL_RCC_OscConfig+0x26c>)
 800288c:	681b      	ldr	r3, [r3, #0]
 800288e:	f003 0302 	and.w	r3, r3, #2
 8002892:	2b00      	cmp	r3, #0
 8002894:	d1f0      	bne.n	8002878 <HAL_RCC_OscConfig+0x1e4>
        }
      }
    }
  }
  /*------------------------------ LSI Configuration -------------------------*/
  if (((RCC_OscInitStruct->OscillatorType) & RCC_OSCILLATORTYPE_LSI) == RCC_OSCILLATORTYPE_LSI)
 8002896:	687b      	ldr	r3, [r7, #4]
 8002898:	681b      	ldr	r3, [r3, #0]
 800289a:	f003 0308 	and.w	r3, r3, #8
 800289e:	2b00      	cmp	r3, #0
 80028a0:	d03a      	beq.n	8002918 <HAL_RCC_OscConfig+0x284>
  {
    /* Check the parameters */
    assert_param(IS_RCC_LSI(RCC_OscInitStruct->LSIState));

    /* Check the LSI State */
    if (RCC_OscInitStruct->LSIState != RCC_LSI_OFF)
 80028a2:	687b      	ldr	r3, [r7, #4]
 80028a4:	699b      	ldr	r3, [r3, #24]
 80028a6:	2b00      	cmp	r3, #0
 80028a8:	d019      	beq.n	80028de <HAL_RCC_OscConfig+0x24a>
    {
      /* Enable the Internal Low Speed oscillator (LSI). */
      __HAL_RCC_LSI_ENABLE();
 80028aa:	4b17      	ldr	r3, [pc, #92]	@ (8002908 <HAL_RCC_OscConfig+0x274>)
 80028ac:	2201      	movs	r2, #1
 80028ae:	601a      	str	r2, [r3, #0]

      /* Get Start Tick */
      tickstart = HAL_GetTick();
 80028b0:	f7fe ff1c 	bl	80016ec <HAL_GetTick>
 80028b4:	6138      	str	r0, [r7, #16]

      /* Wait till LSI is ready */
      while (__HAL_RCC_GET_FLAG(RCC_FLAG_LSIRDY) == RESET)
 80028b6:	e008      	b.n	80028ca <HAL_RCC_OscConfig+0x236>
      {
        if ((HAL_GetTick() - tickstart) > LSI_TIMEOUT_VALUE)
 80028b8:	f7fe ff18 	bl	80016ec <HAL_GetTick>
 80028bc:	4602      	mov	r2, r0
 80028be:	693b      	ldr	r3, [r7, #16]
 80028c0:	1ad3      	subs	r3, r2, r3
 80028c2:	2b02      	cmp	r3, #2
 80028c4:	d901      	bls.n	80028ca <HAL_RCC_OscConfig+0x236>
        {
          return HAL_TIMEOUT;
 80028c6:	2303      	movs	r3, #3
 80028c8:	e160      	b.n	8002b8c <HAL_RCC_OscConfig+0x4f8>
      while (__HAL_RCC_GET_FLAG(RCC_FLAG_LSIRDY) == RESET)
 80028ca:	4b0d      	ldr	r3, [pc, #52]	@ (8002900 <HAL_RCC_OscConfig+0x26c>)
 80028cc:	6a5b      	ldr	r3, [r3, #36]	@ 0x24
 80028ce:	f003 0302 	and.w	r3, r3, #2
 80028d2:	2b00      	cmp	r3, #0
 80028d4:	d0f0      	beq.n	80028b8 <HAL_RCC_OscConfig+0x224>
        }
      }
      /*  To have a fully stabilized clock in the specified range, a software delay of 1ms
          should be added.*/
      RCC_Delay(1);
 80028d6:	2001      	movs	r0, #1
 80028d8:	f000 face 	bl	8002e78 <RCC_Delay>
 80028dc:	e01c      	b.n	8002918 <HAL_RCC_OscConfig+0x284>
    }
    else
    {
      /* Disable the Internal Low Speed oscillator (LSI). */
      __HAL_RCC_LSI_DISABLE();
 80028de:	4b0a      	ldr	r3, [pc, #40]	@ (8002908 <HAL_RCC_OscConfig+0x274>)
 80028e0:	2200      	movs	r2, #0
 80028e2:	601a      	str	r2, [r3, #0]

      /* Get Start Tick */
      tickstart = HAL_GetTick();
 80028e4:	f7fe ff02 	bl	80016ec <HAL_GetTick>
 80028e8:	6138      	str	r0, [r7, #16]

      /* Wait till LSI is disabled */
      while (__HAL_RCC_GET_FLAG(RCC_FLAG_LSIRDY) != RESET)
 80028ea:	e00f      	b.n	800290c <HAL_RCC_OscConfig+0x278>
      {
        if ((HAL_GetTick() - tickstart) > LSI_TIMEOUT_VALUE)
 80028ec:	f7fe fefe 	bl	80016ec <HAL_GetTick>
 80028f0:	4602      	mov	r2, r0
 80028f2:	693b      	ldr	r3, [r7, #16]
 80028f4:	1ad3      	subs	r3, r2, r3
 80028f6:	2b02      	cmp	r3, #2
 80028f8:	d908      	bls.n	800290c <HAL_RCC_OscConfig+0x278>
        {
          return HAL_TIMEOUT;
 80028fa:	2303      	movs	r3, #3
 80028fc:	e146      	b.n	8002b8c <HAL_RCC_OscConfig+0x4f8>
 80028fe:	bf00      	nop
 8002900:	40021000 	.word	0x40021000
 8002904:	42420000 	.word	0x42420000
 8002908:	42420480 	.word	0x42420480
      while (__HAL_RCC_GET_FLAG(RCC_FLAG_LSIRDY) != RESET)
 800290c:	4b92      	ldr	r3, [pc, #584]	@ (8002b58 <HAL_RCC_OscConfig+0x4c4>)
 800290e:	6a5b      	ldr	r3, [r3, #36]	@ 0x24
 8002910:	f003 0302 	and.w	r3, r3, #2
 8002914:	2b00      	cmp	r3, #0
 8002916:	d1e9      	bne.n	80028ec <HAL_RCC_OscConfig+0x258>
        }
      }
    }
  }
  /*------------------------------ LSE Configuration -------------------------*/
  if (((RCC_OscInitStruct->OscillatorType) & RCC_OSCILLATORTYPE_LSE) == RCC_OSCILLATORTYPE_LSE)
 8002918:	687b      	ldr	r3, [r7, #4]
 800291a:	681b      	ldr	r3, [r3, #0]
 800291c:	f003 0304 	and.w	r3, r3, #4
 8002920:	2b00      	cmp	r3, #0
 8002922:	f000 80a6 	beq.w	8002a72 <HAL_RCC_OscConfig+0x3de>
  {
    FlagStatus       pwrclkchanged = RESET;
 8002926:	2300      	movs	r3, #0
 8002928:	75fb      	strb	r3, [r7, #23]
    /* Check the parameters */
    assert_param(IS_RCC_LSE(RCC_OscInitStruct->LSEState));

    /* Update LSE configuration in Backup Domain control register    */
    /* Requires to enable write access to Backup Domain of necessary */
    if (__HAL_RCC_PWR_IS_CLK_DISABLED())
 800292a:	4b8b      	ldr	r3, [pc, #556]	@ (8002b58 <HAL_RCC_OscConfig+0x4c4>)
 800292c:	69db      	ldr	r3, [r3, #28]
 800292e:	f003 5380 	and.w	r3, r3, #268435456	@ 0x10000000
 8002932:	2b00      	cmp	r3, #0
 8002934:	d10d      	bne.n	8002952 <HAL_RCC_OscConfig+0x2be>
    {
      __HAL_RCC_PWR_CLK_ENABLE();
 8002936:	4b88      	ldr	r3, [pc, #544]	@ (8002b58 <HAL_RCC_OscConfig+0x4c4>)
 8002938:	69db      	ldr	r3, [r3, #28]
 800293a:	4a87      	ldr	r2, [pc, #540]	@ (8002b58 <HAL_RCC_OscConfig+0x4c4>)
 800293c:	f043 5380 	orr.w	r3, r3, #268435456	@ 0x10000000
 8002940:	61d3      	str	r3, [r2, #28]
 8002942:	4b85      	ldr	r3, [pc, #532]	@ (8002b58 <HAL_RCC_OscConfig+0x4c4>)
 8002944:	69db      	ldr	r3, [r3, #28]
 8002946:	f003 5380 	and.w	r3, r3, #268435456	@ 0x10000000
 800294a:	60bb      	str	r3, [r7, #8]
 800294c:	68bb      	ldr	r3, [r7, #8]
      pwrclkchanged = SET;
 800294e:	2301      	movs	r3, #1
 8002950:	75fb      	strb	r3, [r7, #23]
    }

    if (HAL_IS_BIT_CLR(PWR->CR, PWR_CR_DBP))
 8002952:	4b82      	ldr	r3, [pc, #520]	@ (8002b5c <HAL_RCC_OscConfig+0x4c8>)
 8002954:	681b      	ldr	r3, [r3, #0]
 8002956:	f403 7380 	and.w	r3, r3, #256	@ 0x100
 800295a:	2b00      	cmp	r3, #0
 800295c:	d118      	bne.n	8002990 <HAL_RCC_OscConfig+0x2fc>
    {
      /* Enable write access to Backup domain */
      SET_BIT(PWR->CR, PWR_CR_DBP);
 800295e:	4b7f      	ldr	r3, [pc, #508]	@ (8002b5c <HAL_RCC_OscConfig+0x4c8>)
 8002960:	681b      	ldr	r3, [r3, #0]
 8002962:	4a7e      	ldr	r2, [pc, #504]	@ (8002b5c <HAL_RCC_OscConfig+0x4c8>)
 8002964:	f443 7380 	orr.w	r3, r3, #256	@ 0x100
 8002968:	6013      	str	r3, [r2, #0]

      /* Wait for Backup domain Write protection disable */
      tickstart = HAL_GetTick();
 800296a:	f7fe febf 	bl	80016ec <HAL_GetTick>
 800296e:	6138      	str	r0, [r7, #16]

      while (HAL_IS_BIT_CLR(PWR->CR, PWR_CR_DBP))
 8002970:	e008      	b.n	8002984 <HAL_RCC_OscConfig+0x2f0>
      {
        if ((HAL_GetTick() - tickstart) > RCC_DBP_TIMEOUT_VALUE)
 8002972:	f7fe febb 	bl	80016ec <HAL_GetTick>
 8002976:	4602      	mov	r2, r0
 8002978:	693b      	ldr	r3, [r7, #16]
 800297a:	1ad3      	subs	r3, r2, r3
 800297c:	2b64      	cmp	r3, #100	@ 0x64
 800297e:	d901      	bls.n	8002984 <HAL_RCC_OscConfig+0x2f0>
        {
          return HAL_TIMEOUT;
 8002980:	2303      	movs	r3, #3
 8002982:	e103      	b.n	8002b8c <HAL_RCC_OscConfig+0x4f8>
      while (HAL_IS_BIT_CLR(PWR->CR, PWR_CR_DBP))
 8002984:	4b75      	ldr	r3, [pc, #468]	@ (8002b5c <HAL_RCC_OscConfig+0x4c8>)
 8002986:	681b      	ldr	r3, [r3, #0]
 8002988:	f403 7380 	and.w	r3, r3, #256	@ 0x100
 800298c:	2b00      	cmp	r3, #0
 800298e:	d0f0      	beq.n	8002972 <HAL_RCC_OscConfig+0x2de>
        }
      }
    }

    /* Set the new LSE configuration -----------------------------------------*/
    __HAL_RCC_LSE_CONFIG(RCC_OscInitStruct->LSEState);
 8002990:	687b      	ldr	r3, [r7, #4]
 8002992:	68db      	ldr	r3, [r3, #12]
 8002994:	2b01      	cmp	r3, #1
 8002996:	d106      	bne.n	80029a6 <HAL_RCC_OscConfig+0x312>
 8002998:	4b6f      	ldr	r3, [pc, #444]	@ (8002b58 <HAL_RCC_OscConfig+0x4c4>)
 800299a:	6a1b      	ldr	r3, [r3, #32]
 800299c:	4a6e      	ldr	r2, [pc, #440]	@ (8002b58 <HAL_RCC_OscConfig+0x4c4>)
 800299e:	f043 0301 	orr.w	r3, r3, #1
 80029a2:	6213      	str	r3, [r2, #32]
 80029a4:	e02d      	b.n	8002a02 <HAL_RCC_OscConfig+0x36e>
 80029a6:	687b      	ldr	r3, [r7, #4]
 80029a8:	68db      	ldr	r3, [r3, #12]
 80029aa:	2b00      	cmp	r3, #0
 80029ac:	d10c      	bne.n	80029c8 <HAL_RCC_OscConfig+0x334>
 80029ae:	4b6a      	ldr	r3, [pc, #424]	@ (8002b58 <HAL_RCC_OscConfig+0x4c4>)
 80029b0:	6a1b      	ldr	r3, [r3, #32]
 80029b2:	4a69      	ldr	r2, [pc, #420]	@ (8002b58 <HAL_RCC_OscConfig+0x4c4>)
 80029b4:	f023 0301 	bic.w	r3, r3, #1
 80029b8:	6213      	str	r3, [r2, #32]
 80029ba:	4b67      	ldr	r3, [pc, #412]	@ (8002b58 <HAL_RCC_OscConfig+0x4c4>)
 80029bc:	6a1b      	ldr	r3, [r3, #32]
 80029be:	4a66      	ldr	r2, [pc, #408]	@ (8002b58 <HAL_RCC_OscConfig+0x4c4>)
 80029c0:	f023 0304 	bic.w	r3, r3, #4
 80029c4:	6213      	str	r3, [r2, #32]
 80029c6:	e01c      	b.n	8002a02 <HAL_RCC_OscConfig+0x36e>
 80029c8:	687b      	ldr	r3, [r7, #4]
 80029ca:	68db      	ldr	r3, [r3, #12]
 80029cc:	2b05      	cmp	r3, #5
 80029ce:	d10c      	bne.n	80029ea <HAL_RCC_OscConfig+0x356>
 80029d0:	4b61      	ldr	r3, [pc, #388]	@ (8002b58 <HAL_RCC_OscConfig+0x4c4>)
 80029d2:	6a1b      	ldr	r3, [r3, #32]
 80029d4:	4a60      	ldr	r2, [pc, #384]	@ (8002b58 <HAL_RCC_OscConfig+0x4c4>)
 80029d6:	f043 0304 	orr.w	r3, r3, #4
 80029da:	6213      	str	r3, [r2, #32]
 80029dc:	4b5e      	ldr	r3, [pc, #376]	@ (8002b58 <HAL_RCC_OscConfig+0x4c4>)
 80029de:	6a1b      	ldr	r3, [r3, #32]
 80029e0:	4a5d      	ldr	r2, [pc, #372]	@ (8002b58 <HAL_RCC_OscConfig+0x4c4>)
 80029e2:	f043 0301 	orr.w	r3, r3, #1
 80029e6:	6213      	str	r3, [r2, #32]
 80029e8:	e00b      	b.n	8002a02 <HAL_RCC_OscConfig+0x36e>
 80029ea:	4b5b      	ldr	r3, [pc, #364]	@ (8002b58 <HAL_RCC_OscConfig+0x4c4>)
 80029ec:	6a1b      	ldr	r3, [r3, #32]
 80029ee:	4a5a      	ldr	r2, [pc, #360]	@ (8002b58 <HAL_RCC_OscConfig+0x4c4>)
 80029f0:	f023 0301 	bic.w	r3, r3, #1
 80029f4:	6213      	str	r3, [r2, #32]
 80029f6:	4b58      	ldr	r3, [pc, #352]	@ (8002b58 <HAL_RCC_OscConfig+0x4c4>)
 80029f8:	6a1b      	ldr	r3, [r3, #32]
 80029fa:	4a57      	ldr	r2, [pc, #348]	@ (8002b58 <HAL_RCC_OscConfig+0x4c4>)
 80029fc:	f023 0304 	bic.w	r3, r3, #4
 8002a00:	6213      	str	r3, [r2, #32]
    /* Check the LSE State */
    if (RCC_OscInitStruct->LSEState != RCC_LSE_OFF)
 8002a02:	687b      	ldr	r3, [r7, #4]
 8002a04:	68db      	ldr	r3, [r3, #12]
 8002a06:	2b00      	cmp	r3, #0
 8002a08:	d015      	beq.n	8002a36 <HAL_RCC_OscConfig+0x3a2>
    {
      /* Get Start Tick */
      tickstart = HAL_GetTick();
 8002a0a:	f7fe fe6f 	bl	80016ec <HAL_GetTick>
 8002a0e:	6138      	str	r0, [r7, #16]

      /* Wait till LSE is ready */
      while (__HAL_RCC_GET_FLAG(RCC_FLAG_LSERDY) == RESET)
 8002a10:	e00a      	b.n	8002a28 <HAL_RCC_OscConfig+0x394>
      {
        if ((HAL_GetTick() - tickstart) > RCC_LSE_TIMEOUT_VALUE)
 8002a12:	f7fe fe6b 	bl	80016ec <HAL_GetTick>
 8002a16:	4602      	mov	r2, r0
 8002a18:	693b      	ldr	r3, [r7, #16]
 8002a1a:	1ad3      	subs	r3, r2, r3
 8002a1c:	f241 3288 	movw	r2, #5000	@ 0x1388
 8002a20:	4293      	cmp	r3, r2
 8002a22:	d901      	bls.n	8002a28 <HAL_RCC_OscConfig+0x394>
        {
          return HAL_TIMEOUT;
 8002a24:	2303      	movs	r3, #3
 8002a26:	e0b1      	b.n	8002b8c <HAL_RCC_OscConfig+0x4f8>
      while (__HAL_RCC_GET_FLAG(RCC_FLAG_LSERDY) == RESET)
 8002a28:	4b4b      	ldr	r3, [pc, #300]	@ (8002b58 <HAL_RCC_OscConfig+0x4c4>)
 8002a2a:	6a1b      	ldr	r3, [r3, #32]
 8002a2c:	f003 0302 	and.w	r3, r3, #2
 8002a30:	2b00      	cmp	r3, #0
 8002a32:	d0ee      	beq.n	8002a12 <HAL_RCC_OscConfig+0x37e>
 8002a34:	e014      	b.n	8002a60 <HAL_RCC_OscConfig+0x3cc>
      }
    }
    else
    {
      /* Get Start Tick */
      tickstart = HAL_GetTick();
 8002a36:	f7fe fe59 	bl	80016ec <HAL_GetTick>
 8002a3a:	6138      	str	r0, [r7, #16]

      /* Wait till LSE is disabled */
      while (__HAL_RCC_GET_FLAG(RCC_FLAG_LSERDY) != RESET)
 8002a3c:	e00a      	b.n	8002a54 <HAL_RCC_OscConfig+0x3c0>
      {
        if ((HAL_GetTick() - tickstart) > RCC_LSE_TIMEOUT_VALUE)
 8002a3e:	f7fe fe55 	bl	80016ec <HAL_GetTick>
 8002a42:	4602      	mov	r2, r0
 8002a44:	693b      	ldr	r3, [r7, #16]
 8002a46:	1ad3      	subs	r3, r2, r3
 8002a48:	f241 3288 	movw	r2, #5000	@ 0x1388
 8002a4c:	4293      	cmp	r3, r2
 8002a4e:	d901      	bls.n	8002a54 <HAL_RCC_OscConfig+0x3c0>
        {
          return HAL_TIMEOUT;
 8002a50:	2303      	movs	r3, #3
 8002a52:	e09b      	b.n	8002b8c <HAL_RCC_OscConfig+0x4f8>
      while (__HAL_RCC_GET_FLAG(RCC_FLAG_LSERDY) != RESET)
 8002a54:	4b40      	ldr	r3, [pc, #256]	@ (8002b58 <HAL_RCC_OscConfig+0x4c4>)
 8002a56:	6a1b      	ldr	r3, [r3, #32]
 8002a58:	f003 0302 	and.w	r3, r3, #2
 8002a5c:	2b00      	cmp	r3, #0
 8002a5e:	d1ee      	bne.n	8002a3e <HAL_RCC_OscConfig+0x3aa>
        }
      }
    }

    /* Require to disable power clock if necessary */
    if (pwrclkchanged == SET)
 8002a60:	7dfb      	ldrb	r3, [r7, #23]
 8002a62:	2b01      	cmp	r3, #1
 8002a64:	d105      	bne.n	8002a72 <HAL_RCC_OscConfig+0x3de>
    {
      __HAL_RCC_PWR_CLK_DISABLE();
 8002a66:	4b3c      	ldr	r3, [pc, #240]	@ (8002b58 <HAL_RCC_OscConfig+0x4c4>)
 8002a68:	69db      	ldr	r3, [r3, #28]
 8002a6a:	4a3b      	ldr	r2, [pc, #236]	@ (8002b58 <HAL_RCC_OscConfig+0x4c4>)
 8002a6c:	f023 5380 	bic.w	r3, r3, #268435456	@ 0x10000000
 8002a70:	61d3      	str	r3, [r2, #28]

#endif /* RCC_CR_PLL2ON */
  /*-------------------------------- PLL Configuration -----------------------*/
  /* Check the parameters */
  assert_param(IS_RCC_PLL(RCC_OscInitStruct->PLL.PLLState));
  if ((RCC_OscInitStruct->PLL.PLLState) != RCC_PLL_NONE)
 8002a72:	687b      	ldr	r3, [r7, #4]
 8002a74:	69db      	ldr	r3, [r3, #28]
 8002a76:	2b00      	cmp	r3, #0
 8002a78:	f000 8087 	beq.w	8002b8a <HAL_RCC_OscConfig+0x4f6>
  {
    /* Check if the PLL is used as system clock or not */
    if (__HAL_RCC_GET_SYSCLK_SOURCE() != RCC_SYSCLKSOURCE_STATUS_PLLCLK)
 8002a7c:	4b36      	ldr	r3, [pc, #216]	@ (8002b58 <HAL_RCC_OscConfig+0x4c4>)
 8002a7e:	685b      	ldr	r3, [r3, #4]
 8002a80:	f003 030c 	and.w	r3, r3, #12
 8002a84:	2b08      	cmp	r3, #8
 8002a86:	d061      	beq.n	8002b4c <HAL_RCC_OscConfig+0x4b8>
    {
      if ((RCC_OscInitStruct->PLL.PLLState) == RCC_PLL_ON)
 8002a88:	687b      	ldr	r3, [r7, #4]
 8002a8a:	69db      	ldr	r3, [r3, #28]
 8002a8c:	2b02      	cmp	r3, #2
 8002a8e:	d146      	bne.n	8002b1e <HAL_RCC_OscConfig+0x48a>
        /* Check the parameters */
        assert_param(IS_RCC_PLLSOURCE(RCC_OscInitStruct->PLL.PLLSource));
        assert_param(IS_RCC_PLL_MUL(RCC_OscInitStruct->PLL.PLLMUL));

        /* Disable the main PLL. */
        __HAL_RCC_PLL_DISABLE();
 8002a90:	4b33      	ldr	r3, [pc, #204]	@ (8002b60 <HAL_RCC_OscConfig+0x4cc>)
 8002a92:	2200      	movs	r2, #0
 8002a94:	601a      	str	r2, [r3, #0]

        /* Get Start Tick */
        tickstart = HAL_GetTick();
 8002a96:	f7fe fe29 	bl	80016ec <HAL_GetTick>
 8002a9a:	6138      	str	r0, [r7, #16]

        /* Wait till PLL is disabled */
        while (__HAL_RCC_GET_FLAG(RCC_FLAG_PLLRDY)  != RESET)
 8002a9c:	e008      	b.n	8002ab0 <HAL_RCC_OscConfig+0x41c>
        {
          if ((HAL_GetTick() - tickstart) > PLL_TIMEOUT_VALUE)
 8002a9e:	f7fe fe25 	bl	80016ec <HAL_GetTick>
 8002aa2:	4602      	mov	r2, r0
 8002aa4:	693b      	ldr	r3, [r7, #16]
 8002aa6:	1ad3      	subs	r3, r2, r3
 8002aa8:	2b02      	cmp	r3, #2
 8002aaa:	d901      	bls.n	8002ab0 <HAL_RCC_OscConfig+0x41c>
          {
            return HAL_TIMEOUT;
 8002aac:	2303      	movs	r3, #3
 8002aae:	e06d      	b.n	8002b8c <HAL_RCC_OscConfig+0x4f8>
        while (__HAL_RCC_GET_FLAG(RCC_FLAG_PLLRDY)  != RESET)
 8002ab0:	4b29      	ldr	r3, [pc, #164]	@ (8002b58 <HAL_RCC_OscConfig+0x4c4>)
 8002ab2:	681b      	ldr	r3, [r3, #0]
 8002ab4:	f003 7300 	and.w	r3, r3, #33554432	@ 0x2000000
 8002ab8:	2b00      	cmp	r3, #0
 8002aba:	d1f0      	bne.n	8002a9e <HAL_RCC_OscConfig+0x40a>
          }
        }

        /* Configure the HSE prediv factor --------------------------------*/
        /* It can be written only when the PLL is disabled. Not used in PLL source is different than HSE */
        if (RCC_OscInitStruct->PLL.PLLSource == RCC_PLLSOURCE_HSE)
 8002abc:	687b      	ldr	r3, [r7, #4]
 8002abe:	6a1b      	ldr	r3, [r3, #32]
 8002ac0:	f5b3 3f80 	cmp.w	r3, #65536	@ 0x10000
 8002ac4:	d108      	bne.n	8002ad8 <HAL_RCC_OscConfig+0x444>
          /* Set PREDIV1 source */
          SET_BIT(RCC->CFGR2, RCC_OscInitStruct->Prediv1Source);
#endif /* RCC_CFGR2_PREDIV1SRC */

          /* Set PREDIV1 Value */
          __HAL_RCC_HSE_PREDIV_CONFIG(RCC_OscInitStruct->HSEPredivValue);
 8002ac6:	4b24      	ldr	r3, [pc, #144]	@ (8002b58 <HAL_RCC_OscConfig+0x4c4>)
 8002ac8:	685b      	ldr	r3, [r3, #4]
 8002aca:	f423 3200 	bic.w	r2, r3, #131072	@ 0x20000
 8002ace:	687b      	ldr	r3, [r7, #4]
 8002ad0:	689b      	ldr	r3, [r3, #8]
 8002ad2:	4921      	ldr	r1, [pc, #132]	@ (8002b58 <HAL_RCC_OscConfig+0x4c4>)
 8002ad4:	4313      	orrs	r3, r2
 8002ad6:	604b      	str	r3, [r1, #4]
        }

        /* Configure the main PLL clock source and multiplication factors. */
        __HAL_RCC_PLL_CONFIG(RCC_OscInitStruct->PLL.PLLSource,
 8002ad8:	4b1f      	ldr	r3, [pc, #124]	@ (8002b58 <HAL_RCC_OscConfig+0x4c4>)
 8002ada:	685b      	ldr	r3, [r3, #4]
 8002adc:	f423 1274 	bic.w	r2, r3, #3997696	@ 0x3d0000
 8002ae0:	687b      	ldr	r3, [r7, #4]
 8002ae2:	6a19      	ldr	r1, [r3, #32]
 8002ae4:	687b      	ldr	r3, [r7, #4]
 8002ae6:	6a5b      	ldr	r3, [r3, #36]	@ 0x24
 8002ae8:	430b      	orrs	r3, r1
 8002aea:	491b      	ldr	r1, [pc, #108]	@ (8002b58 <HAL_RCC_OscConfig+0x4c4>)
 8002aec:	4313      	orrs	r3, r2
 8002aee:	604b      	str	r3, [r1, #4]
                             RCC_OscInitStruct->PLL.PLLMUL);
        /* Enable the main PLL. */
        __HAL_RCC_PLL_ENABLE();
 8002af0:	4b1b      	ldr	r3, [pc, #108]	@ (8002b60 <HAL_RCC_OscConfig+0x4cc>)
 8002af2:	2201      	movs	r2, #1
 8002af4:	601a      	str	r2, [r3, #0]

        /* Get Start Tick */
        tickstart = HAL_GetTick();
 8002af6:	f7fe fdf9 	bl	80016ec <HAL_GetTick>
 8002afa:	6138      	str	r0, [r7, #16]

        /* Wait till PLL is ready */
        while (__HAL_RCC_GET_FLAG(RCC_FLAG_PLLRDY)  == RESET)
 8002afc:	e008      	b.n	8002b10 <HAL_RCC_OscConfig+0x47c>
        {
          if ((HAL_GetTick() - tickstart) > PLL_TIMEOUT_VALUE)
 8002afe:	f7fe fdf5 	bl	80016ec <HAL_GetTick>
 8002b02:	4602      	mov	r2, r0
 8002b04:	693b      	ldr	r3, [r7, #16]
 8002b06:	1ad3      	subs	r3, r2, r3
 8002b08:	2b02      	cmp	r3, #2
 8002b0a:	d901      	bls.n	8002b10 <HAL_RCC_OscConfig+0x47c>
          {
            return HAL_TIMEOUT;
 8002b0c:	2303      	movs	r3, #3
 8002b0e:	e03d      	b.n	8002b8c <HAL_RCC_OscConfig+0x4f8>
        while (__HAL_RCC_GET_FLAG(RCC_FLAG_PLLRDY)  == RESET)
 8002b10:	4b11      	ldr	r3, [pc, #68]	@ (8002b58 <HAL_RCC_OscConfig+0x4c4>)
 8002b12:	681b      	ldr	r3, [r3, #0]
 8002b14:	f003 7300 	and.w	r3, r3, #33554432	@ 0x2000000
 8002b18:	2b00      	cmp	r3, #0
 8002b1a:	d0f0      	beq.n	8002afe <HAL_RCC_OscConfig+0x46a>
 8002b1c:	e035      	b.n	8002b8a <HAL_RCC_OscConfig+0x4f6>
        }
      }
      else
      {
        /* Disable the main PLL. */
        __HAL_RCC_PLL_DISABLE();
 8002b1e:	4b10      	ldr	r3, [pc, #64]	@ (8002b60 <HAL_RCC_OscConfig+0x4cc>)
 8002b20:	2200      	movs	r2, #0
 8002b22:	601a      	str	r2, [r3, #0]

        /* Get Start Tick */
        tickstart = HAL_GetTick();
 8002b24:	f7fe fde2 	bl	80016ec <HAL_GetTick>
 8002b28:	6138      	str	r0, [r7, #16]

        /* Wait till PLL is disabled */
        while (__HAL_RCC_GET_FLAG(RCC_FLAG_PLLRDY)  != RESET)
 8002b2a:	e008      	b.n	8002b3e <HAL_RCC_OscConfig+0x4aa>
        {
          if ((HAL_GetTick() - tickstart) > PLL_TIMEOUT_VALUE)
 8002b2c:	f7fe fdde 	bl	80016ec <HAL_GetTick>
 8002b30:	4602      	mov	r2, r0
 8002b32:	693b      	ldr	r3, [r7, #16]
 8002b34:	1ad3      	subs	r3, r2, r3
 8002b36:	2b02      	cmp	r3, #2
 8002b38:	d901      	bls.n	8002b3e <HAL_RCC_OscConfig+0x4aa>
          {
            return HAL_TIMEOUT;
 8002b3a:	2303      	movs	r3, #3
 8002b3c:	e026      	b.n	8002b8c <HAL_RCC_OscConfig+0x4f8>
        while (__HAL_RCC_GET_FLAG(RCC_FLAG_PLLRDY)  != RESET)
 8002b3e:	4b06      	ldr	r3, [pc, #24]	@ (8002b58 <HAL_RCC_OscConfig+0x4c4>)
 8002b40:	681b      	ldr	r3, [r3, #0]
 8002b42:	f003 7300 	and.w	r3, r3, #33554432	@ 0x2000000
 8002b46:	2b00      	cmp	r3, #0
 8002b48:	d1f0      	bne.n	8002b2c <HAL_RCC_OscConfig+0x498>
 8002b4a:	e01e      	b.n	8002b8a <HAL_RCC_OscConfig+0x4f6>
      }
    }
    else
    {
      /* Check if there is a request to disable the PLL used as System clock source */
      if ((RCC_OscInitStruct->PLL.PLLState) == RCC_PLL_OFF)
 8002b4c:	687b      	ldr	r3, [r7, #4]
 8002b4e:	69db      	ldr	r3, [r3, #28]
 8002b50:	2b01      	cmp	r3, #1
 8002b52:	d107      	bne.n	8002b64 <HAL_RCC_OscConfig+0x4d0>
      {
        return HAL_ERROR;
 8002b54:	2301      	movs	r3, #1
 8002b56:	e019      	b.n	8002b8c <HAL_RCC_OscConfig+0x4f8>
 8002b58:	40021000 	.word	0x40021000
 8002b5c:	40007000 	.word	0x40007000
 8002b60:	42420060 	.word	0x42420060
      }
      else
      {
        /* Do not return HAL_ERROR if request repeats the current configuration */
        pll_config = RCC->CFGR;
 8002b64:	4b0b      	ldr	r3, [pc, #44]	@ (8002b94 <HAL_RCC_OscConfig+0x500>)
 8002b66:	685b      	ldr	r3, [r3, #4]
 8002b68:	60fb      	str	r3, [r7, #12]
        if ((READ_BIT(pll_config, RCC_CFGR_PLLSRC) != RCC_OscInitStruct->PLL.PLLSource) ||
 8002b6a:	68fb      	ldr	r3, [r7, #12]
 8002b6c:	f403 3280 	and.w	r2, r3, #65536	@ 0x10000
 8002b70:	687b      	ldr	r3, [r7, #4]
 8002b72:	6a1b      	ldr	r3, [r3, #32]
 8002b74:	429a      	cmp	r2, r3
 8002b76:	d106      	bne.n	8002b86 <HAL_RCC_OscConfig+0x4f2>
            (READ_BIT(pll_config, RCC_CFGR_PLLMULL) != RCC_OscInitStruct->PLL.PLLMUL))
 8002b78:	68fb      	ldr	r3, [r7, #12]
 8002b7a:	f403 1270 	and.w	r2, r3, #3932160	@ 0x3c0000
 8002b7e:	687b      	ldr	r3, [r7, #4]
 8002b80:	6a5b      	ldr	r3, [r3, #36]	@ 0x24
        if ((READ_BIT(pll_config, RCC_CFGR_PLLSRC) != RCC_OscInitStruct->PLL.PLLSource) ||
 8002b82:	429a      	cmp	r2, r3
 8002b84:	d001      	beq.n	8002b8a <HAL_RCC_OscConfig+0x4f6>
        {
          return HAL_ERROR;
 8002b86:	2301      	movs	r3, #1
 8002b88:	e000      	b.n	8002b8c <HAL_RCC_OscConfig+0x4f8>
        }
      }
    }
  }

  return HAL_OK;
 8002b8a:	2300      	movs	r3, #0
}
 8002b8c:	4618      	mov	r0, r3
 8002b8e:	3718      	adds	r7, #24
 8002b90:	46bd      	mov	sp, r7
 8002b92:	bd80      	pop	{r7, pc}
 8002b94:	40021000 	.word	0x40021000

08002b98 <HAL_RCC_ClockConfig>:
  *         You can use @ref HAL_RCC_GetClockConfig() function to know which clock is
  *         currently used as system clock source.
  * @retval HAL status
  */
HAL_StatusTypeDef HAL_RCC_ClockConfig(RCC_ClkInitTypeDef  *RCC_ClkInitStruct, uint32_t FLatency)
{
 8002b98:	b580      	push	{r7, lr}
 8002b9a:	b084      	sub	sp, #16
 8002b9c:	af00      	add	r7, sp, #0
 8002b9e:	6078      	str	r0, [r7, #4]
 8002ba0:	6039      	str	r1, [r7, #0]
  uint32_t tickstart;

  /* Check Null pointer */
  if (RCC_ClkInitStruct == NULL)
 8002ba2:	687b      	ldr	r3, [r7, #4]
 8002ba4:	2b00      	cmp	r3, #0
 8002ba6:	d101      	bne.n	8002bac <HAL_RCC_ClockConfig+0x14>
  {
    return HAL_ERROR;
 8002ba8:	2301      	movs	r3, #1
 8002baa:	e0d0      	b.n	8002d4e <HAL_RCC_ClockConfig+0x1b6>
  must be correctly programmed according to the frequency of the CPU clock
    (HCLK) of the device. */

#if defined(FLASH_ACR_LATENCY)
  /* Increasing the number of wait states because of higher CPU frequency */
  if (FLatency > __HAL_FLASH_GET_LATENCY())
 8002bac:	4b6a      	ldr	r3, [pc, #424]	@ (8002d58 <HAL_RCC_ClockConfig+0x1c0>)
 8002bae:	681b      	ldr	r3, [r3, #0]
 8002bb0:	f003 0307 	and.w	r3, r3, #7
 8002bb4:	683a      	ldr	r2, [r7, #0]
 8002bb6:	429a      	cmp	r2, r3
 8002bb8:	d910      	bls.n	8002bdc <HAL_RCC_ClockConfig+0x44>
  {
    /* Program the new number of wait states to the LATENCY bits in the FLASH_ACR register */
    __HAL_FLASH_SET_LATENCY(FLatency);
 8002bba:	4b67      	ldr	r3, [pc, #412]	@ (8002d58 <HAL_RCC_ClockConfig+0x1c0>)
 8002bbc:	681b      	ldr	r3, [r3, #0]
 8002bbe:	f023 0207 	bic.w	r2, r3, #7
 8002bc2:	4965      	ldr	r1, [pc, #404]	@ (8002d58 <HAL_RCC_ClockConfig+0x1c0>)
 8002bc4:	683b      	ldr	r3, [r7, #0]
 8002bc6:	4313      	orrs	r3, r2
 8002bc8:	600b      	str	r3, [r1, #0]

    /* Check that the new number of wait states is taken into account to access the Flash
    memory by reading the FLASH_ACR register */
    if (__HAL_FLASH_GET_LATENCY() != FLatency)
 8002bca:	4b63      	ldr	r3, [pc, #396]	@ (8002d58 <HAL_RCC_ClockConfig+0x1c0>)
 8002bcc:	681b      	ldr	r3, [r3, #0]
 8002bce:	f003 0307 	and.w	r3, r3, #7
 8002bd2:	683a      	ldr	r2, [r7, #0]
 8002bd4:	429a      	cmp	r2, r3
 8002bd6:	d001      	beq.n	8002bdc <HAL_RCC_ClockConfig+0x44>
  {
    return HAL_ERROR;
 8002bd8:	2301      	movs	r3, #1
 8002bda:	e0b8      	b.n	8002d4e <HAL_RCC_ClockConfig+0x1b6>
  }
}

#endif /* FLASH_ACR_LATENCY */
/*-------------------------- HCLK Configuration --------------------------*/
if (((RCC_ClkInitStruct->ClockType) & RCC_CLOCKTYPE_HCLK) == RCC_CLOCKTYPE_HCLK)
 8002bdc:	687b      	ldr	r3, [r7, #4]
 8002bde:	681b      	ldr	r3, [r3, #0]
 8002be0:	f003 0302 	and.w	r3, r3, #2
 8002be4:	2b00      	cmp	r3, #0
 8002be6:	d020      	beq.n	8002c2a <HAL_RCC_ClockConfig+0x92>
  {
    /* Set the highest APBx dividers in order to ensure that we do not go through
    a non-spec phase whatever we decrease or increase HCLK. */
    if (((RCC_ClkInitStruct->ClockType) & RCC_CLOCKTYPE_PCLK1) == RCC_CLOCKTYPE_PCLK1)
 8002be8:	687b      	ldr	r3, [r7, #4]
 8002bea:	681b      	ldr	r3, [r3, #0]
 8002bec:	f003 0304 	and.w	r3, r3, #4
 8002bf0:	2b00      	cmp	r3, #0
 8002bf2:	d005      	beq.n	8002c00 <HAL_RCC_ClockConfig+0x68>
    {
      MODIFY_REG(RCC->CFGR, RCC_CFGR_PPRE1, RCC_HCLK_DIV16);
 8002bf4:	4b59      	ldr	r3, [pc, #356]	@ (8002d5c <HAL_RCC_ClockConfig+0x1c4>)
 8002bf6:	685b      	ldr	r3, [r3, #4]
 8002bf8:	4a58      	ldr	r2, [pc, #352]	@ (8002d5c <HAL_RCC_ClockConfig+0x1c4>)
 8002bfa:	f443 63e0 	orr.w	r3, r3, #1792	@ 0x700
 8002bfe:	6053      	str	r3, [r2, #4]
    }

    if (((RCC_ClkInitStruct->ClockType) & RCC_CLOCKTYPE_PCLK2) == RCC_CLOCKTYPE_PCLK2)
 8002c00:	687b      	ldr	r3, [r7, #4]
 8002c02:	681b      	ldr	r3, [r3, #0]
 8002c04:	f003 0308 	and.w	r3, r3, #8
 8002c08:	2b00      	cmp	r3, #0
 8002c0a:	d005      	beq.n	8002c18 <HAL_RCC_ClockConfig+0x80>
    {
      MODIFY_REG(RCC->CFGR, RCC_CFGR_PPRE2, (RCC_HCLK_DIV16 << 3));
 8002c0c:	4b53      	ldr	r3, [pc, #332]	@ (8002d5c <HAL_RCC_ClockConfig+0x1c4>)
 8002c0e:	685b      	ldr	r3, [r3, #4]
 8002c10:	4a52      	ldr	r2, [pc, #328]	@ (8002d5c <HAL_RCC_ClockConfig+0x1c4>)
 8002c12:	f443 5360 	orr.w	r3, r3, #14336	@ 0x3800
 8002c16:	6053      	str	r3, [r2, #4]
    }

    /* Set the new HCLK clock divider */
    assert_param(IS_RCC_HCLK(RCC_ClkInitStruct->AHBCLKDivider));
    MODIFY_REG(RCC->CFGR, RCC_CFGR_HPRE, RCC_ClkInitStruct->AHBCLKDivider);
 8002c18:	4b50      	ldr	r3, [pc, #320]	@ (8002d5c <HAL_RCC_ClockConfig+0x1c4>)
 8002c1a:	685b      	ldr	r3, [r3, #4]
 8002c1c:	f023 02f0 	bic.w	r2, r3, #240	@ 0xf0
 8002c20:	687b      	ldr	r3, [r7, #4]
 8002c22:	689b      	ldr	r3, [r3, #8]
 8002c24:	494d      	ldr	r1, [pc, #308]	@ (8002d5c <HAL_RCC_ClockConfig+0x1c4>)
 8002c26:	4313      	orrs	r3, r2
 8002c28:	604b      	str	r3, [r1, #4]
  }

  /*------------------------- SYSCLK Configuration ---------------------------*/
  if (((RCC_ClkInitStruct->ClockType) & RCC_CLOCKTYPE_SYSCLK) == RCC_CLOCKTYPE_SYSCLK)
 8002c2a:	687b      	ldr	r3, [r7, #4]
 8002c2c:	681b      	ldr	r3, [r3, #0]
 8002c2e:	f003 0301 	and.w	r3, r3, #1
 8002c32:	2b00      	cmp	r3, #0
 8002c34:	d040      	beq.n	8002cb8 <HAL_RCC_ClockConfig+0x120>
  {
    assert_param(IS_RCC_SYSCLKSOURCE(RCC_ClkInitStruct->SYSCLKSource));

    /* HSE is selected as System Clock Source */
    if (RCC_ClkInitStruct->SYSCLKSource == RCC_SYSCLKSOURCE_HSE)
 8002c36:	687b      	ldr	r3, [r7, #4]
 8002c38:	685b      	ldr	r3, [r3, #4]
 8002c3a:	2b01      	cmp	r3, #1
 8002c3c:	d107      	bne.n	8002c4e <HAL_RCC_ClockConfig+0xb6>
    {
      /* Check the HSE ready flag */
      if (__HAL_RCC_GET_FLAG(RCC_FLAG_HSERDY) == RESET)
 8002c3e:	4b47      	ldr	r3, [pc, #284]	@ (8002d5c <HAL_RCC_ClockConfig+0x1c4>)
 8002c40:	681b      	ldr	r3, [r3, #0]
 8002c42:	f403 3300 	and.w	r3, r3, #131072	@ 0x20000
 8002c46:	2b00      	cmp	r3, #0
 8002c48:	d115      	bne.n	8002c76 <HAL_RCC_ClockConfig+0xde>
      {
        return HAL_ERROR;
 8002c4a:	2301      	movs	r3, #1
 8002c4c:	e07f      	b.n	8002d4e <HAL_RCC_ClockConfig+0x1b6>
      }
    }
    /* PLL is selected as System Clock Source */
    else if (RCC_ClkInitStruct->SYSCLKSource == RCC_SYSCLKSOURCE_PLLCLK)
 8002c4e:	687b      	ldr	r3, [r7, #4]
 8002c50:	685b      	ldr	r3, [r3, #4]
 8002c52:	2b02      	cmp	r3, #2
 8002c54:	d107      	bne.n	8002c66 <HAL_RCC_ClockConfig+0xce>
    {
      /* Check the PLL ready flag */
      if (__HAL_RCC_GET_FLAG(RCC_FLAG_PLLRDY) == RESET)
 8002c56:	4b41      	ldr	r3, [pc, #260]	@ (8002d5c <HAL_RCC_ClockConfig+0x1c4>)
 8002c58:	681b      	ldr	r3, [r3, #0]
 8002c5a:	f003 7300 	and.w	r3, r3, #33554432	@ 0x2000000
 8002c5e:	2b00      	cmp	r3, #0
 8002c60:	d109      	bne.n	8002c76 <HAL_RCC_ClockConfig+0xde>
      {
        return HAL_ERROR;
 8002c62:	2301      	movs	r3, #1
 8002c64:	e073      	b.n	8002d4e <HAL_RCC_ClockConfig+0x1b6>
    }
    /* HSI is selected as System Clock Source */
    else
    {
      /* Check the HSI ready flag */
      if (__HAL_RCC_GET_FLAG(RCC_FLAG_HSIRDY) == RESET)
 8002c66:	4b3d      	ldr	r3, [pc, #244]	@ (8002d5c <HAL_RCC_ClockConfig+0x1c4>)
 8002c68:	681b      	ldr	r3, [r3, #0]
 8002c6a:	f003 0302 	and.w	r3, r3, #2
 8002c6e:	2b00      	cmp	r3, #0
 8002c70:	d101      	bne.n	8002c76 <HAL_RCC_ClockConfig+0xde>
      {
        return HAL_ERROR;
 8002c72:	2301      	movs	r3, #1
 8002c74:	e06b      	b.n	8002d4e <HAL_RCC_ClockConfig+0x1b6>
      }
    }
    __HAL_RCC_SYSCLK_CONFIG(RCC_ClkInitStruct->SYSCLKSource);
 8002c76:	4b39      	ldr	r3, [pc, #228]	@ (8002d5c <HAL_RCC_ClockConfig+0x1c4>)
 8002c78:	685b      	ldr	r3, [r3, #4]
 8002c7a:	f023 0203 	bic.w	r2, r3, #3
 8002c7e:	687b      	ldr	r3, [r7, #4]
 8002c80:	685b      	ldr	r3, [r3, #4]
 8002c82:	4936      	ldr	r1, [pc, #216]	@ (8002d5c <HAL_RCC_ClockConfig+0x1c4>)
 8002c84:	4313      	orrs	r3, r2
 8002c86:	604b      	str	r3, [r1, #4]

    /* Get Start Tick */
    tickstart = HAL_GetTick();
 8002c88:	f7fe fd30 	bl	80016ec <HAL_GetTick>
 8002c8c:	60f8      	str	r0, [r7, #12]

    while (__HAL_RCC_GET_SYSCLK_SOURCE() != (RCC_ClkInitStruct->SYSCLKSource << RCC_CFGR_SWS_Pos))
 8002c8e:	e00a      	b.n	8002ca6 <HAL_RCC_ClockConfig+0x10e>
    {
      if ((HAL_GetTick() - tickstart) > CLOCKSWITCH_TIMEOUT_VALUE)
 8002c90:	f7fe fd2c 	bl	80016ec <HAL_GetTick>
 8002c94:	4602      	mov	r2, r0
 8002c96:	68fb      	ldr	r3, [r7, #12]
 8002c98:	1ad3      	subs	r3, r2, r3
 8002c9a:	f241 3288 	movw	r2, #5000	@ 0x1388
 8002c9e:	4293      	cmp	r3, r2
 8002ca0:	d901      	bls.n	8002ca6 <HAL_RCC_ClockConfig+0x10e>
      {
        return HAL_TIMEOUT;
 8002ca2:	2303      	movs	r3, #3
 8002ca4:	e053      	b.n	8002d4e <HAL_RCC_ClockConfig+0x1b6>
    while (__HAL_RCC_GET_SYSCLK_SOURCE() != (RCC_ClkInitStruct->SYSCLKSource << RCC_CFGR_SWS_Pos))
 8002ca6:	4b2d      	ldr	r3, [pc, #180]	@ (8002d5c <HAL_RCC_ClockConfig+0x1c4>)
 8002ca8:	685b      	ldr	r3, [r3, #4]
 8002caa:	f003 020c 	and.w	r2, r3, #12
 8002cae:	687b      	ldr	r3, [r7, #4]
 8002cb0:	685b      	ldr	r3, [r3, #4]
 8002cb2:	009b      	lsls	r3, r3, #2
 8002cb4:	429a      	cmp	r2, r3
 8002cb6:	d1eb      	bne.n	8002c90 <HAL_RCC_ClockConfig+0xf8>
    }
  }

#if defined(FLASH_ACR_LATENCY)
  /* Decreasing the number of wait states because of lower CPU frequency */
  if (FLatency < __HAL_FLASH_GET_LATENCY())
 8002cb8:	4b27      	ldr	r3, [pc, #156]	@ (8002d58 <HAL_RCC_ClockConfig+0x1c0>)
 8002cba:	681b      	ldr	r3, [r3, #0]
 8002cbc:	f003 0307 	and.w	r3, r3, #7
 8002cc0:	683a      	ldr	r2, [r7, #0]
 8002cc2:	429a      	cmp	r2, r3
 8002cc4:	d210      	bcs.n	8002ce8 <HAL_RCC_ClockConfig+0x150>
  {
    /* Program the new number of wait states to the LATENCY bits in the FLASH_ACR register */
    __HAL_FLASH_SET_LATENCY(FLatency);
 8002cc6:	4b24      	ldr	r3, [pc, #144]	@ (8002d58 <HAL_RCC_ClockConfig+0x1c0>)
 8002cc8:	681b      	ldr	r3, [r3, #0]
 8002cca:	f023 0207 	bic.w	r2, r3, #7
 8002cce:	4922      	ldr	r1, [pc, #136]	@ (8002d58 <HAL_RCC_ClockConfig+0x1c0>)
 8002cd0:	683b      	ldr	r3, [r7, #0]
 8002cd2:	4313      	orrs	r3, r2
 8002cd4:	600b      	str	r3, [r1, #0]

    /* Check that the new number of wait states is taken into account to access the Flash
    memory by reading the FLASH_ACR register */
    if (__HAL_FLASH_GET_LATENCY() != FLatency)
 8002cd6:	4b20      	ldr	r3, [pc, #128]	@ (8002d58 <HAL_RCC_ClockConfig+0x1c0>)
 8002cd8:	681b      	ldr	r3, [r3, #0]
 8002cda:	f003 0307 	and.w	r3, r3, #7
 8002cde:	683a      	ldr	r2, [r7, #0]
 8002ce0:	429a      	cmp	r2, r3
 8002ce2:	d001      	beq.n	8002ce8 <HAL_RCC_ClockConfig+0x150>
  {
    return HAL_ERROR;
 8002ce4:	2301      	movs	r3, #1
 8002ce6:	e032      	b.n	8002d4e <HAL_RCC_ClockConfig+0x1b6>
  }
}
#endif /* FLASH_ACR_LATENCY */

/*-------------------------- PCLK1 Configuration ---------------------------*/
if (((RCC_ClkInitStruct->ClockType) & RCC_CLOCKTYPE_PCLK1) == RCC_CLOCKTYPE_PCLK1)
 8002ce8:	687b      	ldr	r3, [r7, #4]
 8002cea:	681b      	ldr	r3, [r3, #0]
 8002cec:	f003 0304 	and.w	r3, r3, #4
 8002cf0:	2b00      	cmp	r3, #0
 8002cf2:	d008      	beq.n	8002d06 <HAL_RCC_ClockConfig+0x16e>
  {
    assert_param(IS_RCC_PCLK(RCC_ClkInitStruct->APB1CLKDivider));
    MODIFY_REG(RCC->CFGR, RCC_CFGR_PPRE1, RCC_ClkInitStruct->APB1CLKDivider);
 8002cf4:	4b19      	ldr	r3, [pc, #100]	@ (8002d5c <HAL_RCC_ClockConfig+0x1c4>)
 8002cf6:	685b      	ldr	r3, [r3, #4]
 8002cf8:	f423 62e0 	bic.w	r2, r3, #1792	@ 0x700
 8002cfc:	687b      	ldr	r3, [r7, #4]
 8002cfe:	68db      	ldr	r3, [r3, #12]
 8002d00:	4916      	ldr	r1, [pc, #88]	@ (8002d5c <HAL_RCC_ClockConfig+0x1c4>)
 8002d02:	4313      	orrs	r3, r2
 8002d04:	604b      	str	r3, [r1, #4]
  }

  /*-------------------------- PCLK2 Configuration ---------------------------*/
  if (((RCC_ClkInitStruct->ClockType) & RCC_CLOCKTYPE_PCLK2) == RCC_CLOCKTYPE_PCLK2)
 8002d06:	687b      	ldr	r3, [r7, #4]
 8002d08:	681b      	ldr	r3, [r3, #0]
 8002d0a:	f003 0308 	and.w	r3, r3, #8
 8002d0e:	2b00      	cmp	r3, #0
 8002d10:	d009      	beq.n	8002d26 <HAL_RCC_ClockConfig+0x18e>
  {
    assert_param(IS_RCC_PCLK(RCC_ClkInitStruct->APB2CLKDivider));
    MODIFY_REG(RCC->CFGR, RCC_CFGR_PPRE2, ((RCC_ClkInitStruct->APB2CLKDivider) << 3));
 8002d12:	4b12      	ldr	r3, [pc, #72]	@ (8002d5c <HAL_RCC_ClockConfig+0x1c4>)
 8002d14:	685b      	ldr	r3, [r3, #4]
 8002d16:	f423 5260 	bic.w	r2, r3, #14336	@ 0x3800
 8002d1a:	687b      	ldr	r3, [r7, #4]
 8002d1c:	691b      	ldr	r3, [r3, #16]
 8002d1e:	00db      	lsls	r3, r3, #3
 8002d20:	490e      	ldr	r1, [pc, #56]	@ (8002d5c <HAL_RCC_ClockConfig+0x1c4>)
 8002d22:	4313      	orrs	r3, r2
 8002d24:	604b      	str	r3, [r1, #4]
  }

  /* Update the SystemCoreClock global variable */
  SystemCoreClock = HAL_RCC_GetSysClockFreq() >> AHBPrescTable[(RCC->CFGR & RCC_CFGR_HPRE) >> RCC_CFGR_HPRE_Pos];
 8002d26:	f000 f821 	bl	8002d6c <HAL_RCC_GetSysClockFreq>
 8002d2a:	4602      	mov	r2, r0
 8002d2c:	4b0b      	ldr	r3, [pc, #44]	@ (8002d5c <HAL_RCC_ClockConfig+0x1c4>)
 8002d2e:	685b      	ldr	r3, [r3, #4]
 8002d30:	091b      	lsrs	r3, r3, #4
 8002d32:	f003 030f 	and.w	r3, r3, #15
 8002d36:	490a      	ldr	r1, [pc, #40]	@ (8002d60 <HAL_RCC_ClockConfig+0x1c8>)
 8002d38:	5ccb      	ldrb	r3, [r1, r3]
 8002d3a:	fa22 f303 	lsr.w	r3, r2, r3
 8002d3e:	4a09      	ldr	r2, [pc, #36]	@ (8002d64 <HAL_RCC_ClockConfig+0x1cc>)
 8002d40:	6013      	str	r3, [r2, #0]

  /* Configure the source of time base considering new system clocks settings*/
  HAL_InitTick(uwTickPrio);
 8002d42:	4b09      	ldr	r3, [pc, #36]	@ (8002d68 <HAL_RCC_ClockConfig+0x1d0>)
 8002d44:	681b      	ldr	r3, [r3, #0]
 8002d46:	4618      	mov	r0, r3
 8002d48:	f7fe fc8e 	bl	8001668 <HAL_InitTick>

  return HAL_OK;
 8002d4c:	2300      	movs	r3, #0
}
 8002d4e:	4618      	mov	r0, r3
 8002d50:	3710      	adds	r7, #16
 8002d52:	46bd      	mov	sp, r7
 8002d54:	bd80      	pop	{r7, pc}
 8002d56:	bf00      	nop
 8002d58:	40022000 	.word	0x40022000
 8002d5c:	40021000 	.word	0x40021000
 8002d60:	08006014 	.word	0x08006014
 8002d64:	20000000 	.word	0x20000000
 8002d68:	20000004 	.word	0x20000004

08002d6c <HAL_RCC_GetSysClockFreq>:
  *         right SYSCLK value. Otherwise, any configuration based on this function will be incorrect.
  *
  * @retval SYSCLK frequency
  */
uint32_t HAL_RCC_GetSysClockFreq(void)
{
 8002d6c:	b480      	push	{r7}
 8002d6e:	b087      	sub	sp, #28
 8002d70:	af00      	add	r7, sp, #0
#else
  static const uint8_t aPredivFactorTable[2U] = {1, 2};
#endif /*RCC_CFGR2_PREDIV1*/

#endif
  uint32_t tmpreg = 0U, prediv = 0U, pllclk = 0U, pllmul = 0U;
 8002d72:	2300      	movs	r3, #0
 8002d74:	60fb      	str	r3, [r7, #12]
 8002d76:	2300      	movs	r3, #0
 8002d78:	60bb      	str	r3, [r7, #8]
 8002d7a:	2300      	movs	r3, #0
 8002d7c:	617b      	str	r3, [r7, #20]
 8002d7e:	2300      	movs	r3, #0
 8002d80:	607b      	str	r3, [r7, #4]
  uint32_t sysclockfreq = 0U;
 8002d82:	2300      	movs	r3, #0
 8002d84:	613b      	str	r3, [r7, #16]
#if defined(RCC_CFGR2_PREDIV1SRC)
  uint32_t prediv2 = 0U, pll2mul = 0U;
#endif /*RCC_CFGR2_PREDIV1SRC*/

  tmpreg = RCC->CFGR;
 8002d86:	4b1e      	ldr	r3, [pc, #120]	@ (8002e00 <HAL_RCC_GetSysClockFreq+0x94>)
 8002d88:	685b      	ldr	r3, [r3, #4]
 8002d8a:	60fb      	str	r3, [r7, #12]

  /* Get SYSCLK source -------------------------------------------------------*/
  switch (tmpreg & RCC_CFGR_SWS)
 8002d8c:	68fb      	ldr	r3, [r7, #12]
 8002d8e:	f003 030c 	and.w	r3, r3, #12
 8002d92:	2b04      	cmp	r3, #4
 8002d94:	d002      	beq.n	8002d9c <HAL_RCC_GetSysClockFreq+0x30>
 8002d96:	2b08      	cmp	r3, #8
 8002d98:	d003      	beq.n	8002da2 <HAL_RCC_GetSysClockFreq+0x36>
 8002d9a:	e027      	b.n	8002dec <HAL_RCC_GetSysClockFreq+0x80>
  {
    case RCC_SYSCLKSOURCE_STATUS_HSE:  /* HSE used as system clock */
    {
      sysclockfreq = HSE_VALUE;
 8002d9c:	4b19      	ldr	r3, [pc, #100]	@ (8002e04 <HAL_RCC_GetSysClockFreq+0x98>)
 8002d9e:	613b      	str	r3, [r7, #16]
      break;
 8002da0:	e027      	b.n	8002df2 <HAL_RCC_GetSysClockFreq+0x86>
    }
    case RCC_SYSCLKSOURCE_STATUS_PLLCLK:  /* PLL used as system clock */
    {
      pllmul = aPLLMULFactorTable[(uint32_t)(tmpreg & RCC_CFGR_PLLMULL) >> RCC_CFGR_PLLMULL_Pos];
 8002da2:	68fb      	ldr	r3, [r7, #12]
 8002da4:	0c9b      	lsrs	r3, r3, #18
 8002da6:	f003 030f 	and.w	r3, r3, #15
 8002daa:	4a17      	ldr	r2, [pc, #92]	@ (8002e08 <HAL_RCC_GetSysClockFreq+0x9c>)
 8002dac:	5cd3      	ldrb	r3, [r2, r3]
 8002dae:	607b      	str	r3, [r7, #4]
      if ((tmpreg & RCC_CFGR_PLLSRC) != RCC_PLLSOURCE_HSI_DIV2)
 8002db0:	68fb      	ldr	r3, [r7, #12]
 8002db2:	f403 3380 	and.w	r3, r3, #65536	@ 0x10000
 8002db6:	2b00      	cmp	r3, #0
 8002db8:	d010      	beq.n	8002ddc <HAL_RCC_GetSysClockFreq+0x70>
      {
#if defined(RCC_CFGR2_PREDIV1)
        prediv = aPredivFactorTable[(uint32_t)(RCC->CFGR2 & RCC_CFGR2_PREDIV1) >> RCC_CFGR2_PREDIV1_Pos];
#else
        prediv = aPredivFactorTable[(uint32_t)(RCC->CFGR & RCC_CFGR_PLLXTPRE) >> RCC_CFGR_PLLXTPRE_Pos];
 8002dba:	4b11      	ldr	r3, [pc, #68]	@ (8002e00 <HAL_RCC_GetSysClockFreq+0x94>)
 8002dbc:	685b      	ldr	r3, [r3, #4]
 8002dbe:	0c5b      	lsrs	r3, r3, #17
 8002dc0:	f003 0301 	and.w	r3, r3, #1
 8002dc4:	4a11      	ldr	r2, [pc, #68]	@ (8002e0c <HAL_RCC_GetSysClockFreq+0xa0>)
 8002dc6:	5cd3      	ldrb	r3, [r2, r3]
 8002dc8:	60bb      	str	r3, [r7, #8]
        {
          pllclk = pllclk / 2;
        }
#else
        /* HSE used as PLL clock source : PLLCLK = HSE/PREDIV1 * PLLMUL */
        pllclk = (uint32_t)((HSE_VALUE  * pllmul) / prediv);
 8002dca:	687b      	ldr	r3, [r7, #4]
 8002dcc:	4a0d      	ldr	r2, [pc, #52]	@ (8002e04 <HAL_RCC_GetSysClockFreq+0x98>)
 8002dce:	fb03 f202 	mul.w	r2, r3, r2
 8002dd2:	68bb      	ldr	r3, [r7, #8]
 8002dd4:	fbb2 f3f3 	udiv	r3, r2, r3
 8002dd8:	617b      	str	r3, [r7, #20]
 8002dda:	e004      	b.n	8002de6 <HAL_RCC_GetSysClockFreq+0x7a>
#endif /*RCC_CFGR2_PREDIV1SRC*/
      }
      else
      {
        /* HSI used as PLL clock source : PLLCLK = HSI/2 * PLLMUL */
        pllclk = (uint32_t)((HSI_VALUE >> 1) * pllmul);
 8002ddc:	687b      	ldr	r3, [r7, #4]
 8002dde:	4a0c      	ldr	r2, [pc, #48]	@ (8002e10 <HAL_RCC_GetSysClockFreq+0xa4>)
 8002de0:	fb02 f303 	mul.w	r3, r2, r3
 8002de4:	617b      	str	r3, [r7, #20]
      }
      sysclockfreq = pllclk;
 8002de6:	697b      	ldr	r3, [r7, #20]
 8002de8:	613b      	str	r3, [r7, #16]
      break;
 8002dea:	e002      	b.n	8002df2 <HAL_RCC_GetSysClockFreq+0x86>
    }
    case RCC_SYSCLKSOURCE_STATUS_HSI:  /* HSI used as system clock source */
    default: /* HSI used as system clock */
    {
      sysclockfreq = HSI_VALUE;
 8002dec:	4b05      	ldr	r3, [pc, #20]	@ (8002e04 <HAL_RCC_GetSysClockFreq+0x98>)
 8002dee:	613b      	str	r3, [r7, #16]
      break;
 8002df0:	bf00      	nop
    }
  }
  return sysclockfreq;
 8002df2:	693b      	ldr	r3, [r7, #16]
}
 8002df4:	4618      	mov	r0, r3
 8002df6:	371c      	adds	r7, #28
 8002df8:	46bd      	mov	sp, r7
 8002dfa:	bc80      	pop	{r7}
 8002dfc:	4770      	bx	lr
 8002dfe:	bf00      	nop
 8002e00:	40021000 	.word	0x40021000
 8002e04:	007a1200 	.word	0x007a1200
 8002e08:	0800602c 	.word	0x0800602c
 8002e0c:	0800603c 	.word	0x0800603c
 8002e10:	003d0900 	.word	0x003d0900

08002e14 <HAL_RCC_GetHCLKFreq>:
  * @note   The SystemCoreClock CMSIS variable is used to store System Clock Frequency
  *         and updated within this function
  * @retval HCLK frequency
  */
uint32_t HAL_RCC_GetHCLKFreq(void)
{
 8002e14:	b480      	push	{r7}
 8002e16:	af00      	add	r7, sp, #0
  return SystemCoreClock;
 8002e18:	4b02      	ldr	r3, [pc, #8]	@ (8002e24 <HAL_RCC_GetHCLKFreq+0x10>)
 8002e1a:	681b      	ldr	r3, [r3, #0]
}
 8002e1c:	4618      	mov	r0, r3
 8002e1e:	46bd      	mov	sp, r7
 8002e20:	bc80      	pop	{r7}
 8002e22:	4770      	bx	lr
 8002e24:	20000000 	.word	0x20000000

08002e28 <HAL_RCC_GetPCLK1Freq>:
  * @note   Each time PCLK1 changes, this function must be called to update the
  *         right PCLK1 value. Otherwise, any configuration based on this function will be incorrect.
  * @retval PCLK1 frequency
  */
uint32_t HAL_RCC_GetPCLK1Freq(void)
{
 8002e28:	b580      	push	{r7, lr}
 8002e2a:	af00      	add	r7, sp, #0
  /* Get HCLK source and Compute PCLK1 frequency ---------------------------*/
  return (HAL_RCC_GetHCLKFreq() >> APBPrescTable[(RCC->CFGR & RCC_CFGR_PPRE1) >> RCC_CFGR_PPRE1_Pos]);
 8002e2c:	f7ff fff2 	bl	8002e14 <HAL_RCC_GetHCLKFreq>
 8002e30:	4602      	mov	r2, r0
 8002e32:	4b05      	ldr	r3, [pc, #20]	@ (8002e48 <HAL_RCC_GetPCLK1Freq+0x20>)
 8002e34:	685b      	ldr	r3, [r3, #4]
 8002e36:	0a1b      	lsrs	r3, r3, #8
 8002e38:	f003 0307 	and.w	r3, r3, #7
 8002e3c:	4903      	ldr	r1, [pc, #12]	@ (8002e4c <HAL_RCC_GetPCLK1Freq+0x24>)
 8002e3e:	5ccb      	ldrb	r3, [r1, r3]
 8002e40:	fa22 f303 	lsr.w	r3, r2, r3
}
 8002e44:	4618      	mov	r0, r3
 8002e46:	bd80      	pop	{r7, pc}
 8002e48:	40021000 	.word	0x40021000
 8002e4c:	08006024 	.word	0x08006024

08002e50 <HAL_RCC_GetPCLK2Freq>:
  * @note   Each time PCLK2 changes, this function must be called to update the
  *         right PCLK2 value. Otherwise, any configuration based on this function will be incorrect.
  * @retval PCLK2 frequency
  */
uint32_t HAL_RCC_GetPCLK2Freq(void)
{
 8002e50:	b580      	push	{r7, lr}
 8002e52:	af00      	add	r7, sp, #0
  /* Get HCLK source and Compute PCLK2 frequency ---------------------------*/
  return (HAL_RCC_GetHCLKFreq() >> APBPrescTable[(RCC->CFGR & RCC_CFGR_PPRE2) >> RCC_CFGR_PPRE2_Pos]);
 8002e54:	f7ff ffde 	bl	8002e14 <HAL_RCC_GetHCLKFreq>
 8002e58:	4602      	mov	r2, r0
 8002e5a:	4b05      	ldr	r3, [pc, #20]	@ (8002e70 <HAL_RCC_GetPCLK2Freq+0x20>)
 8002e5c:	685b      	ldr	r3, [r3, #4]
 8002e5e:	0adb      	lsrs	r3, r3, #11
 8002e60:	f003 0307 	and.w	r3, r3, #7
 8002e64:	4903      	ldr	r1, [pc, #12]	@ (8002e74 <HAL_RCC_GetPCLK2Freq+0x24>)
 8002e66:	5ccb      	ldrb	r3, [r1, r3]
 8002e68:	fa22 f303 	lsr.w	r3, r2, r3
}
 8002e6c:	4618      	mov	r0, r3
 8002e6e:	bd80      	pop	{r7, pc}
 8002e70:	40021000 	.word	0x40021000
 8002e74:	08006024 	.word	0x08006024

08002e78 <RCC_Delay>:
  * @brief  This function provides delay (in milliseconds) based on CPU cycles method.
  * @param  mdelay: specifies the delay time length, in milliseconds.
  * @retval None
  */
static void RCC_Delay(uint32_t mdelay)
{
 8002e78:	b480      	push	{r7}
 8002e7a:	b085      	sub	sp, #20
 8002e7c:	af00      	add	r7, sp, #0
 8002e7e:	6078      	str	r0, [r7, #4]
  __IO uint32_t Delay = mdelay * (SystemCoreClock / 8U / 1000U);
 8002e80:	4b0a      	ldr	r3, [pc, #40]	@ (8002eac <RCC_Delay+0x34>)
 8002e82:	681b      	ldr	r3, [r3, #0]
 8002e84:	4a0a      	ldr	r2, [pc, #40]	@ (8002eb0 <RCC_Delay+0x38>)
 8002e86:	fba2 2303 	umull	r2, r3, r2, r3
 8002e8a:	0a5b      	lsrs	r3, r3, #9
 8002e8c:	687a      	ldr	r2, [r7, #4]
 8002e8e:	fb02 f303 	mul.w	r3, r2, r3
 8002e92:	60fb      	str	r3, [r7, #12]
  do
  {
    __NOP();
 8002e94:	bf00      	nop
  }
  while (Delay --);
 8002e96:	68fb      	ldr	r3, [r7, #12]
 8002e98:	1e5a      	subs	r2, r3, #1
 8002e9a:	60fa      	str	r2, [r7, #12]
 8002e9c:	2b00      	cmp	r3, #0
 8002e9e:	d1f9      	bne.n	8002e94 <RCC_Delay+0x1c>
}
 8002ea0:	bf00      	nop
 8002ea2:	bf00      	nop
 8002ea4:	3714      	adds	r7, #20
 8002ea6:	46bd      	mov	sp, r7
 8002ea8:	bc80      	pop	{r7}
 8002eaa:	4770      	bx	lr
 8002eac:	20000000 	.word	0x20000000
 8002eb0:	10624dd3 	.word	0x10624dd3

08002eb4 <HAL_RCCEx_PeriphCLKConfig>:
  *         manually disable it.
  *
  * @retval HAL status
  */
HAL_StatusTypeDef HAL_RCCEx_PeriphCLKConfig(RCC_PeriphCLKInitTypeDef  *PeriphClkInit)
{
 8002eb4:	b580      	push	{r7, lr}
 8002eb6:	b086      	sub	sp, #24
 8002eb8:	af00      	add	r7, sp, #0
 8002eba:	6078      	str	r0, [r7, #4]
  uint32_t tickstart = 0U, temp_reg = 0U;
 8002ebc:	2300      	movs	r3, #0
 8002ebe:	613b      	str	r3, [r7, #16]
 8002ec0:	2300      	movs	r3, #0
 8002ec2:	60fb      	str	r3, [r7, #12]

  /* Check the parameters */
  assert_param(IS_RCC_PERIPHCLOCK(PeriphClkInit->PeriphClockSelection));

  /*------------------------------- RTC/LCD Configuration ------------------------*/
  if ((((PeriphClkInit->PeriphClockSelection) & RCC_PERIPHCLK_RTC) == RCC_PERIPHCLK_RTC))
 8002ec4:	687b      	ldr	r3, [r7, #4]
 8002ec6:	681b      	ldr	r3, [r3, #0]
 8002ec8:	f003 0301 	and.w	r3, r3, #1
 8002ecc:	2b00      	cmp	r3, #0
 8002ece:	d07d      	beq.n	8002fcc <HAL_RCCEx_PeriphCLKConfig+0x118>
  {
    FlagStatus pwrclkchanged = RESET;
 8002ed0:	2300      	movs	r3, #0
 8002ed2:	75fb      	strb	r3, [r7, #23]
    assert_param(IS_RCC_RTCCLKSOURCE(PeriphClkInit->RTCClockSelection));

    /* As soon as function is called to change RTC clock source, activation of the
       power domain is done. */
    /* Requires to enable write access to Backup Domain of necessary */
    if (__HAL_RCC_PWR_IS_CLK_DISABLED())
 8002ed4:	4b4f      	ldr	r3, [pc, #316]	@ (8003014 <HAL_RCCEx_PeriphCLKConfig+0x160>)
 8002ed6:	69db      	ldr	r3, [r3, #28]
 8002ed8:	f003 5380 	and.w	r3, r3, #268435456	@ 0x10000000
 8002edc:	2b00      	cmp	r3, #0
 8002ede:	d10d      	bne.n	8002efc <HAL_RCCEx_PeriphCLKConfig+0x48>
    {
      __HAL_RCC_PWR_CLK_ENABLE();
 8002ee0:	4b4c      	ldr	r3, [pc, #304]	@ (8003014 <HAL_RCCEx_PeriphCLKConfig+0x160>)
 8002ee2:	69db      	ldr	r3, [r3, #28]
 8002ee4:	4a4b      	ldr	r2, [pc, #300]	@ (8003014 <HAL_RCCEx_PeriphCLKConfig+0x160>)
 8002ee6:	f043 5380 	orr.w	r3, r3, #268435456	@ 0x10000000
 8002eea:	61d3      	str	r3, [r2, #28]
 8002eec:	4b49      	ldr	r3, [pc, #292]	@ (8003014 <HAL_RCCEx_PeriphCLKConfig+0x160>)
 8002eee:	69db      	ldr	r3, [r3, #28]
 8002ef0:	f003 5380 	and.w	r3, r3, #268435456	@ 0x10000000
 8002ef4:	60bb      	str	r3, [r7, #8]
 8002ef6:	68bb      	ldr	r3, [r7, #8]
      pwrclkchanged = SET;
 8002ef8:	2301      	movs	r3, #1
 8002efa:	75fb      	strb	r3, [r7, #23]
    }

    if (HAL_IS_BIT_CLR(PWR->CR, PWR_CR_DBP))
 8002efc:	4b46      	ldr	r3, [pc, #280]	@ (8003018 <HAL_RCCEx_PeriphCLKConfig+0x164>)
 8002efe:	681b      	ldr	r3, [r3, #0]
 8002f00:	f403 7380 	and.w	r3, r3, #256	@ 0x100
 8002f04:	2b00      	cmp	r3, #0
 8002f06:	d118      	bne.n	8002f3a <HAL_RCCEx_PeriphCLKConfig+0x86>
    {
      /* Enable write access to Backup domain */
      SET_BIT(PWR->CR, PWR_CR_DBP);
 8002f08:	4b43      	ldr	r3, [pc, #268]	@ (8003018 <HAL_RCCEx_PeriphCLKConfig+0x164>)
 8002f0a:	681b      	ldr	r3, [r3, #0]
 8002f0c:	4a42      	ldr	r2, [pc, #264]	@ (8003018 <HAL_RCCEx_PeriphCLKConfig+0x164>)
 8002f0e:	f443 7380 	orr.w	r3, r3, #256	@ 0x100
 8002f12:	6013      	str	r3, [r2, #0]

      /* Wait for Backup domain Write protection disable */
      tickstart = HAL_GetTick();
 8002f14:	f7fe fbea 	bl	80016ec <HAL_GetTick>
 8002f18:	6138      	str	r0, [r7, #16]

      while (HAL_IS_BIT_CLR(PWR->CR, PWR_CR_DBP))
 8002f1a:	e008      	b.n	8002f2e <HAL_RCCEx_PeriphCLKConfig+0x7a>
      {
        if ((HAL_GetTick() - tickstart) > RCC_DBP_TIMEOUT_VALUE)
 8002f1c:	f7fe fbe6 	bl	80016ec <HAL_GetTick>
 8002f20:	4602      	mov	r2, r0
 8002f22:	693b      	ldr	r3, [r7, #16]
 8002f24:	1ad3      	subs	r3, r2, r3
 8002f26:	2b64      	cmp	r3, #100	@ 0x64
 8002f28:	d901      	bls.n	8002f2e <HAL_RCCEx_PeriphCLKConfig+0x7a>
        {
          return HAL_TIMEOUT;
 8002f2a:	2303      	movs	r3, #3
 8002f2c:	e06d      	b.n	800300a <HAL_RCCEx_PeriphCLKConfig+0x156>
      while (HAL_IS_BIT_CLR(PWR->CR, PWR_CR_DBP))
 8002f2e:	4b3a      	ldr	r3, [pc, #232]	@ (8003018 <HAL_RCCEx_PeriphCLKConfig+0x164>)
 8002f30:	681b      	ldr	r3, [r3, #0]
 8002f32:	f403 7380 	and.w	r3, r3, #256	@ 0x100
 8002f36:	2b00      	cmp	r3, #0
 8002f38:	d0f0      	beq.n	8002f1c <HAL_RCCEx_PeriphCLKConfig+0x68>
        }
      }
    }

    /* Reset the Backup domain only if the RTC Clock source selection is modified from reset value */
    temp_reg = (RCC->BDCR & RCC_BDCR_RTCSEL);
 8002f3a:	4b36      	ldr	r3, [pc, #216]	@ (8003014 <HAL_RCCEx_PeriphCLKConfig+0x160>)
 8002f3c:	6a1b      	ldr	r3, [r3, #32]
 8002f3e:	f403 7340 	and.w	r3, r3, #768	@ 0x300
 8002f42:	60fb      	str	r3, [r7, #12]
    if ((temp_reg != 0x00000000U) && (temp_reg != (PeriphClkInit->RTCClockSelection & RCC_BDCR_RTCSEL)))
 8002f44:	68fb      	ldr	r3, [r7, #12]
 8002f46:	2b00      	cmp	r3, #0
 8002f48:	d02e      	beq.n	8002fa8 <HAL_RCCEx_PeriphCLKConfig+0xf4>
 8002f4a:	687b      	ldr	r3, [r7, #4]
 8002f4c:	685b      	ldr	r3, [r3, #4]
 8002f4e:	f403 7340 	and.w	r3, r3, #768	@ 0x300
 8002f52:	68fa      	ldr	r2, [r7, #12]
 8002f54:	429a      	cmp	r2, r3
 8002f56:	d027      	beq.n	8002fa8 <HAL_RCCEx_PeriphCLKConfig+0xf4>
    {
      /* Store the content of BDCR register before the reset of Backup Domain */
      temp_reg = (RCC->BDCR & ~(RCC_BDCR_RTCSEL));
 8002f58:	4b2e      	ldr	r3, [pc, #184]	@ (8003014 <HAL_RCCEx_PeriphCLKConfig+0x160>)
 8002f5a:	6a1b      	ldr	r3, [r3, #32]
 8002f5c:	f423 7340 	bic.w	r3, r3, #768	@ 0x300
 8002f60:	60fb      	str	r3, [r7, #12]
      /* RTC Clock selection can be changed only if the Backup Domain is reset */
      __HAL_RCC_BACKUPRESET_FORCE();
 8002f62:	4b2e      	ldr	r3, [pc, #184]	@ (800301c <HAL_RCCEx_PeriphCLKConfig+0x168>)
 8002f64:	2201      	movs	r2, #1
 8002f66:	601a      	str	r2, [r3, #0]
      __HAL_RCC_BACKUPRESET_RELEASE();
 8002f68:	4b2c      	ldr	r3, [pc, #176]	@ (800301c <HAL_RCCEx_PeriphCLKConfig+0x168>)
 8002f6a:	2200      	movs	r2, #0
 8002f6c:	601a      	str	r2, [r3, #0]
      /* Restore the Content of BDCR register */
      RCC->BDCR = temp_reg;
 8002f6e:	4a29      	ldr	r2, [pc, #164]	@ (8003014 <HAL_RCCEx_PeriphCLKConfig+0x160>)
 8002f70:	68fb      	ldr	r3, [r7, #12]
 8002f72:	6213      	str	r3, [r2, #32]

      /* Wait for LSERDY if LSE was enabled */
      if (HAL_IS_BIT_SET(temp_reg, RCC_BDCR_LSEON))
 8002f74:	68fb      	ldr	r3, [r7, #12]
 8002f76:	f003 0301 	and.w	r3, r3, #1
 8002f7a:	2b00      	cmp	r3, #0
 8002f7c:	d014      	beq.n	8002fa8 <HAL_RCCEx_PeriphCLKConfig+0xf4>
      {
        /* Get Start Tick */
        tickstart = HAL_GetTick();
 8002f7e:	f7fe fbb5 	bl	80016ec <HAL_GetTick>
 8002f82:	6138      	str	r0, [r7, #16]

        /* Wait till LSE is ready */
        while (__HAL_RCC_GET_FLAG(RCC_FLAG_LSERDY) == RESET)
 8002f84:	e00a      	b.n	8002f9c <HAL_RCCEx_PeriphCLKConfig+0xe8>
        {
          if ((HAL_GetTick() - tickstart) > RCC_LSE_TIMEOUT_VALUE)
 8002f86:	f7fe fbb1 	bl	80016ec <HAL_GetTick>
 8002f8a:	4602      	mov	r2, r0
 8002f8c:	693b      	ldr	r3, [r7, #16]
 8002f8e:	1ad3      	subs	r3, r2, r3
 8002f90:	f241 3288 	movw	r2, #5000	@ 0x1388
 8002f94:	4293      	cmp	r3, r2
 8002f96:	d901      	bls.n	8002f9c <HAL_RCCEx_PeriphCLKConfig+0xe8>
          {
            return HAL_TIMEOUT;
 8002f98:	2303      	movs	r3, #3
 8002f9a:	e036      	b.n	800300a <HAL_RCCEx_PeriphCLKConfig+0x156>
        while (__HAL_RCC_GET_FLAG(RCC_FLAG_LSERDY) == RESET)
 8002f9c:	4b1d      	ldr	r3, [pc, #116]	@ (8003014 <HAL_RCCEx_PeriphCLKConfig+0x160>)
 8002f9e:	6a1b      	ldr	r3, [r3, #32]
 8002fa0:	f003 0302 	and.w	r3, r3, #2
 8002fa4:	2b00      	cmp	r3, #0
 8002fa6:	d0ee      	beq.n	8002f86 <HAL_RCCEx_PeriphCLKConfig+0xd2>
          }
        }
      }
    }
    __HAL_RCC_RTC_CONFIG(PeriphClkInit->RTCClockSelection);
 8002fa8:	4b1a      	ldr	r3, [pc, #104]	@ (8003014 <HAL_RCCEx_PeriphCLKConfig+0x160>)
 8002faa:	6a1b      	ldr	r3, [r3, #32]
 8002fac:	f423 7240 	bic.w	r2, r3, #768	@ 0x300
 8002fb0:	687b      	ldr	r3, [r7, #4]
 8002fb2:	685b      	ldr	r3, [r3, #4]
 8002fb4:	4917      	ldr	r1, [pc, #92]	@ (8003014 <HAL_RCCEx_PeriphCLKConfig+0x160>)
 8002fb6:	4313      	orrs	r3, r2
 8002fb8:	620b      	str	r3, [r1, #32]

    /* Require to disable power clock if necessary */
    if (pwrclkchanged == SET)
 8002fba:	7dfb      	ldrb	r3, [r7, #23]
 8002fbc:	2b01      	cmp	r3, #1
 8002fbe:	d105      	bne.n	8002fcc <HAL_RCCEx_PeriphCLKConfig+0x118>
    {
      __HAL_RCC_PWR_CLK_DISABLE();
 8002fc0:	4b14      	ldr	r3, [pc, #80]	@ (8003014 <HAL_RCCEx_PeriphCLKConfig+0x160>)
 8002fc2:	69db      	ldr	r3, [r3, #28]
 8002fc4:	4a13      	ldr	r2, [pc, #76]	@ (8003014 <HAL_RCCEx_PeriphCLKConfig+0x160>)
 8002fc6:	f023 5380 	bic.w	r3, r3, #268435456	@ 0x10000000
 8002fca:	61d3      	str	r3, [r2, #28]
    }
  }

  /*------------------------------ ADC clock Configuration ------------------*/
  if (((PeriphClkInit->PeriphClockSelection) & RCC_PERIPHCLK_ADC) == RCC_PERIPHCLK_ADC)
 8002fcc:	687b      	ldr	r3, [r7, #4]
 8002fce:	681b      	ldr	r3, [r3, #0]
 8002fd0:	f003 0302 	and.w	r3, r3, #2
 8002fd4:	2b00      	cmp	r3, #0
 8002fd6:	d008      	beq.n	8002fea <HAL_RCCEx_PeriphCLKConfig+0x136>
  {
    /* Check the parameters */
    assert_param(IS_RCC_ADCPLLCLK_DIV(PeriphClkInit->AdcClockSelection));

    /* Configure the ADC clock source */
    __HAL_RCC_ADC_CONFIG(PeriphClkInit->AdcClockSelection);
 8002fd8:	4b0e      	ldr	r3, [pc, #56]	@ (8003014 <HAL_RCCEx_PeriphCLKConfig+0x160>)
 8002fda:	685b      	ldr	r3, [r3, #4]
 8002fdc:	f423 4240 	bic.w	r2, r3, #49152	@ 0xc000
 8002fe0:	687b      	ldr	r3, [r7, #4]
 8002fe2:	689b      	ldr	r3, [r3, #8]
 8002fe4:	490b      	ldr	r1, [pc, #44]	@ (8003014 <HAL_RCCEx_PeriphCLKConfig+0x160>)
 8002fe6:	4313      	orrs	r3, r2
 8002fe8:	604b      	str	r3, [r1, #4]

#if defined(STM32F102x6) || defined(STM32F102xB) || defined(STM32F103x6)\
 || defined(STM32F103xB) || defined(STM32F103xE) || defined(STM32F103xG)\
 || defined(STM32F105xC) || defined(STM32F107xC)
  /*------------------------------ USB clock Configuration ------------------*/
  if (((PeriphClkInit->PeriphClockSelection) & RCC_PERIPHCLK_USB) == RCC_PERIPHCLK_USB)
 8002fea:	687b      	ldr	r3, [r7, #4]
 8002fec:	681b      	ldr	r3, [r3, #0]
 8002fee:	f003 0310 	and.w	r3, r3, #16
 8002ff2:	2b00      	cmp	r3, #0
 8002ff4:	d008      	beq.n	8003008 <HAL_RCCEx_PeriphCLKConfig+0x154>
  {
    /* Check the parameters */
    assert_param(IS_RCC_USBPLLCLK_DIV(PeriphClkInit->UsbClockSelection));

    /* Configure the USB clock source */
    __HAL_RCC_USB_CONFIG(PeriphClkInit->UsbClockSelection);
 8002ff6:	4b07      	ldr	r3, [pc, #28]	@ (8003014 <HAL_RCCEx_PeriphCLKConfig+0x160>)
 8002ff8:	685b      	ldr	r3, [r3, #4]
 8002ffa:	f423 0280 	bic.w	r2, r3, #4194304	@ 0x400000
 8002ffe:	687b      	ldr	r3, [r7, #4]
 8003000:	68db      	ldr	r3, [r3, #12]
 8003002:	4904      	ldr	r1, [pc, #16]	@ (8003014 <HAL_RCCEx_PeriphCLKConfig+0x160>)
 8003004:	4313      	orrs	r3, r2
 8003006:	604b      	str	r3, [r1, #4]
  }
#endif /* STM32F102x6 || STM32F102xB || STM32F103x6 || STM32F103xB || STM32F103xE || STM32F103xG || STM32F105xC || STM32F107xC */

  return HAL_OK;
 8003008:	2300      	movs	r3, #0
}
 800300a:	4618      	mov	r0, r3
 800300c:	3718      	adds	r7, #24
 800300e:	46bd      	mov	sp, r7
 8003010:	bd80      	pop	{r7, pc}
 8003012:	bf00      	nop
 8003014:	40021000 	.word	0x40021000
 8003018:	40007000 	.word	0x40007000
 800301c:	42420440 	.word	0x42420440

08003020 <HAL_RCCEx_GetPeriphCLKFreq>:
  *            @arg @ref RCC_PERIPHCLK_USB  USB peripheral clock
  @endif
  * @retval Frequency in Hz (0: means that no available frequency for the peripheral)
  */
uint32_t HAL_RCCEx_GetPeriphCLKFreq(uint32_t PeriphClk)
{
 8003020:	b580      	push	{r7, lr}
 8003022:	b088      	sub	sp, #32
 8003024:	af00      	add	r7, sp, #0
 8003026:	6078      	str	r0, [r7, #4]
#if defined(STM32F102x6) || defined(STM32F102xB) || defined(STM32F103x6) || \
    defined(STM32F103xB) || defined(STM32F103xE) || defined(STM32F103xG)
  static const uint8_t aPLLMULFactorTable[16U] = {2, 3, 4, 5, 6, 7, 8, 9, 10, 11, 12, 13, 14, 15, 16, 16};
  static const uint8_t aPredivFactorTable[2U] = {1, 2};

  uint32_t prediv1 = 0U, pllclk = 0U, pllmul = 0U;
 8003028:	2300      	movs	r3, #0
 800302a:	617b      	str	r3, [r7, #20]
 800302c:	2300      	movs	r3, #0
 800302e:	61fb      	str	r3, [r7, #28]
 8003030:	2300      	movs	r3, #0
 8003032:	613b      	str	r3, [r7, #16]
#endif /* STM32F102x6 || STM32F102xB || STM32F103x6 || STM32F103xB || STM32F103xE || STM32F103xG */
  uint32_t temp_reg = 0U, frequency = 0U;
 8003034:	2300      	movs	r3, #0
 8003036:	60fb      	str	r3, [r7, #12]
 8003038:	2300      	movs	r3, #0
 800303a:	61bb      	str	r3, [r7, #24]

  /* Check the parameters */
  assert_param(IS_RCC_PERIPHCLOCK(PeriphClk));

  switch (PeriphClk)
 800303c:	687b      	ldr	r3, [r7, #4]
 800303e:	2b10      	cmp	r3, #16
 8003040:	d00a      	beq.n	8003058 <HAL_RCCEx_GetPeriphCLKFreq+0x38>
 8003042:	687b      	ldr	r3, [r7, #4]
 8003044:	2b10      	cmp	r3, #16
 8003046:	f200 808a 	bhi.w	800315e <HAL_RCCEx_GetPeriphCLKFreq+0x13e>
 800304a:	687b      	ldr	r3, [r7, #4]
 800304c:	2b01      	cmp	r3, #1
 800304e:	d045      	beq.n	80030dc <HAL_RCCEx_GetPeriphCLKFreq+0xbc>
 8003050:	687b      	ldr	r3, [r7, #4]
 8003052:	2b02      	cmp	r3, #2
 8003054:	d075      	beq.n	8003142 <HAL_RCCEx_GetPeriphCLKFreq+0x122>
      frequency = HAL_RCC_GetPCLK2Freq() / (((__HAL_RCC_GET_ADC_SOURCE() >> RCC_CFGR_ADCPRE_Pos) + 1) * 2);
      break;
    }
    default:
    {
      break;
 8003056:	e082      	b.n	800315e <HAL_RCCEx_GetPeriphCLKFreq+0x13e>
      temp_reg = RCC->CFGR;
 8003058:	4b46      	ldr	r3, [pc, #280]	@ (8003174 <HAL_RCCEx_GetPeriphCLKFreq+0x154>)
 800305a:	685b      	ldr	r3, [r3, #4]
 800305c:	60fb      	str	r3, [r7, #12]
      if (HAL_IS_BIT_SET(RCC->CR, RCC_CR_PLLON))
 800305e:	4b45      	ldr	r3, [pc, #276]	@ (8003174 <HAL_RCCEx_GetPeriphCLKFreq+0x154>)
 8003060:	681b      	ldr	r3, [r3, #0]
 8003062:	f003 7380 	and.w	r3, r3, #16777216	@ 0x1000000
 8003066:	2b00      	cmp	r3, #0
 8003068:	d07b      	beq.n	8003162 <HAL_RCCEx_GetPeriphCLKFreq+0x142>
        pllmul = aPLLMULFactorTable[(uint32_t)(temp_reg & RCC_CFGR_PLLMULL) >> RCC_CFGR_PLLMULL_Pos];
 800306a:	68fb      	ldr	r3, [r7, #12]
 800306c:	0c9b      	lsrs	r3, r3, #18
 800306e:	f003 030f 	and.w	r3, r3, #15
 8003072:	4a41      	ldr	r2, [pc, #260]	@ (8003178 <HAL_RCCEx_GetPeriphCLKFreq+0x158>)
 8003074:	5cd3      	ldrb	r3, [r2, r3]
 8003076:	613b      	str	r3, [r7, #16]
        if ((temp_reg & RCC_CFGR_PLLSRC) != RCC_PLLSOURCE_HSI_DIV2)
 8003078:	68fb      	ldr	r3, [r7, #12]
 800307a:	f403 3380 	and.w	r3, r3, #65536	@ 0x10000
 800307e:	2b00      	cmp	r3, #0
 8003080:	d015      	beq.n	80030ae <HAL_RCCEx_GetPeriphCLKFreq+0x8e>
          prediv1 = aPredivFactorTable[(uint32_t)(RCC->CFGR & RCC_CFGR_PLLXTPRE) >> RCC_CFGR_PLLXTPRE_Pos];
 8003082:	4b3c      	ldr	r3, [pc, #240]	@ (8003174 <HAL_RCCEx_GetPeriphCLKFreq+0x154>)
 8003084:	685b      	ldr	r3, [r3, #4]
 8003086:	0c5b      	lsrs	r3, r3, #17
 8003088:	f003 0301 	and.w	r3, r3, #1
 800308c:	4a3b      	ldr	r2, [pc, #236]	@ (800317c <HAL_RCCEx_GetPeriphCLKFreq+0x15c>)
 800308e:	5cd3      	ldrb	r3, [r2, r3]
 8003090:	617b      	str	r3, [r7, #20]
          if ((temp_reg & RCC_CFGR_PLLSRC) != RCC_PLLSOURCE_HSI_DIV2)
 8003092:	68fb      	ldr	r3, [r7, #12]
 8003094:	f403 3380 	and.w	r3, r3, #65536	@ 0x10000
 8003098:	2b00      	cmp	r3, #0
 800309a:	d00d      	beq.n	80030b8 <HAL_RCCEx_GetPeriphCLKFreq+0x98>
            pllclk = (uint32_t)((HSE_VALUE / prediv1) * pllmul);
 800309c:	4a38      	ldr	r2, [pc, #224]	@ (8003180 <HAL_RCCEx_GetPeriphCLKFreq+0x160>)
 800309e:	697b      	ldr	r3, [r7, #20]
 80030a0:	fbb2 f2f3 	udiv	r2, r2, r3
 80030a4:	693b      	ldr	r3, [r7, #16]
 80030a6:	fb02 f303 	mul.w	r3, r2, r3
 80030aa:	61fb      	str	r3, [r7, #28]
 80030ac:	e004      	b.n	80030b8 <HAL_RCCEx_GetPeriphCLKFreq+0x98>
          pllclk = (uint32_t)((HSI_VALUE >> 1) * pllmul);
 80030ae:	693b      	ldr	r3, [r7, #16]
 80030b0:	4a34      	ldr	r2, [pc, #208]	@ (8003184 <HAL_RCCEx_GetPeriphCLKFreq+0x164>)
 80030b2:	fb02 f303 	mul.w	r3, r2, r3
 80030b6:	61fb      	str	r3, [r7, #28]
        if (__HAL_RCC_GET_USB_SOURCE() == RCC_USBCLKSOURCE_PLL)
 80030b8:	4b2e      	ldr	r3, [pc, #184]	@ (8003174 <HAL_RCCEx_GetPeriphCLKFreq+0x154>)
 80030ba:	685b      	ldr	r3, [r3, #4]
 80030bc:	f403 0380 	and.w	r3, r3, #4194304	@ 0x400000
 80030c0:	f5b3 0f80 	cmp.w	r3, #4194304	@ 0x400000
 80030c4:	d102      	bne.n	80030cc <HAL_RCCEx_GetPeriphCLKFreq+0xac>
          frequency = pllclk;
 80030c6:	69fb      	ldr	r3, [r7, #28]
 80030c8:	61bb      	str	r3, [r7, #24]
      break;
 80030ca:	e04a      	b.n	8003162 <HAL_RCCEx_GetPeriphCLKFreq+0x142>
          frequency = (pllclk * 2) / 3;
 80030cc:	69fb      	ldr	r3, [r7, #28]
 80030ce:	005b      	lsls	r3, r3, #1
 80030d0:	4a2d      	ldr	r2, [pc, #180]	@ (8003188 <HAL_RCCEx_GetPeriphCLKFreq+0x168>)
 80030d2:	fba2 2303 	umull	r2, r3, r2, r3
 80030d6:	085b      	lsrs	r3, r3, #1
 80030d8:	61bb      	str	r3, [r7, #24]
      break;
 80030da:	e042      	b.n	8003162 <HAL_RCCEx_GetPeriphCLKFreq+0x142>
      temp_reg = RCC->BDCR;
 80030dc:	4b25      	ldr	r3, [pc, #148]	@ (8003174 <HAL_RCCEx_GetPeriphCLKFreq+0x154>)
 80030de:	6a1b      	ldr	r3, [r3, #32]
 80030e0:	60fb      	str	r3, [r7, #12]
      if (((temp_reg & RCC_BDCR_RTCSEL) == RCC_RTCCLKSOURCE_LSE) && (HAL_IS_BIT_SET(temp_reg, RCC_BDCR_LSERDY)))
 80030e2:	68fb      	ldr	r3, [r7, #12]
 80030e4:	f403 7340 	and.w	r3, r3, #768	@ 0x300
 80030e8:	f5b3 7f80 	cmp.w	r3, #256	@ 0x100
 80030ec:	d108      	bne.n	8003100 <HAL_RCCEx_GetPeriphCLKFreq+0xe0>
 80030ee:	68fb      	ldr	r3, [r7, #12]
 80030f0:	f003 0302 	and.w	r3, r3, #2
 80030f4:	2b00      	cmp	r3, #0
 80030f6:	d003      	beq.n	8003100 <HAL_RCCEx_GetPeriphCLKFreq+0xe0>
        frequency = LSE_VALUE;
 80030f8:	f44f 4300 	mov.w	r3, #32768	@ 0x8000
 80030fc:	61bb      	str	r3, [r7, #24]
 80030fe:	e01f      	b.n	8003140 <HAL_RCCEx_GetPeriphCLKFreq+0x120>
      else if (((temp_reg & RCC_BDCR_RTCSEL) == RCC_RTCCLKSOURCE_LSI) && (HAL_IS_BIT_SET(RCC->CSR, RCC_CSR_LSIRDY)))
 8003100:	68fb      	ldr	r3, [r7, #12]
 8003102:	f403 7340 	and.w	r3, r3, #768	@ 0x300
 8003106:	f5b3 7f00 	cmp.w	r3, #512	@ 0x200
 800310a:	d109      	bne.n	8003120 <HAL_RCCEx_GetPeriphCLKFreq+0x100>
 800310c:	4b19      	ldr	r3, [pc, #100]	@ (8003174 <HAL_RCCEx_GetPeriphCLKFreq+0x154>)
 800310e:	6a5b      	ldr	r3, [r3, #36]	@ 0x24
 8003110:	f003 0302 	and.w	r3, r3, #2
 8003114:	2b00      	cmp	r3, #0
 8003116:	d003      	beq.n	8003120 <HAL_RCCEx_GetPeriphCLKFreq+0x100>
        frequency = LSI_VALUE;
 8003118:	f649 4340 	movw	r3, #40000	@ 0x9c40
 800311c:	61bb      	str	r3, [r7, #24]
 800311e:	e00f      	b.n	8003140 <HAL_RCCEx_GetPeriphCLKFreq+0x120>
      else if (((temp_reg & RCC_BDCR_RTCSEL) == RCC_RTCCLKSOURCE_HSE_DIV128) && (HAL_IS_BIT_SET(RCC->CR, RCC_CR_HSERDY)))
 8003120:	68fb      	ldr	r3, [r7, #12]
 8003122:	f403 7340 	and.w	r3, r3, #768	@ 0x300
 8003126:	f5b3 7f40 	cmp.w	r3, #768	@ 0x300
 800312a:	d11c      	bne.n	8003166 <HAL_RCCEx_GetPeriphCLKFreq+0x146>
 800312c:	4b11      	ldr	r3, [pc, #68]	@ (8003174 <HAL_RCCEx_GetPeriphCLKFreq+0x154>)
 800312e:	681b      	ldr	r3, [r3, #0]
 8003130:	f403 3300 	and.w	r3, r3, #131072	@ 0x20000
 8003134:	2b00      	cmp	r3, #0
 8003136:	d016      	beq.n	8003166 <HAL_RCCEx_GetPeriphCLKFreq+0x146>
        frequency = HSE_VALUE / 128U;
 8003138:	f24f 4324 	movw	r3, #62500	@ 0xf424
 800313c:	61bb      	str	r3, [r7, #24]
      break;
 800313e:	e012      	b.n	8003166 <HAL_RCCEx_GetPeriphCLKFreq+0x146>
 8003140:	e011      	b.n	8003166 <HAL_RCCEx_GetPeriphCLKFreq+0x146>
      frequency = HAL_RCC_GetPCLK2Freq() / (((__HAL_RCC_GET_ADC_SOURCE() >> RCC_CFGR_ADCPRE_Pos) + 1) * 2);
 8003142:	f7ff fe85 	bl	8002e50 <HAL_RCC_GetPCLK2Freq>
 8003146:	4602      	mov	r2, r0
 8003148:	4b0a      	ldr	r3, [pc, #40]	@ (8003174 <HAL_RCCEx_GetPeriphCLKFreq+0x154>)
 800314a:	685b      	ldr	r3, [r3, #4]
 800314c:	0b9b      	lsrs	r3, r3, #14
 800314e:	f003 0303 	and.w	r3, r3, #3
 8003152:	3301      	adds	r3, #1
 8003154:	005b      	lsls	r3, r3, #1
 8003156:	fbb2 f3f3 	udiv	r3, r2, r3
 800315a:	61bb      	str	r3, [r7, #24]
      break;
 800315c:	e004      	b.n	8003168 <HAL_RCCEx_GetPeriphCLKFreq+0x148>
      break;
 800315e:	bf00      	nop
 8003160:	e002      	b.n	8003168 <HAL_RCCEx_GetPeriphCLKFreq+0x148>
      break;
 8003162:	bf00      	nop
 8003164:	e000      	b.n	8003168 <HAL_RCCEx_GetPeriphCLKFreq+0x148>
      break;
 8003166:	bf00      	nop
    }
  }
  return (frequency);
 8003168:	69bb      	ldr	r3, [r7, #24]
}
 800316a:	4618      	mov	r0, r3
 800316c:	3720      	adds	r7, #32
 800316e:	46bd      	mov	sp, r7
 8003170:	bd80      	pop	{r7, pc}
 8003172:	bf00      	nop
 8003174:	40021000 	.word	0x40021000
 8003178:	08006040 	.word	0x08006040
 800317c:	08006050 	.word	0x08006050
 8003180:	007a1200 	.word	0x007a1200
 8003184:	003d0900 	.word	0x003d0900
 8003188:	aaaaaaab 	.word	0xaaaaaaab

0800318c <HAL_UART_Init>:
  * @param  huart  Pointer to a UART_HandleTypeDef structure that contains
  *                the configuration information for the specified UART module.
  * @retval HAL status
  */
HAL_StatusTypeDef HAL_UART_Init(UART_HandleTypeDef *huart)
{
 800318c:	b580      	push	{r7, lr}
 800318e:	b082      	sub	sp, #8
 8003190:	af00      	add	r7, sp, #0
 8003192:	6078      	str	r0, [r7, #4]
  /* Check the UART handle allocation */
  if (huart == NULL)
 8003194:	687b      	ldr	r3, [r7, #4]
 8003196:	2b00      	cmp	r3, #0
 8003198:	d101      	bne.n	800319e <HAL_UART_Init+0x12>
  {
    return HAL_ERROR;
 800319a:	2301      	movs	r3, #1
 800319c:	e042      	b.n	8003224 <HAL_UART_Init+0x98>
  assert_param(IS_UART_WORD_LENGTH(huart->Init.WordLength));
#if defined(USART_CR1_OVER8)
  assert_param(IS_UART_OVERSAMPLING(huart->Init.OverSampling));
#endif /* USART_CR1_OVER8 */

  if (huart->gState == HAL_UART_STATE_RESET)
 800319e:	687b      	ldr	r3, [r7, #4]
 80031a0:	f893 3041 	ldrb.w	r3, [r3, #65]	@ 0x41
 80031a4:	b2db      	uxtb	r3, r3
 80031a6:	2b00      	cmp	r3, #0
 80031a8:	d106      	bne.n	80031b8 <HAL_UART_Init+0x2c>
  {
    /* Allocate lock resource and initialize it */
    huart->Lock = HAL_UNLOCKED;
 80031aa:	687b      	ldr	r3, [r7, #4]
 80031ac:	2200      	movs	r2, #0
 80031ae:	f883 2040 	strb.w	r2, [r3, #64]	@ 0x40

    /* Init the low level hardware */
    huart->MspInitCallback(huart);
#else
    /* Init the low level hardware : GPIO, CLOCK */
    HAL_UART_MspInit(huart);
 80031b2:	6878      	ldr	r0, [r7, #4]
 80031b4:	f7fe f8e2 	bl	800137c <HAL_UART_MspInit>
#endif /* (USE_HAL_UART_REGISTER_CALLBACKS) */
  }

  huart->gState = HAL_UART_STATE_BUSY;
 80031b8:	687b      	ldr	r3, [r7, #4]
 80031ba:	2224      	movs	r2, #36	@ 0x24
 80031bc:	f883 2041 	strb.w	r2, [r3, #65]	@ 0x41

  /* Disable the peripheral */
  __HAL_UART_DISABLE(huart);
 80031c0:	687b      	ldr	r3, [r7, #4]
 80031c2:	681b      	ldr	r3, [r3, #0]
 80031c4:	68da      	ldr	r2, [r3, #12]
 80031c6:	687b      	ldr	r3, [r7, #4]
 80031c8:	681b      	ldr	r3, [r3, #0]
 80031ca:	f422 5200 	bic.w	r2, r2, #8192	@ 0x2000
 80031ce:	60da      	str	r2, [r3, #12]

  /* Set the UART Communication parameters */
  UART_SetConfig(huart);
 80031d0:	6878      	ldr	r0, [r7, #4]
 80031d2:	f000 f971 	bl	80034b8 <UART_SetConfig>

  /* In asynchronous mode, the following bits must be kept cleared:
     - LINEN and CLKEN bits in the USART_CR2 register,
     - SCEN, HDSEL and IREN  bits in the USART_CR3 register.*/
  CLEAR_BIT(huart->Instance->CR2, (USART_CR2_LINEN | USART_CR2_CLKEN));
 80031d6:	687b      	ldr	r3, [r7, #4]
 80031d8:	681b      	ldr	r3, [r3, #0]
 80031da:	691a      	ldr	r2, [r3, #16]
 80031dc:	687b      	ldr	r3, [r7, #4]
 80031de:	681b      	ldr	r3, [r3, #0]
 80031e0:	f422 4290 	bic.w	r2, r2, #18432	@ 0x4800
 80031e4:	611a      	str	r2, [r3, #16]
  CLEAR_BIT(huart->Instance->CR3, (USART_CR3_SCEN | USART_CR3_HDSEL | USART_CR3_IREN));
 80031e6:	687b      	ldr	r3, [r7, #4]
 80031e8:	681b      	ldr	r3, [r3, #0]
 80031ea:	695a      	ldr	r2, [r3, #20]
 80031ec:	687b      	ldr	r3, [r7, #4]
 80031ee:	681b      	ldr	r3, [r3, #0]
 80031f0:	f022 022a 	bic.w	r2, r2, #42	@ 0x2a
 80031f4:	615a      	str	r2, [r3, #20]

  /* Enable the peripheral */
  __HAL_UART_ENABLE(huart);
 80031f6:	687b      	ldr	r3, [r7, #4]
 80031f8:	681b      	ldr	r3, [r3, #0]
 80031fa:	68da      	ldr	r2, [r3, #12]
 80031fc:	687b      	ldr	r3, [r7, #4]
 80031fe:	681b      	ldr	r3, [r3, #0]
 8003200:	f442 5200 	orr.w	r2, r2, #8192	@ 0x2000
 8003204:	60da      	str	r2, [r3, #12]

  /* Initialize the UART state */
  huart->ErrorCode = HAL_UART_ERROR_NONE;
 8003206:	687b      	ldr	r3, [r7, #4]
 8003208:	2200      	movs	r2, #0
 800320a:	645a      	str	r2, [r3, #68]	@ 0x44
  huart->gState = HAL_UART_STATE_READY;
 800320c:	687b      	ldr	r3, [r7, #4]
 800320e:	2220      	movs	r2, #32
 8003210:	f883 2041 	strb.w	r2, [r3, #65]	@ 0x41
  huart->RxState = HAL_UART_STATE_READY;
 8003214:	687b      	ldr	r3, [r7, #4]
 8003216:	2220      	movs	r2, #32
 8003218:	f883 2042 	strb.w	r2, [r3, #66]	@ 0x42
  huart->RxEventType = HAL_UART_RXEVENT_TC;
 800321c:	687b      	ldr	r3, [r7, #4]
 800321e:	2200      	movs	r2, #0
 8003220:	635a      	str	r2, [r3, #52]	@ 0x34

  return HAL_OK;
 8003222:	2300      	movs	r3, #0
}
 8003224:	4618      	mov	r0, r3
 8003226:	3708      	adds	r7, #8
 8003228:	46bd      	mov	sp, r7
 800322a:	bd80      	pop	{r7, pc}

0800322c <HAL_UART_Transmit>:
  * @param  Size  Amount of data elements (u8 or u16) to be sent
  * @param  Timeout Timeout duration
  * @retval HAL status
  */
HAL_StatusTypeDef HAL_UART_Transmit(UART_HandleTypeDef *huart, const uint8_t *pData, uint16_t Size, uint32_t Timeout)
{
 800322c:	b580      	push	{r7, lr}
 800322e:	b08a      	sub	sp, #40	@ 0x28
 8003230:	af02      	add	r7, sp, #8
 8003232:	60f8      	str	r0, [r7, #12]
 8003234:	60b9      	str	r1, [r7, #8]
 8003236:	603b      	str	r3, [r7, #0]
 8003238:	4613      	mov	r3, r2
 800323a:	80fb      	strh	r3, [r7, #6]
  const uint8_t  *pdata8bits;
  const uint16_t *pdata16bits;
  uint32_t tickstart = 0U;
 800323c:	2300      	movs	r3, #0
 800323e:	617b      	str	r3, [r7, #20]

  /* Check that a Tx process is not already ongoing */
  if (huart->gState == HAL_UART_STATE_READY)
 8003240:	68fb      	ldr	r3, [r7, #12]
 8003242:	f893 3041 	ldrb.w	r3, [r3, #65]	@ 0x41
 8003246:	b2db      	uxtb	r3, r3
 8003248:	2b20      	cmp	r3, #32
 800324a:	d175      	bne.n	8003338 <HAL_UART_Transmit+0x10c>
  {
    if ((pData == NULL) || (Size == 0U))
 800324c:	68bb      	ldr	r3, [r7, #8]
 800324e:	2b00      	cmp	r3, #0
 8003250:	d002      	beq.n	8003258 <HAL_UART_Transmit+0x2c>
 8003252:	88fb      	ldrh	r3, [r7, #6]
 8003254:	2b00      	cmp	r3, #0
 8003256:	d101      	bne.n	800325c <HAL_UART_Transmit+0x30>
    {
      return  HAL_ERROR;
 8003258:	2301      	movs	r3, #1
 800325a:	e06e      	b.n	800333a <HAL_UART_Transmit+0x10e>
    }

    huart->ErrorCode = HAL_UART_ERROR_NONE;
 800325c:	68fb      	ldr	r3, [r7, #12]
 800325e:	2200      	movs	r2, #0
 8003260:	645a      	str	r2, [r3, #68]	@ 0x44
    huart->gState = HAL_UART_STATE_BUSY_TX;
 8003262:	68fb      	ldr	r3, [r7, #12]
 8003264:	2221      	movs	r2, #33	@ 0x21
 8003266:	f883 2041 	strb.w	r2, [r3, #65]	@ 0x41

    /* Init tickstart for timeout management */
    tickstart = HAL_GetTick();
 800326a:	f7fe fa3f 	bl	80016ec <HAL_GetTick>
 800326e:	6178      	str	r0, [r7, #20]

    huart->TxXferSize = Size;
 8003270:	68fb      	ldr	r3, [r7, #12]
 8003272:	88fa      	ldrh	r2, [r7, #6]
 8003274:	849a      	strh	r2, [r3, #36]	@ 0x24
    huart->TxXferCount = Size;
 8003276:	68fb      	ldr	r3, [r7, #12]
 8003278:	88fa      	ldrh	r2, [r7, #6]
 800327a:	84da      	strh	r2, [r3, #38]	@ 0x26

    /* In case of 9bits/No Parity transfer, pData needs to be handled as a uint16_t pointer */
    if ((huart->Init.WordLength == UART_WORDLENGTH_9B) && (huart->Init.Parity == UART_PARITY_NONE))
 800327c:	68fb      	ldr	r3, [r7, #12]
 800327e:	689b      	ldr	r3, [r3, #8]
 8003280:	f5b3 5f80 	cmp.w	r3, #4096	@ 0x1000
 8003284:	d108      	bne.n	8003298 <HAL_UART_Transmit+0x6c>
 8003286:	68fb      	ldr	r3, [r7, #12]
 8003288:	691b      	ldr	r3, [r3, #16]
 800328a:	2b00      	cmp	r3, #0
 800328c:	d104      	bne.n	8003298 <HAL_UART_Transmit+0x6c>
    {
      pdata8bits  = NULL;
 800328e:	2300      	movs	r3, #0
 8003290:	61fb      	str	r3, [r7, #28]
      pdata16bits = (const uint16_t *) pData;
 8003292:	68bb      	ldr	r3, [r7, #8]
 8003294:	61bb      	str	r3, [r7, #24]
 8003296:	e003      	b.n	80032a0 <HAL_UART_Transmit+0x74>
    }
    else
    {
      pdata8bits  = pData;
 8003298:	68bb      	ldr	r3, [r7, #8]
 800329a:	61fb      	str	r3, [r7, #28]
      pdata16bits = NULL;
 800329c:	2300      	movs	r3, #0
 800329e:	61bb      	str	r3, [r7, #24]
    }

    while (huart->TxXferCount > 0U)
 80032a0:	e02e      	b.n	8003300 <HAL_UART_Transmit+0xd4>
    {
      if (UART_WaitOnFlagUntilTimeout(huart, UART_FLAG_TXE, RESET, tickstart, Timeout) != HAL_OK)
 80032a2:	683b      	ldr	r3, [r7, #0]
 80032a4:	9300      	str	r3, [sp, #0]
 80032a6:	697b      	ldr	r3, [r7, #20]
 80032a8:	2200      	movs	r2, #0
 80032aa:	2180      	movs	r1, #128	@ 0x80
 80032ac:	68f8      	ldr	r0, [r7, #12]
 80032ae:	f000 f848 	bl	8003342 <UART_WaitOnFlagUntilTimeout>
 80032b2:	4603      	mov	r3, r0
 80032b4:	2b00      	cmp	r3, #0
 80032b6:	d005      	beq.n	80032c4 <HAL_UART_Transmit+0x98>
      {
        huart->gState = HAL_UART_STATE_READY;
 80032b8:	68fb      	ldr	r3, [r7, #12]
 80032ba:	2220      	movs	r2, #32
 80032bc:	f883 2041 	strb.w	r2, [r3, #65]	@ 0x41

        return HAL_TIMEOUT;
 80032c0:	2303      	movs	r3, #3
 80032c2:	e03a      	b.n	800333a <HAL_UART_Transmit+0x10e>
      }
      if (pdata8bits == NULL)
 80032c4:	69fb      	ldr	r3, [r7, #28]
 80032c6:	2b00      	cmp	r3, #0
 80032c8:	d10b      	bne.n	80032e2 <HAL_UART_Transmit+0xb6>
      {
        huart->Instance->DR = (uint16_t)(*pdata16bits & 0x01FFU);
 80032ca:	69bb      	ldr	r3, [r7, #24]
 80032cc:	881b      	ldrh	r3, [r3, #0]
 80032ce:	461a      	mov	r2, r3
 80032d0:	68fb      	ldr	r3, [r7, #12]
 80032d2:	681b      	ldr	r3, [r3, #0]
 80032d4:	f3c2 0208 	ubfx	r2, r2, #0, #9
 80032d8:	605a      	str	r2, [r3, #4]
        pdata16bits++;
 80032da:	69bb      	ldr	r3, [r7, #24]
 80032dc:	3302      	adds	r3, #2
 80032de:	61bb      	str	r3, [r7, #24]
 80032e0:	e007      	b.n	80032f2 <HAL_UART_Transmit+0xc6>
      }
      else
      {
        huart->Instance->DR = (uint8_t)(*pdata8bits & 0xFFU);
 80032e2:	69fb      	ldr	r3, [r7, #28]
 80032e4:	781a      	ldrb	r2, [r3, #0]
 80032e6:	68fb      	ldr	r3, [r7, #12]
 80032e8:	681b      	ldr	r3, [r3, #0]
 80032ea:	605a      	str	r2, [r3, #4]
        pdata8bits++;
 80032ec:	69fb      	ldr	r3, [r7, #28]
 80032ee:	3301      	adds	r3, #1
 80032f0:	61fb      	str	r3, [r7, #28]
      }
      huart->TxXferCount--;
 80032f2:	68fb      	ldr	r3, [r7, #12]
 80032f4:	8cdb      	ldrh	r3, [r3, #38]	@ 0x26
 80032f6:	b29b      	uxth	r3, r3
 80032f8:	3b01      	subs	r3, #1
 80032fa:	b29a      	uxth	r2, r3
 80032fc:	68fb      	ldr	r3, [r7, #12]
 80032fe:	84da      	strh	r2, [r3, #38]	@ 0x26
    while (huart->TxXferCount > 0U)
 8003300:	68fb      	ldr	r3, [r7, #12]
 8003302:	8cdb      	ldrh	r3, [r3, #38]	@ 0x26
 8003304:	b29b      	uxth	r3, r3
 8003306:	2b00      	cmp	r3, #0
 8003308:	d1cb      	bne.n	80032a2 <HAL_UART_Transmit+0x76>
    }

    if (UART_WaitOnFlagUntilTimeout(huart, UART_FLAG_TC, RESET, tickstart, Timeout) != HAL_OK)
 800330a:	683b      	ldr	r3, [r7, #0]
 800330c:	9300      	str	r3, [sp, #0]
 800330e:	697b      	ldr	r3, [r7, #20]
 8003310:	2200      	movs	r2, #0
 8003312:	2140      	movs	r1, #64	@ 0x40
 8003314:	68f8      	ldr	r0, [r7, #12]
 8003316:	f000 f814 	bl	8003342 <UART_WaitOnFlagUntilTimeout>
 800331a:	4603      	mov	r3, r0
 800331c:	2b00      	cmp	r3, #0
 800331e:	d005      	beq.n	800332c <HAL_UART_Transmit+0x100>
    {
      huart->gState = HAL_UART_STATE_READY;
 8003320:	68fb      	ldr	r3, [r7, #12]
 8003322:	2220      	movs	r2, #32
 8003324:	f883 2041 	strb.w	r2, [r3, #65]	@ 0x41

      return HAL_TIMEOUT;
 8003328:	2303      	movs	r3, #3
 800332a:	e006      	b.n	800333a <HAL_UART_Transmit+0x10e>
    }

    /* At end of Tx process, restore huart->gState to Ready */
    huart->gState = HAL_UART_STATE_READY;
 800332c:	68fb      	ldr	r3, [r7, #12]
 800332e:	2220      	movs	r2, #32
 8003330:	f883 2041 	strb.w	r2, [r3, #65]	@ 0x41

    return HAL_OK;
 8003334:	2300      	movs	r3, #0
 8003336:	e000      	b.n	800333a <HAL_UART_Transmit+0x10e>
  }
  else
  {
    return HAL_BUSY;
 8003338:	2302      	movs	r3, #2
  }
}
 800333a:	4618      	mov	r0, r3
 800333c:	3720      	adds	r7, #32
 800333e:	46bd      	mov	sp, r7
 8003340:	bd80      	pop	{r7, pc}

08003342 <UART_WaitOnFlagUntilTimeout>:
  * @param  Timeout Timeout duration
  * @retval HAL status
  */
static HAL_StatusTypeDef UART_WaitOnFlagUntilTimeout(UART_HandleTypeDef *huart, uint32_t Flag, FlagStatus Status,
                                                     uint32_t Tickstart, uint32_t Timeout)
{
 8003342:	b580      	push	{r7, lr}
 8003344:	b086      	sub	sp, #24
 8003346:	af00      	add	r7, sp, #0
 8003348:	60f8      	str	r0, [r7, #12]
 800334a:	60b9      	str	r1, [r7, #8]
 800334c:	603b      	str	r3, [r7, #0]
 800334e:	4613      	mov	r3, r2
 8003350:	71fb      	strb	r3, [r7, #7]
  /* Wait until flag is set */
  while ((__HAL_UART_GET_FLAG(huart, Flag) ? SET : RESET) == Status)
 8003352:	e03b      	b.n	80033cc <UART_WaitOnFlagUntilTimeout+0x8a>
  {
    /* Check for the Timeout */
    if (Timeout != HAL_MAX_DELAY)
 8003354:	6a3b      	ldr	r3, [r7, #32]
 8003356:	f1b3 3fff 	cmp.w	r3, #4294967295
 800335a:	d037      	beq.n	80033cc <UART_WaitOnFlagUntilTimeout+0x8a>
    {
      if (((HAL_GetTick() - Tickstart) > Timeout) || (Timeout == 0U))
 800335c:	f7fe f9c6 	bl	80016ec <HAL_GetTick>
 8003360:	4602      	mov	r2, r0
 8003362:	683b      	ldr	r3, [r7, #0]
 8003364:	1ad3      	subs	r3, r2, r3
 8003366:	6a3a      	ldr	r2, [r7, #32]
 8003368:	429a      	cmp	r2, r3
 800336a:	d302      	bcc.n	8003372 <UART_WaitOnFlagUntilTimeout+0x30>
 800336c:	6a3b      	ldr	r3, [r7, #32]
 800336e:	2b00      	cmp	r3, #0
 8003370:	d101      	bne.n	8003376 <UART_WaitOnFlagUntilTimeout+0x34>
      {

        return HAL_TIMEOUT;
 8003372:	2303      	movs	r3, #3
 8003374:	e03a      	b.n	80033ec <UART_WaitOnFlagUntilTimeout+0xaa>
      }

      if ((READ_BIT(huart->Instance->CR1, USART_CR1_RE) != 0U) && (Flag != UART_FLAG_TXE) && (Flag != UART_FLAG_TC))
 8003376:	68fb      	ldr	r3, [r7, #12]
 8003378:	681b      	ldr	r3, [r3, #0]
 800337a:	68db      	ldr	r3, [r3, #12]
 800337c:	f003 0304 	and.w	r3, r3, #4
 8003380:	2b00      	cmp	r3, #0
 8003382:	d023      	beq.n	80033cc <UART_WaitOnFlagUntilTimeout+0x8a>
 8003384:	68bb      	ldr	r3, [r7, #8]
 8003386:	2b80      	cmp	r3, #128	@ 0x80
 8003388:	d020      	beq.n	80033cc <UART_WaitOnFlagUntilTimeout+0x8a>
 800338a:	68bb      	ldr	r3, [r7, #8]
 800338c:	2b40      	cmp	r3, #64	@ 0x40
 800338e:	d01d      	beq.n	80033cc <UART_WaitOnFlagUntilTimeout+0x8a>
      {
        if (__HAL_UART_GET_FLAG(huart, UART_FLAG_ORE) == SET)
 8003390:	68fb      	ldr	r3, [r7, #12]
 8003392:	681b      	ldr	r3, [r3, #0]
 8003394:	681b      	ldr	r3, [r3, #0]
 8003396:	f003 0308 	and.w	r3, r3, #8
 800339a:	2b08      	cmp	r3, #8
 800339c:	d116      	bne.n	80033cc <UART_WaitOnFlagUntilTimeout+0x8a>
        {
          /* Clear Overrun Error flag*/
          __HAL_UART_CLEAR_OREFLAG(huart);
 800339e:	2300      	movs	r3, #0
 80033a0:	617b      	str	r3, [r7, #20]
 80033a2:	68fb      	ldr	r3, [r7, #12]
 80033a4:	681b      	ldr	r3, [r3, #0]
 80033a6:	681b      	ldr	r3, [r3, #0]
 80033a8:	617b      	str	r3, [r7, #20]
 80033aa:	68fb      	ldr	r3, [r7, #12]
 80033ac:	681b      	ldr	r3, [r3, #0]
 80033ae:	685b      	ldr	r3, [r3, #4]
 80033b0:	617b      	str	r3, [r7, #20]
 80033b2:	697b      	ldr	r3, [r7, #20]

          /* Blocking error : transfer is aborted
          Set the UART state ready to be able to start again the process,
          Disable Rx Interrupts if ongoing */
          UART_EndRxTransfer(huart);
 80033b4:	68f8      	ldr	r0, [r7, #12]
 80033b6:	f000 f81d 	bl	80033f4 <UART_EndRxTransfer>

          huart->ErrorCode = HAL_UART_ERROR_ORE;
 80033ba:	68fb      	ldr	r3, [r7, #12]
 80033bc:	2208      	movs	r2, #8
 80033be:	645a      	str	r2, [r3, #68]	@ 0x44

          /* Process Unlocked */
          __HAL_UNLOCK(huart);
 80033c0:	68fb      	ldr	r3, [r7, #12]
 80033c2:	2200      	movs	r2, #0
 80033c4:	f883 2040 	strb.w	r2, [r3, #64]	@ 0x40

          return HAL_ERROR;
 80033c8:	2301      	movs	r3, #1
 80033ca:	e00f      	b.n	80033ec <UART_WaitOnFlagUntilTimeout+0xaa>
  while ((__HAL_UART_GET_FLAG(huart, Flag) ? SET : RESET) == Status)
 80033cc:	68fb      	ldr	r3, [r7, #12]
 80033ce:	681b      	ldr	r3, [r3, #0]
 80033d0:	681a      	ldr	r2, [r3, #0]
 80033d2:	68bb      	ldr	r3, [r7, #8]
 80033d4:	4013      	ands	r3, r2
 80033d6:	68ba      	ldr	r2, [r7, #8]
 80033d8:	429a      	cmp	r2, r3
 80033da:	bf0c      	ite	eq
 80033dc:	2301      	moveq	r3, #1
 80033de:	2300      	movne	r3, #0
 80033e0:	b2db      	uxtb	r3, r3
 80033e2:	461a      	mov	r2, r3
 80033e4:	79fb      	ldrb	r3, [r7, #7]
 80033e6:	429a      	cmp	r2, r3
 80033e8:	d0b4      	beq.n	8003354 <UART_WaitOnFlagUntilTimeout+0x12>
        }
      }
    }
  }
  return HAL_OK;
 80033ea:	2300      	movs	r3, #0
}
 80033ec:	4618      	mov	r0, r3
 80033ee:	3718      	adds	r7, #24
 80033f0:	46bd      	mov	sp, r7
 80033f2:	bd80      	pop	{r7, pc}

080033f4 <UART_EndRxTransfer>:
  * @brief  End ongoing Rx transfer on UART peripheral (following error detection or Reception completion).
  * @param  huart UART handle.
  * @retval None
  */
static void UART_EndRxTransfer(UART_HandleTypeDef *huart)
{
 80033f4:	b480      	push	{r7}
 80033f6:	b095      	sub	sp, #84	@ 0x54
 80033f8:	af00      	add	r7, sp, #0
 80033fa:	6078      	str	r0, [r7, #4]
  /* Disable RXNE, PE and ERR (Frame error, noise error, overrun error) interrupts */
  ATOMIC_CLEAR_BIT(huart->Instance->CR1, (USART_CR1_RXNEIE | USART_CR1_PEIE));
 80033fc:	687b      	ldr	r3, [r7, #4]
 80033fe:	681b      	ldr	r3, [r3, #0]
 8003400:	330c      	adds	r3, #12
 8003402:	637b      	str	r3, [r7, #52]	@ 0x34
 */
__STATIC_FORCEINLINE uint32_t __LDREXW(volatile uint32_t *addr)
{
    uint32_t result;

   __ASM volatile ("ldrex %0, %1" : "=r" (result) : "Q" (*addr) );
 8003404:	6b7b      	ldr	r3, [r7, #52]	@ 0x34
 8003406:	e853 3f00 	ldrex	r3, [r3]
 800340a:	633b      	str	r3, [r7, #48]	@ 0x30
   return(result);
 800340c:	6b3b      	ldr	r3, [r7, #48]	@ 0x30
 800340e:	f423 7390 	bic.w	r3, r3, #288	@ 0x120
 8003412:	64fb      	str	r3, [r7, #76]	@ 0x4c
 8003414:	687b      	ldr	r3, [r7, #4]
 8003416:	681b      	ldr	r3, [r3, #0]
 8003418:	330c      	adds	r3, #12
 800341a:	6cfa      	ldr	r2, [r7, #76]	@ 0x4c
 800341c:	643a      	str	r2, [r7, #64]	@ 0x40
 800341e:	63fb      	str	r3, [r7, #60]	@ 0x3c
 */
__STATIC_FORCEINLINE uint32_t __STREXW(uint32_t value, volatile uint32_t *addr)
{
   uint32_t result;

   __ASM volatile ("strex %0, %2, %1" : "=&r" (result), "=Q" (*addr) : "r" (value) );
 8003420:	6bf9      	ldr	r1, [r7, #60]	@ 0x3c
 8003422:	6c3a      	ldr	r2, [r7, #64]	@ 0x40
 8003424:	e841 2300 	strex	r3, r2, [r1]
 8003428:	63bb      	str	r3, [r7, #56]	@ 0x38
   return(result);
 800342a:	6bbb      	ldr	r3, [r7, #56]	@ 0x38
 800342c:	2b00      	cmp	r3, #0
 800342e:	d1e5      	bne.n	80033fc <UART_EndRxTransfer+0x8>
  ATOMIC_CLEAR_BIT(huart->Instance->CR3, USART_CR3_EIE);
 8003430:	687b      	ldr	r3, [r7, #4]
 8003432:	681b      	ldr	r3, [r3, #0]
 8003434:	3314      	adds	r3, #20
 8003436:	623b      	str	r3, [r7, #32]
   __ASM volatile ("ldrex %0, %1" : "=r" (result) : "Q" (*addr) );
 8003438:	6a3b      	ldr	r3, [r7, #32]
 800343a:	e853 3f00 	ldrex	r3, [r3]
 800343e:	61fb      	str	r3, [r7, #28]
   return(result);
 8003440:	69fb      	ldr	r3, [r7, #28]
 8003442:	f023 0301 	bic.w	r3, r3, #1
 8003446:	64bb      	str	r3, [r7, #72]	@ 0x48
 8003448:	687b      	ldr	r3, [r7, #4]
 800344a:	681b      	ldr	r3, [r3, #0]
 800344c:	3314      	adds	r3, #20
 800344e:	6cba      	ldr	r2, [r7, #72]	@ 0x48
 8003450:	62fa      	str	r2, [r7, #44]	@ 0x2c
 8003452:	62bb      	str	r3, [r7, #40]	@ 0x28
   __ASM volatile ("strex %0, %2, %1" : "=&r" (result), "=Q" (*addr) : "r" (value) );
 8003454:	6ab9      	ldr	r1, [r7, #40]	@ 0x28
 8003456:	6afa      	ldr	r2, [r7, #44]	@ 0x2c
 8003458:	e841 2300 	strex	r3, r2, [r1]
 800345c:	627b      	str	r3, [r7, #36]	@ 0x24
   return(result);
 800345e:	6a7b      	ldr	r3, [r7, #36]	@ 0x24
 8003460:	2b00      	cmp	r3, #0
 8003462:	d1e5      	bne.n	8003430 <UART_EndRxTransfer+0x3c>

  /* In case of reception waiting for IDLE event, disable also the IDLE IE interrupt source */
  if (huart->ReceptionType == HAL_UART_RECEPTION_TOIDLE)
 8003464:	687b      	ldr	r3, [r7, #4]
 8003466:	6b1b      	ldr	r3, [r3, #48]	@ 0x30
 8003468:	2b01      	cmp	r3, #1
 800346a:	d119      	bne.n	80034a0 <UART_EndRxTransfer+0xac>
  {
    ATOMIC_CLEAR_BIT(huart->Instance->CR1, USART_CR1_IDLEIE);
 800346c:	687b      	ldr	r3, [r7, #4]
 800346e:	681b      	ldr	r3, [r3, #0]
 8003470:	330c      	adds	r3, #12
 8003472:	60fb      	str	r3, [r7, #12]
   __ASM volatile ("ldrex %0, %1" : "=r" (result) : "Q" (*addr) );
 8003474:	68fb      	ldr	r3, [r7, #12]
 8003476:	e853 3f00 	ldrex	r3, [r3]
 800347a:	60bb      	str	r3, [r7, #8]
   return(result);
 800347c:	68bb      	ldr	r3, [r7, #8]
 800347e:	f023 0310 	bic.w	r3, r3, #16
 8003482:	647b      	str	r3, [r7, #68]	@ 0x44
 8003484:	687b      	ldr	r3, [r7, #4]
 8003486:	681b      	ldr	r3, [r3, #0]
 8003488:	330c      	adds	r3, #12
 800348a:	6c7a      	ldr	r2, [r7, #68]	@ 0x44
 800348c:	61ba      	str	r2, [r7, #24]
 800348e:	617b      	str	r3, [r7, #20]
   __ASM volatile ("strex %0, %2, %1" : "=&r" (result), "=Q" (*addr) : "r" (value) );
 8003490:	6979      	ldr	r1, [r7, #20]
 8003492:	69ba      	ldr	r2, [r7, #24]
 8003494:	e841 2300 	strex	r3, r2, [r1]
 8003498:	613b      	str	r3, [r7, #16]
   return(result);
 800349a:	693b      	ldr	r3, [r7, #16]
 800349c:	2b00      	cmp	r3, #0
 800349e:	d1e5      	bne.n	800346c <UART_EndRxTransfer+0x78>
  }

  /* At end of Rx process, restore huart->RxState to Ready */
  huart->RxState = HAL_UART_STATE_READY;
 80034a0:	687b      	ldr	r3, [r7, #4]
 80034a2:	2220      	movs	r2, #32
 80034a4:	f883 2042 	strb.w	r2, [r3, #66]	@ 0x42
  huart->ReceptionType = HAL_UART_RECEPTION_STANDARD;
 80034a8:	687b      	ldr	r3, [r7, #4]
 80034aa:	2200      	movs	r2, #0
 80034ac:	631a      	str	r2, [r3, #48]	@ 0x30
}
 80034ae:	bf00      	nop
 80034b0:	3754      	adds	r7, #84	@ 0x54
 80034b2:	46bd      	mov	sp, r7
 80034b4:	bc80      	pop	{r7}
 80034b6:	4770      	bx	lr

080034b8 <UART_SetConfig>:
  * @param  huart  Pointer to a UART_HandleTypeDef structure that contains
  *                the configuration information for the specified UART module.
  * @retval None
  */
static void UART_SetConfig(UART_HandleTypeDef *huart)
{
 80034b8:	b580      	push	{r7, lr}
 80034ba:	b084      	sub	sp, #16
 80034bc:	af00      	add	r7, sp, #0
 80034be:	6078      	str	r0, [r7, #4]
  assert_param(IS_UART_MODE(huart->Init.Mode));

  /*-------------------------- USART CR2 Configuration -----------------------*/
  /* Configure the UART Stop Bits: Set STOP[13:12] bits
     according to huart->Init.StopBits value */
  MODIFY_REG(huart->Instance->CR2, USART_CR2_STOP, huart->Init.StopBits);
 80034c0:	687b      	ldr	r3, [r7, #4]
 80034c2:	681b      	ldr	r3, [r3, #0]
 80034c4:	691b      	ldr	r3, [r3, #16]
 80034c6:	f423 5140 	bic.w	r1, r3, #12288	@ 0x3000
 80034ca:	687b      	ldr	r3, [r7, #4]
 80034cc:	68da      	ldr	r2, [r3, #12]
 80034ce:	687b      	ldr	r3, [r7, #4]
 80034d0:	681b      	ldr	r3, [r3, #0]
 80034d2:	430a      	orrs	r2, r1
 80034d4:	611a      	str	r2, [r3, #16]
  tmpreg = (uint32_t)huart->Init.WordLength | huart->Init.Parity | huart->Init.Mode | huart->Init.OverSampling;
  MODIFY_REG(huart->Instance->CR1,
             (uint32_t)(USART_CR1_M | USART_CR1_PCE | USART_CR1_PS | USART_CR1_TE | USART_CR1_RE | USART_CR1_OVER8),
             tmpreg);
#else
  tmpreg = (uint32_t)huart->Init.WordLength | huart->Init.Parity | huart->Init.Mode;
 80034d6:	687b      	ldr	r3, [r7, #4]
 80034d8:	689a      	ldr	r2, [r3, #8]
 80034da:	687b      	ldr	r3, [r7, #4]
 80034dc:	691b      	ldr	r3, [r3, #16]
 80034de:	431a      	orrs	r2, r3
 80034e0:	687b      	ldr	r3, [r7, #4]
 80034e2:	695b      	ldr	r3, [r3, #20]
 80034e4:	4313      	orrs	r3, r2
 80034e6:	60bb      	str	r3, [r7, #8]
  MODIFY_REG(huart->Instance->CR1,
 80034e8:	687b      	ldr	r3, [r7, #4]
 80034ea:	681b      	ldr	r3, [r3, #0]
 80034ec:	68db      	ldr	r3, [r3, #12]
 80034ee:	f423 53b0 	bic.w	r3, r3, #5632	@ 0x1600
 80034f2:	f023 030c 	bic.w	r3, r3, #12
 80034f6:	687a      	ldr	r2, [r7, #4]
 80034f8:	6812      	ldr	r2, [r2, #0]
 80034fa:	68b9      	ldr	r1, [r7, #8]
 80034fc:	430b      	orrs	r3, r1
 80034fe:	60d3      	str	r3, [r2, #12]
             tmpreg);
#endif /* USART_CR1_OVER8 */

  /*-------------------------- USART CR3 Configuration -----------------------*/
  /* Configure the UART HFC: Set CTSE and RTSE bits according to huart->Init.HwFlowCtl value */
  MODIFY_REG(huart->Instance->CR3, (USART_CR3_RTSE | USART_CR3_CTSE), huart->Init.HwFlowCtl);
 8003500:	687b      	ldr	r3, [r7, #4]
 8003502:	681b      	ldr	r3, [r3, #0]
 8003504:	695b      	ldr	r3, [r3, #20]
 8003506:	f423 7140 	bic.w	r1, r3, #768	@ 0x300
 800350a:	687b      	ldr	r3, [r7, #4]
 800350c:	699a      	ldr	r2, [r3, #24]
 800350e:	687b      	ldr	r3, [r7, #4]
 8003510:	681b      	ldr	r3, [r3, #0]
 8003512:	430a      	orrs	r2, r1
 8003514:	615a      	str	r2, [r3, #20]


  if(huart->Instance == USART1)
 8003516:	687b      	ldr	r3, [r7, #4]
 8003518:	681b      	ldr	r3, [r3, #0]
 800351a:	4a2c      	ldr	r2, [pc, #176]	@ (80035cc <UART_SetConfig+0x114>)
 800351c:	4293      	cmp	r3, r2
 800351e:	d103      	bne.n	8003528 <UART_SetConfig+0x70>
  {
    pclk = HAL_RCC_GetPCLK2Freq();
 8003520:	f7ff fc96 	bl	8002e50 <HAL_RCC_GetPCLK2Freq>
 8003524:	60f8      	str	r0, [r7, #12]
 8003526:	e002      	b.n	800352e <UART_SetConfig+0x76>
  }
  else
  {
    pclk = HAL_RCC_GetPCLK1Freq();
 8003528:	f7ff fc7e 	bl	8002e28 <HAL_RCC_GetPCLK1Freq>
 800352c:	60f8      	str	r0, [r7, #12]
  else
  {
    huart->Instance->BRR = UART_BRR_SAMPLING16(pclk, huart->Init.BaudRate);
  }
#else
  huart->Instance->BRR = UART_BRR_SAMPLING16(pclk, huart->Init.BaudRate);
 800352e:	68fa      	ldr	r2, [r7, #12]
 8003530:	4613      	mov	r3, r2
 8003532:	009b      	lsls	r3, r3, #2
 8003534:	4413      	add	r3, r2
 8003536:	009a      	lsls	r2, r3, #2
 8003538:	441a      	add	r2, r3
 800353a:	687b      	ldr	r3, [r7, #4]
 800353c:	685b      	ldr	r3, [r3, #4]
 800353e:	009b      	lsls	r3, r3, #2
 8003540:	fbb2 f3f3 	udiv	r3, r2, r3
 8003544:	4a22      	ldr	r2, [pc, #136]	@ (80035d0 <UART_SetConfig+0x118>)
 8003546:	fba2 2303 	umull	r2, r3, r2, r3
 800354a:	095b      	lsrs	r3, r3, #5
 800354c:	0119      	lsls	r1, r3, #4
 800354e:	68fa      	ldr	r2, [r7, #12]
 8003550:	4613      	mov	r3, r2
 8003552:	009b      	lsls	r3, r3, #2
 8003554:	4413      	add	r3, r2
 8003556:	009a      	lsls	r2, r3, #2
 8003558:	441a      	add	r2, r3
 800355a:	687b      	ldr	r3, [r7, #4]
 800355c:	685b      	ldr	r3, [r3, #4]
 800355e:	009b      	lsls	r3, r3, #2
 8003560:	fbb2 f2f3 	udiv	r2, r2, r3
 8003564:	4b1a      	ldr	r3, [pc, #104]	@ (80035d0 <UART_SetConfig+0x118>)
 8003566:	fba3 0302 	umull	r0, r3, r3, r2
 800356a:	095b      	lsrs	r3, r3, #5
 800356c:	2064      	movs	r0, #100	@ 0x64
 800356e:	fb00 f303 	mul.w	r3, r0, r3
 8003572:	1ad3      	subs	r3, r2, r3
 8003574:	011b      	lsls	r3, r3, #4
 8003576:	3332      	adds	r3, #50	@ 0x32
 8003578:	4a15      	ldr	r2, [pc, #84]	@ (80035d0 <UART_SetConfig+0x118>)
 800357a:	fba2 2303 	umull	r2, r3, r2, r3
 800357e:	095b      	lsrs	r3, r3, #5
 8003580:	f003 03f0 	and.w	r3, r3, #240	@ 0xf0
 8003584:	4419      	add	r1, r3
 8003586:	68fa      	ldr	r2, [r7, #12]
 8003588:	4613      	mov	r3, r2
 800358a:	009b      	lsls	r3, r3, #2
 800358c:	4413      	add	r3, r2
 800358e:	009a      	lsls	r2, r3, #2
 8003590:	441a      	add	r2, r3
 8003592:	687b      	ldr	r3, [r7, #4]
 8003594:	685b      	ldr	r3, [r3, #4]
 8003596:	009b      	lsls	r3, r3, #2
 8003598:	fbb2 f2f3 	udiv	r2, r2, r3
 800359c:	4b0c      	ldr	r3, [pc, #48]	@ (80035d0 <UART_SetConfig+0x118>)
 800359e:	fba3 0302 	umull	r0, r3, r3, r2
 80035a2:	095b      	lsrs	r3, r3, #5
 80035a4:	2064      	movs	r0, #100	@ 0x64
 80035a6:	fb00 f303 	mul.w	r3, r0, r3
 80035aa:	1ad3      	subs	r3, r2, r3
 80035ac:	011b      	lsls	r3, r3, #4
 80035ae:	3332      	adds	r3, #50	@ 0x32
 80035b0:	4a07      	ldr	r2, [pc, #28]	@ (80035d0 <UART_SetConfig+0x118>)
 80035b2:	fba2 2303 	umull	r2, r3, r2, r3
 80035b6:	095b      	lsrs	r3, r3, #5
 80035b8:	f003 020f 	and.w	r2, r3, #15
 80035bc:	687b      	ldr	r3, [r7, #4]
 80035be:	681b      	ldr	r3, [r3, #0]
 80035c0:	440a      	add	r2, r1
 80035c2:	609a      	str	r2, [r3, #8]
#endif /* USART_CR1_OVER8 */
}
 80035c4:	bf00      	nop
 80035c6:	3710      	adds	r7, #16
 80035c8:	46bd      	mov	sp, r7
 80035ca:	bd80      	pop	{r7, pc}
 80035cc:	40013800 	.word	0x40013800
 80035d0:	51eb851f 	.word	0x51eb851f

080035d4 <__cvt>:
 80035d4:	2b00      	cmp	r3, #0
 80035d6:	e92d 47f0 	stmdb	sp!, {r4, r5, r6, r7, r8, r9, sl, lr}
 80035da:	461d      	mov	r5, r3
 80035dc:	bfbb      	ittet	lt
 80035de:	f103 4300 	addlt.w	r3, r3, #2147483648	@ 0x80000000
 80035e2:	461d      	movlt	r5, r3
 80035e4:	2300      	movge	r3, #0
 80035e6:	232d      	movlt	r3, #45	@ 0x2d
 80035e8:	b088      	sub	sp, #32
 80035ea:	4614      	mov	r4, r2
 80035ec:	bfb8      	it	lt
 80035ee:	4614      	movlt	r4, r2
 80035f0:	9a12      	ldr	r2, [sp, #72]	@ 0x48
 80035f2:	9e10      	ldr	r6, [sp, #64]	@ 0x40
 80035f4:	7013      	strb	r3, [r2, #0]
 80035f6:	9b14      	ldr	r3, [sp, #80]	@ 0x50
 80035f8:	f8dd a04c 	ldr.w	sl, [sp, #76]	@ 0x4c
 80035fc:	f023 0820 	bic.w	r8, r3, #32
 8003600:	f1b8 0f46 	cmp.w	r8, #70	@ 0x46
 8003604:	d005      	beq.n	8003612 <__cvt+0x3e>
 8003606:	f1b8 0f45 	cmp.w	r8, #69	@ 0x45
 800360a:	d100      	bne.n	800360e <__cvt+0x3a>
 800360c:	3601      	adds	r6, #1
 800360e:	2302      	movs	r3, #2
 8003610:	e000      	b.n	8003614 <__cvt+0x40>
 8003612:	2303      	movs	r3, #3
 8003614:	aa07      	add	r2, sp, #28
 8003616:	9204      	str	r2, [sp, #16]
 8003618:	aa06      	add	r2, sp, #24
 800361a:	e9cd a202 	strd	sl, r2, [sp, #8]
 800361e:	e9cd 3600 	strd	r3, r6, [sp]
 8003622:	4622      	mov	r2, r4
 8003624:	462b      	mov	r3, r5
 8003626:	f000 ff4f 	bl	80044c8 <_dtoa_r>
 800362a:	f1b8 0f47 	cmp.w	r8, #71	@ 0x47
 800362e:	4607      	mov	r7, r0
 8003630:	d119      	bne.n	8003666 <__cvt+0x92>
 8003632:	9b11      	ldr	r3, [sp, #68]	@ 0x44
 8003634:	07db      	lsls	r3, r3, #31
 8003636:	d50e      	bpl.n	8003656 <__cvt+0x82>
 8003638:	eb00 0906 	add.w	r9, r0, r6
 800363c:	2200      	movs	r2, #0
 800363e:	2300      	movs	r3, #0
 8003640:	4620      	mov	r0, r4
 8003642:	4629      	mov	r1, r5
 8003644:	f7fd f9b0 	bl	80009a8 <__aeabi_dcmpeq>
 8003648:	b108      	cbz	r0, 800364e <__cvt+0x7a>
 800364a:	f8cd 901c 	str.w	r9, [sp, #28]
 800364e:	2230      	movs	r2, #48	@ 0x30
 8003650:	9b07      	ldr	r3, [sp, #28]
 8003652:	454b      	cmp	r3, r9
 8003654:	d31e      	bcc.n	8003694 <__cvt+0xc0>
 8003656:	4638      	mov	r0, r7
 8003658:	9b07      	ldr	r3, [sp, #28]
 800365a:	9a15      	ldr	r2, [sp, #84]	@ 0x54
 800365c:	1bdb      	subs	r3, r3, r7
 800365e:	6013      	str	r3, [r2, #0]
 8003660:	b008      	add	sp, #32
 8003662:	e8bd 87f0 	ldmia.w	sp!, {r4, r5, r6, r7, r8, r9, sl, pc}
 8003666:	f1b8 0f46 	cmp.w	r8, #70	@ 0x46
 800366a:	eb00 0906 	add.w	r9, r0, r6
 800366e:	d1e5      	bne.n	800363c <__cvt+0x68>
 8003670:	7803      	ldrb	r3, [r0, #0]
 8003672:	2b30      	cmp	r3, #48	@ 0x30
 8003674:	d10a      	bne.n	800368c <__cvt+0xb8>
 8003676:	2200      	movs	r2, #0
 8003678:	2300      	movs	r3, #0
 800367a:	4620      	mov	r0, r4
 800367c:	4629      	mov	r1, r5
 800367e:	f7fd f993 	bl	80009a8 <__aeabi_dcmpeq>
 8003682:	b918      	cbnz	r0, 800368c <__cvt+0xb8>
 8003684:	f1c6 0601 	rsb	r6, r6, #1
 8003688:	f8ca 6000 	str.w	r6, [sl]
 800368c:	f8da 3000 	ldr.w	r3, [sl]
 8003690:	4499      	add	r9, r3
 8003692:	e7d3      	b.n	800363c <__cvt+0x68>
 8003694:	1c59      	adds	r1, r3, #1
 8003696:	9107      	str	r1, [sp, #28]
 8003698:	701a      	strb	r2, [r3, #0]
 800369a:	e7d9      	b.n	8003650 <__cvt+0x7c>

0800369c <__exponent>:
 800369c:	b5f7      	push	{r0, r1, r2, r4, r5, r6, r7, lr}
 800369e:	2900      	cmp	r1, #0
 80036a0:	bfb6      	itet	lt
 80036a2:	232d      	movlt	r3, #45	@ 0x2d
 80036a4:	232b      	movge	r3, #43	@ 0x2b
 80036a6:	4249      	neglt	r1, r1
 80036a8:	2909      	cmp	r1, #9
 80036aa:	7002      	strb	r2, [r0, #0]
 80036ac:	7043      	strb	r3, [r0, #1]
 80036ae:	dd29      	ble.n	8003704 <__exponent+0x68>
 80036b0:	f10d 0307 	add.w	r3, sp, #7
 80036b4:	461d      	mov	r5, r3
 80036b6:	270a      	movs	r7, #10
 80036b8:	fbb1 f6f7 	udiv	r6, r1, r7
 80036bc:	461a      	mov	r2, r3
 80036be:	fb07 1416 	mls	r4, r7, r6, r1
 80036c2:	3430      	adds	r4, #48	@ 0x30
 80036c4:	f802 4c01 	strb.w	r4, [r2, #-1]
 80036c8:	460c      	mov	r4, r1
 80036ca:	2c63      	cmp	r4, #99	@ 0x63
 80036cc:	4631      	mov	r1, r6
 80036ce:	f103 33ff 	add.w	r3, r3, #4294967295
 80036d2:	dcf1      	bgt.n	80036b8 <__exponent+0x1c>
 80036d4:	3130      	adds	r1, #48	@ 0x30
 80036d6:	1e94      	subs	r4, r2, #2
 80036d8:	f803 1c01 	strb.w	r1, [r3, #-1]
 80036dc:	4623      	mov	r3, r4
 80036de:	1c41      	adds	r1, r0, #1
 80036e0:	42ab      	cmp	r3, r5
 80036e2:	d30a      	bcc.n	80036fa <__exponent+0x5e>
 80036e4:	f10d 0309 	add.w	r3, sp, #9
 80036e8:	1a9b      	subs	r3, r3, r2
 80036ea:	42ac      	cmp	r4, r5
 80036ec:	bf88      	it	hi
 80036ee:	2300      	movhi	r3, #0
 80036f0:	3302      	adds	r3, #2
 80036f2:	4403      	add	r3, r0
 80036f4:	1a18      	subs	r0, r3, r0
 80036f6:	b003      	add	sp, #12
 80036f8:	bdf0      	pop	{r4, r5, r6, r7, pc}
 80036fa:	f813 6b01 	ldrb.w	r6, [r3], #1
 80036fe:	f801 6f01 	strb.w	r6, [r1, #1]!
 8003702:	e7ed      	b.n	80036e0 <__exponent+0x44>
 8003704:	2330      	movs	r3, #48	@ 0x30
 8003706:	3130      	adds	r1, #48	@ 0x30
 8003708:	7083      	strb	r3, [r0, #2]
 800370a:	70c1      	strb	r1, [r0, #3]
 800370c:	1d03      	adds	r3, r0, #4
 800370e:	e7f1      	b.n	80036f4 <__exponent+0x58>

08003710 <_printf_float>:
 8003710:	e92d 4ff0 	stmdb	sp!, {r4, r5, r6, r7, r8, r9, sl, fp, lr}
 8003714:	b091      	sub	sp, #68	@ 0x44
 8003716:	460c      	mov	r4, r1
 8003718:	f8dd 8068 	ldr.w	r8, [sp, #104]	@ 0x68
 800371c:	4616      	mov	r6, r2
 800371e:	461f      	mov	r7, r3
 8003720:	4605      	mov	r5, r0
 8003722:	f000 fdc3 	bl	80042ac <_localeconv_r>
 8003726:	6803      	ldr	r3, [r0, #0]
 8003728:	4618      	mov	r0, r3
 800372a:	9308      	str	r3, [sp, #32]
 800372c:	f7fc fd10 	bl	8000150 <strlen>
 8003730:	2300      	movs	r3, #0
 8003732:	930e      	str	r3, [sp, #56]	@ 0x38
 8003734:	f8d8 3000 	ldr.w	r3, [r8]
 8003738:	9009      	str	r0, [sp, #36]	@ 0x24
 800373a:	3307      	adds	r3, #7
 800373c:	f023 0307 	bic.w	r3, r3, #7
 8003740:	f103 0208 	add.w	r2, r3, #8
 8003744:	f894 a018 	ldrb.w	sl, [r4, #24]
 8003748:	f8d4 b000 	ldr.w	fp, [r4]
 800374c:	f8c8 2000 	str.w	r2, [r8]
 8003750:	e9d3 8900 	ldrd	r8, r9, [r3]
 8003754:	f029 4300 	bic.w	r3, r9, #2147483648	@ 0x80000000
 8003758:	930b      	str	r3, [sp, #44]	@ 0x2c
 800375a:	f8cd 8028 	str.w	r8, [sp, #40]	@ 0x28
 800375e:	f04f 32ff 	mov.w	r2, #4294967295
 8003762:	e9dd 010a 	ldrd	r0, r1, [sp, #40]	@ 0x28
 8003766:	e9c4 8912 	strd	r8, r9, [r4, #72]	@ 0x48
 800376a:	4b9c      	ldr	r3, [pc, #624]	@ (80039dc <_printf_float+0x2cc>)
 800376c:	f7fd f94e 	bl	8000a0c <__aeabi_dcmpun>
 8003770:	bb70      	cbnz	r0, 80037d0 <_printf_float+0xc0>
 8003772:	e9dd 010a 	ldrd	r0, r1, [sp, #40]	@ 0x28
 8003776:	f04f 32ff 	mov.w	r2, #4294967295
 800377a:	4b98      	ldr	r3, [pc, #608]	@ (80039dc <_printf_float+0x2cc>)
 800377c:	f7fd f928 	bl	80009d0 <__aeabi_dcmple>
 8003780:	bb30      	cbnz	r0, 80037d0 <_printf_float+0xc0>
 8003782:	2200      	movs	r2, #0
 8003784:	2300      	movs	r3, #0
 8003786:	4640      	mov	r0, r8
 8003788:	4649      	mov	r1, r9
 800378a:	f7fd f917 	bl	80009bc <__aeabi_dcmplt>
 800378e:	b110      	cbz	r0, 8003796 <_printf_float+0x86>
 8003790:	232d      	movs	r3, #45	@ 0x2d
 8003792:	f884 3043 	strb.w	r3, [r4, #67]	@ 0x43
 8003796:	4a92      	ldr	r2, [pc, #584]	@ (80039e0 <_printf_float+0x2d0>)
 8003798:	4b92      	ldr	r3, [pc, #584]	@ (80039e4 <_printf_float+0x2d4>)
 800379a:	f1ba 0f47 	cmp.w	sl, #71	@ 0x47
 800379e:	bf8c      	ite	hi
 80037a0:	4690      	movhi	r8, r2
 80037a2:	4698      	movls	r8, r3
 80037a4:	2303      	movs	r3, #3
 80037a6:	f04f 0900 	mov.w	r9, #0
 80037aa:	6123      	str	r3, [r4, #16]
 80037ac:	f02b 0304 	bic.w	r3, fp, #4
 80037b0:	6023      	str	r3, [r4, #0]
 80037b2:	4633      	mov	r3, r6
 80037b4:	4621      	mov	r1, r4
 80037b6:	4628      	mov	r0, r5
 80037b8:	9700      	str	r7, [sp, #0]
 80037ba:	aa0f      	add	r2, sp, #60	@ 0x3c
 80037bc:	f000 f9d4 	bl	8003b68 <_printf_common>
 80037c0:	3001      	adds	r0, #1
 80037c2:	f040 8090 	bne.w	80038e6 <_printf_float+0x1d6>
 80037c6:	f04f 30ff 	mov.w	r0, #4294967295
 80037ca:	b011      	add	sp, #68	@ 0x44
 80037cc:	e8bd 8ff0 	ldmia.w	sp!, {r4, r5, r6, r7, r8, r9, sl, fp, pc}
 80037d0:	4642      	mov	r2, r8
 80037d2:	464b      	mov	r3, r9
 80037d4:	4640      	mov	r0, r8
 80037d6:	4649      	mov	r1, r9
 80037d8:	f7fd f918 	bl	8000a0c <__aeabi_dcmpun>
 80037dc:	b148      	cbz	r0, 80037f2 <_printf_float+0xe2>
 80037de:	464b      	mov	r3, r9
 80037e0:	2b00      	cmp	r3, #0
 80037e2:	bfb8      	it	lt
 80037e4:	232d      	movlt	r3, #45	@ 0x2d
 80037e6:	4a80      	ldr	r2, [pc, #512]	@ (80039e8 <_printf_float+0x2d8>)
 80037e8:	bfb8      	it	lt
 80037ea:	f884 3043 	strblt.w	r3, [r4, #67]	@ 0x43
 80037ee:	4b7f      	ldr	r3, [pc, #508]	@ (80039ec <_printf_float+0x2dc>)
 80037f0:	e7d3      	b.n	800379a <_printf_float+0x8a>
 80037f2:	6863      	ldr	r3, [r4, #4]
 80037f4:	f00a 01df 	and.w	r1, sl, #223	@ 0xdf
 80037f8:	1c5a      	adds	r2, r3, #1
 80037fa:	d13f      	bne.n	800387c <_printf_float+0x16c>
 80037fc:	2306      	movs	r3, #6
 80037fe:	6063      	str	r3, [r4, #4]
 8003800:	2200      	movs	r2, #0
 8003802:	f44b 6380 	orr.w	r3, fp, #1024	@ 0x400
 8003806:	6023      	str	r3, [r4, #0]
 8003808:	9206      	str	r2, [sp, #24]
 800380a:	aa0e      	add	r2, sp, #56	@ 0x38
 800380c:	e9cd a204 	strd	sl, r2, [sp, #16]
 8003810:	aa0d      	add	r2, sp, #52	@ 0x34
 8003812:	9203      	str	r2, [sp, #12]
 8003814:	f10d 0233 	add.w	r2, sp, #51	@ 0x33
 8003818:	e9cd 3201 	strd	r3, r2, [sp, #4]
 800381c:	6863      	ldr	r3, [r4, #4]
 800381e:	4642      	mov	r2, r8
 8003820:	9300      	str	r3, [sp, #0]
 8003822:	4628      	mov	r0, r5
 8003824:	464b      	mov	r3, r9
 8003826:	910a      	str	r1, [sp, #40]	@ 0x28
 8003828:	f7ff fed4 	bl	80035d4 <__cvt>
 800382c:	990a      	ldr	r1, [sp, #40]	@ 0x28
 800382e:	4680      	mov	r8, r0
 8003830:	2947      	cmp	r1, #71	@ 0x47
 8003832:	990d      	ldr	r1, [sp, #52]	@ 0x34
 8003834:	d128      	bne.n	8003888 <_printf_float+0x178>
 8003836:	1cc8      	adds	r0, r1, #3
 8003838:	db02      	blt.n	8003840 <_printf_float+0x130>
 800383a:	6863      	ldr	r3, [r4, #4]
 800383c:	4299      	cmp	r1, r3
 800383e:	dd40      	ble.n	80038c2 <_printf_float+0x1b2>
 8003840:	f1aa 0a02 	sub.w	sl, sl, #2
 8003844:	fa5f fa8a 	uxtb.w	sl, sl
 8003848:	4652      	mov	r2, sl
 800384a:	3901      	subs	r1, #1
 800384c:	f104 0050 	add.w	r0, r4, #80	@ 0x50
 8003850:	910d      	str	r1, [sp, #52]	@ 0x34
 8003852:	f7ff ff23 	bl	800369c <__exponent>
 8003856:	9a0e      	ldr	r2, [sp, #56]	@ 0x38
 8003858:	4681      	mov	r9, r0
 800385a:	1813      	adds	r3, r2, r0
 800385c:	2a01      	cmp	r2, #1
 800385e:	6123      	str	r3, [r4, #16]
 8003860:	dc02      	bgt.n	8003868 <_printf_float+0x158>
 8003862:	6822      	ldr	r2, [r4, #0]
 8003864:	07d2      	lsls	r2, r2, #31
 8003866:	d501      	bpl.n	800386c <_printf_float+0x15c>
 8003868:	3301      	adds	r3, #1
 800386a:	6123      	str	r3, [r4, #16]
 800386c:	f89d 3033 	ldrb.w	r3, [sp, #51]	@ 0x33
 8003870:	2b00      	cmp	r3, #0
 8003872:	d09e      	beq.n	80037b2 <_printf_float+0xa2>
 8003874:	232d      	movs	r3, #45	@ 0x2d
 8003876:	f884 3043 	strb.w	r3, [r4, #67]	@ 0x43
 800387a:	e79a      	b.n	80037b2 <_printf_float+0xa2>
 800387c:	2947      	cmp	r1, #71	@ 0x47
 800387e:	d1bf      	bne.n	8003800 <_printf_float+0xf0>
 8003880:	2b00      	cmp	r3, #0
 8003882:	d1bd      	bne.n	8003800 <_printf_float+0xf0>
 8003884:	2301      	movs	r3, #1
 8003886:	e7ba      	b.n	80037fe <_printf_float+0xee>
 8003888:	f1ba 0f65 	cmp.w	sl, #101	@ 0x65
 800388c:	d9dc      	bls.n	8003848 <_printf_float+0x138>
 800388e:	f1ba 0f66 	cmp.w	sl, #102	@ 0x66
 8003892:	d118      	bne.n	80038c6 <_printf_float+0x1b6>
 8003894:	2900      	cmp	r1, #0
 8003896:	6863      	ldr	r3, [r4, #4]
 8003898:	dd0b      	ble.n	80038b2 <_printf_float+0x1a2>
 800389a:	6121      	str	r1, [r4, #16]
 800389c:	b913      	cbnz	r3, 80038a4 <_printf_float+0x194>
 800389e:	6822      	ldr	r2, [r4, #0]
 80038a0:	07d0      	lsls	r0, r2, #31
 80038a2:	d502      	bpl.n	80038aa <_printf_float+0x19a>
 80038a4:	3301      	adds	r3, #1
 80038a6:	440b      	add	r3, r1
 80038a8:	6123      	str	r3, [r4, #16]
 80038aa:	f04f 0900 	mov.w	r9, #0
 80038ae:	65a1      	str	r1, [r4, #88]	@ 0x58
 80038b0:	e7dc      	b.n	800386c <_printf_float+0x15c>
 80038b2:	b913      	cbnz	r3, 80038ba <_printf_float+0x1aa>
 80038b4:	6822      	ldr	r2, [r4, #0]
 80038b6:	07d2      	lsls	r2, r2, #31
 80038b8:	d501      	bpl.n	80038be <_printf_float+0x1ae>
 80038ba:	3302      	adds	r3, #2
 80038bc:	e7f4      	b.n	80038a8 <_printf_float+0x198>
 80038be:	2301      	movs	r3, #1
 80038c0:	e7f2      	b.n	80038a8 <_printf_float+0x198>
 80038c2:	f04f 0a67 	mov.w	sl, #103	@ 0x67
 80038c6:	9b0e      	ldr	r3, [sp, #56]	@ 0x38
 80038c8:	4299      	cmp	r1, r3
 80038ca:	db05      	blt.n	80038d8 <_printf_float+0x1c8>
 80038cc:	6823      	ldr	r3, [r4, #0]
 80038ce:	6121      	str	r1, [r4, #16]
 80038d0:	07d8      	lsls	r0, r3, #31
 80038d2:	d5ea      	bpl.n	80038aa <_printf_float+0x19a>
 80038d4:	1c4b      	adds	r3, r1, #1
 80038d6:	e7e7      	b.n	80038a8 <_printf_float+0x198>
 80038d8:	2900      	cmp	r1, #0
 80038da:	bfcc      	ite	gt
 80038dc:	2201      	movgt	r2, #1
 80038de:	f1c1 0202 	rsble	r2, r1, #2
 80038e2:	4413      	add	r3, r2
 80038e4:	e7e0      	b.n	80038a8 <_printf_float+0x198>
 80038e6:	6823      	ldr	r3, [r4, #0]
 80038e8:	055a      	lsls	r2, r3, #21
 80038ea:	d407      	bmi.n	80038fc <_printf_float+0x1ec>
 80038ec:	6923      	ldr	r3, [r4, #16]
 80038ee:	4642      	mov	r2, r8
 80038f0:	4631      	mov	r1, r6
 80038f2:	4628      	mov	r0, r5
 80038f4:	47b8      	blx	r7
 80038f6:	3001      	adds	r0, #1
 80038f8:	d12b      	bne.n	8003952 <_printf_float+0x242>
 80038fa:	e764      	b.n	80037c6 <_printf_float+0xb6>
 80038fc:	f1ba 0f65 	cmp.w	sl, #101	@ 0x65
 8003900:	f240 80dc 	bls.w	8003abc <_printf_float+0x3ac>
 8003904:	e9d4 0112 	ldrd	r0, r1, [r4, #72]	@ 0x48
 8003908:	2200      	movs	r2, #0
 800390a:	2300      	movs	r3, #0
 800390c:	f7fd f84c 	bl	80009a8 <__aeabi_dcmpeq>
 8003910:	2800      	cmp	r0, #0
 8003912:	d033      	beq.n	800397c <_printf_float+0x26c>
 8003914:	2301      	movs	r3, #1
 8003916:	4631      	mov	r1, r6
 8003918:	4628      	mov	r0, r5
 800391a:	4a35      	ldr	r2, [pc, #212]	@ (80039f0 <_printf_float+0x2e0>)
 800391c:	47b8      	blx	r7
 800391e:	3001      	adds	r0, #1
 8003920:	f43f af51 	beq.w	80037c6 <_printf_float+0xb6>
 8003924:	e9dd 380d 	ldrd	r3, r8, [sp, #52]	@ 0x34
 8003928:	4543      	cmp	r3, r8
 800392a:	db02      	blt.n	8003932 <_printf_float+0x222>
 800392c:	6823      	ldr	r3, [r4, #0]
 800392e:	07d8      	lsls	r0, r3, #31
 8003930:	d50f      	bpl.n	8003952 <_printf_float+0x242>
 8003932:	e9dd 2308 	ldrd	r2, r3, [sp, #32]
 8003936:	4631      	mov	r1, r6
 8003938:	4628      	mov	r0, r5
 800393a:	47b8      	blx	r7
 800393c:	3001      	adds	r0, #1
 800393e:	f43f af42 	beq.w	80037c6 <_printf_float+0xb6>
 8003942:	f04f 0900 	mov.w	r9, #0
 8003946:	f108 38ff 	add.w	r8, r8, #4294967295
 800394a:	f104 0a1a 	add.w	sl, r4, #26
 800394e:	45c8      	cmp	r8, r9
 8003950:	dc09      	bgt.n	8003966 <_printf_float+0x256>
 8003952:	6823      	ldr	r3, [r4, #0]
 8003954:	079b      	lsls	r3, r3, #30
 8003956:	f100 8102 	bmi.w	8003b5e <_printf_float+0x44e>
 800395a:	68e0      	ldr	r0, [r4, #12]
 800395c:	9b0f      	ldr	r3, [sp, #60]	@ 0x3c
 800395e:	4298      	cmp	r0, r3
 8003960:	bfb8      	it	lt
 8003962:	4618      	movlt	r0, r3
 8003964:	e731      	b.n	80037ca <_printf_float+0xba>
 8003966:	2301      	movs	r3, #1
 8003968:	4652      	mov	r2, sl
 800396a:	4631      	mov	r1, r6
 800396c:	4628      	mov	r0, r5
 800396e:	47b8      	blx	r7
 8003970:	3001      	adds	r0, #1
 8003972:	f43f af28 	beq.w	80037c6 <_printf_float+0xb6>
 8003976:	f109 0901 	add.w	r9, r9, #1
 800397a:	e7e8      	b.n	800394e <_printf_float+0x23e>
 800397c:	9b0d      	ldr	r3, [sp, #52]	@ 0x34
 800397e:	2b00      	cmp	r3, #0
 8003980:	dc38      	bgt.n	80039f4 <_printf_float+0x2e4>
 8003982:	2301      	movs	r3, #1
 8003984:	4631      	mov	r1, r6
 8003986:	4628      	mov	r0, r5
 8003988:	4a19      	ldr	r2, [pc, #100]	@ (80039f0 <_printf_float+0x2e0>)
 800398a:	47b8      	blx	r7
 800398c:	3001      	adds	r0, #1
 800398e:	f43f af1a 	beq.w	80037c6 <_printf_float+0xb6>
 8003992:	e9dd 390d 	ldrd	r3, r9, [sp, #52]	@ 0x34
 8003996:	ea59 0303 	orrs.w	r3, r9, r3
 800399a:	d102      	bne.n	80039a2 <_printf_float+0x292>
 800399c:	6823      	ldr	r3, [r4, #0]
 800399e:	07d9      	lsls	r1, r3, #31
 80039a0:	d5d7      	bpl.n	8003952 <_printf_float+0x242>
 80039a2:	e9dd 2308 	ldrd	r2, r3, [sp, #32]
 80039a6:	4631      	mov	r1, r6
 80039a8:	4628      	mov	r0, r5
 80039aa:	47b8      	blx	r7
 80039ac:	3001      	adds	r0, #1
 80039ae:	f43f af0a 	beq.w	80037c6 <_printf_float+0xb6>
 80039b2:	f04f 0a00 	mov.w	sl, #0
 80039b6:	f104 0b1a 	add.w	fp, r4, #26
 80039ba:	9b0d      	ldr	r3, [sp, #52]	@ 0x34
 80039bc:	425b      	negs	r3, r3
 80039be:	4553      	cmp	r3, sl
 80039c0:	dc01      	bgt.n	80039c6 <_printf_float+0x2b6>
 80039c2:	464b      	mov	r3, r9
 80039c4:	e793      	b.n	80038ee <_printf_float+0x1de>
 80039c6:	2301      	movs	r3, #1
 80039c8:	465a      	mov	r2, fp
 80039ca:	4631      	mov	r1, r6
 80039cc:	4628      	mov	r0, r5
 80039ce:	47b8      	blx	r7
 80039d0:	3001      	adds	r0, #1
 80039d2:	f43f aef8 	beq.w	80037c6 <_printf_float+0xb6>
 80039d6:	f10a 0a01 	add.w	sl, sl, #1
 80039da:	e7ee      	b.n	80039ba <_printf_float+0x2aa>
 80039dc:	7fefffff 	.word	0x7fefffff
 80039e0:	08006056 	.word	0x08006056
 80039e4:	08006052 	.word	0x08006052
 80039e8:	0800605e 	.word	0x0800605e
 80039ec:	0800605a 	.word	0x0800605a
 80039f0:	08006062 	.word	0x08006062
 80039f4:	6da3      	ldr	r3, [r4, #88]	@ 0x58
 80039f6:	f8dd a038 	ldr.w	sl, [sp, #56]	@ 0x38
 80039fa:	4553      	cmp	r3, sl
 80039fc:	bfa8      	it	ge
 80039fe:	4653      	movge	r3, sl
 8003a00:	2b00      	cmp	r3, #0
 8003a02:	4699      	mov	r9, r3
 8003a04:	dc36      	bgt.n	8003a74 <_printf_float+0x364>
 8003a06:	f04f 0b00 	mov.w	fp, #0
 8003a0a:	ea29 79e9 	bic.w	r9, r9, r9, asr #31
 8003a0e:	f104 021a 	add.w	r2, r4, #26
 8003a12:	6da3      	ldr	r3, [r4, #88]	@ 0x58
 8003a14:	930a      	str	r3, [sp, #40]	@ 0x28
 8003a16:	eba3 0309 	sub.w	r3, r3, r9
 8003a1a:	455b      	cmp	r3, fp
 8003a1c:	dc31      	bgt.n	8003a82 <_printf_float+0x372>
 8003a1e:	9b0d      	ldr	r3, [sp, #52]	@ 0x34
 8003a20:	459a      	cmp	sl, r3
 8003a22:	dc3a      	bgt.n	8003a9a <_printf_float+0x38a>
 8003a24:	6823      	ldr	r3, [r4, #0]
 8003a26:	07da      	lsls	r2, r3, #31
 8003a28:	d437      	bmi.n	8003a9a <_printf_float+0x38a>
 8003a2a:	9b0d      	ldr	r3, [sp, #52]	@ 0x34
 8003a2c:	ebaa 0903 	sub.w	r9, sl, r3
 8003a30:	9b0a      	ldr	r3, [sp, #40]	@ 0x28
 8003a32:	ebaa 0303 	sub.w	r3, sl, r3
 8003a36:	4599      	cmp	r9, r3
 8003a38:	bfa8      	it	ge
 8003a3a:	4699      	movge	r9, r3
 8003a3c:	f1b9 0f00 	cmp.w	r9, #0
 8003a40:	dc33      	bgt.n	8003aaa <_printf_float+0x39a>
 8003a42:	f04f 0800 	mov.w	r8, #0
 8003a46:	ea29 79e9 	bic.w	r9, r9, r9, asr #31
 8003a4a:	f104 0b1a 	add.w	fp, r4, #26
 8003a4e:	9b0d      	ldr	r3, [sp, #52]	@ 0x34
 8003a50:	ebaa 0303 	sub.w	r3, sl, r3
 8003a54:	eba3 0309 	sub.w	r3, r3, r9
 8003a58:	4543      	cmp	r3, r8
 8003a5a:	f77f af7a 	ble.w	8003952 <_printf_float+0x242>
 8003a5e:	2301      	movs	r3, #1
 8003a60:	465a      	mov	r2, fp
 8003a62:	4631      	mov	r1, r6
 8003a64:	4628      	mov	r0, r5
 8003a66:	47b8      	blx	r7
 8003a68:	3001      	adds	r0, #1
 8003a6a:	f43f aeac 	beq.w	80037c6 <_printf_float+0xb6>
 8003a6e:	f108 0801 	add.w	r8, r8, #1
 8003a72:	e7ec      	b.n	8003a4e <_printf_float+0x33e>
 8003a74:	4642      	mov	r2, r8
 8003a76:	4631      	mov	r1, r6
 8003a78:	4628      	mov	r0, r5
 8003a7a:	47b8      	blx	r7
 8003a7c:	3001      	adds	r0, #1
 8003a7e:	d1c2      	bne.n	8003a06 <_printf_float+0x2f6>
 8003a80:	e6a1      	b.n	80037c6 <_printf_float+0xb6>
 8003a82:	2301      	movs	r3, #1
 8003a84:	4631      	mov	r1, r6
 8003a86:	4628      	mov	r0, r5
 8003a88:	920a      	str	r2, [sp, #40]	@ 0x28
 8003a8a:	47b8      	blx	r7
 8003a8c:	3001      	adds	r0, #1
 8003a8e:	f43f ae9a 	beq.w	80037c6 <_printf_float+0xb6>
 8003a92:	9a0a      	ldr	r2, [sp, #40]	@ 0x28
 8003a94:	f10b 0b01 	add.w	fp, fp, #1
 8003a98:	e7bb      	b.n	8003a12 <_printf_float+0x302>
 8003a9a:	4631      	mov	r1, r6
 8003a9c:	e9dd 2308 	ldrd	r2, r3, [sp, #32]
 8003aa0:	4628      	mov	r0, r5
 8003aa2:	47b8      	blx	r7
 8003aa4:	3001      	adds	r0, #1
 8003aa6:	d1c0      	bne.n	8003a2a <_printf_float+0x31a>
 8003aa8:	e68d      	b.n	80037c6 <_printf_float+0xb6>
 8003aaa:	9a0a      	ldr	r2, [sp, #40]	@ 0x28
 8003aac:	464b      	mov	r3, r9
 8003aae:	4631      	mov	r1, r6
 8003ab0:	4628      	mov	r0, r5
 8003ab2:	4442      	add	r2, r8
 8003ab4:	47b8      	blx	r7
 8003ab6:	3001      	adds	r0, #1
 8003ab8:	d1c3      	bne.n	8003a42 <_printf_float+0x332>
 8003aba:	e684      	b.n	80037c6 <_printf_float+0xb6>
 8003abc:	f8dd a038 	ldr.w	sl, [sp, #56]	@ 0x38
 8003ac0:	f1ba 0f01 	cmp.w	sl, #1
 8003ac4:	dc01      	bgt.n	8003aca <_printf_float+0x3ba>
 8003ac6:	07db      	lsls	r3, r3, #31
 8003ac8:	d536      	bpl.n	8003b38 <_printf_float+0x428>
 8003aca:	2301      	movs	r3, #1
 8003acc:	4642      	mov	r2, r8
 8003ace:	4631      	mov	r1, r6
 8003ad0:	4628      	mov	r0, r5
 8003ad2:	47b8      	blx	r7
 8003ad4:	3001      	adds	r0, #1
 8003ad6:	f43f ae76 	beq.w	80037c6 <_printf_float+0xb6>
 8003ada:	e9dd 2308 	ldrd	r2, r3, [sp, #32]
 8003ade:	4631      	mov	r1, r6
 8003ae0:	4628      	mov	r0, r5
 8003ae2:	47b8      	blx	r7
 8003ae4:	3001      	adds	r0, #1
 8003ae6:	f43f ae6e 	beq.w	80037c6 <_printf_float+0xb6>
 8003aea:	e9d4 0112 	ldrd	r0, r1, [r4, #72]	@ 0x48
 8003aee:	2200      	movs	r2, #0
 8003af0:	2300      	movs	r3, #0
 8003af2:	f10a 3aff 	add.w	sl, sl, #4294967295
 8003af6:	f7fc ff57 	bl	80009a8 <__aeabi_dcmpeq>
 8003afa:	b9c0      	cbnz	r0, 8003b2e <_printf_float+0x41e>
 8003afc:	4653      	mov	r3, sl
 8003afe:	f108 0201 	add.w	r2, r8, #1
 8003b02:	4631      	mov	r1, r6
 8003b04:	4628      	mov	r0, r5
 8003b06:	47b8      	blx	r7
 8003b08:	3001      	adds	r0, #1
 8003b0a:	d10c      	bne.n	8003b26 <_printf_float+0x416>
 8003b0c:	e65b      	b.n	80037c6 <_printf_float+0xb6>
 8003b0e:	2301      	movs	r3, #1
 8003b10:	465a      	mov	r2, fp
 8003b12:	4631      	mov	r1, r6
 8003b14:	4628      	mov	r0, r5
 8003b16:	47b8      	blx	r7
 8003b18:	3001      	adds	r0, #1
 8003b1a:	f43f ae54 	beq.w	80037c6 <_printf_float+0xb6>
 8003b1e:	f108 0801 	add.w	r8, r8, #1
 8003b22:	45d0      	cmp	r8, sl
 8003b24:	dbf3      	blt.n	8003b0e <_printf_float+0x3fe>
 8003b26:	464b      	mov	r3, r9
 8003b28:	f104 0250 	add.w	r2, r4, #80	@ 0x50
 8003b2c:	e6e0      	b.n	80038f0 <_printf_float+0x1e0>
 8003b2e:	f04f 0800 	mov.w	r8, #0
 8003b32:	f104 0b1a 	add.w	fp, r4, #26
 8003b36:	e7f4      	b.n	8003b22 <_printf_float+0x412>
 8003b38:	2301      	movs	r3, #1
 8003b3a:	4642      	mov	r2, r8
 8003b3c:	e7e1      	b.n	8003b02 <_printf_float+0x3f2>
 8003b3e:	2301      	movs	r3, #1
 8003b40:	464a      	mov	r2, r9
 8003b42:	4631      	mov	r1, r6
 8003b44:	4628      	mov	r0, r5
 8003b46:	47b8      	blx	r7
 8003b48:	3001      	adds	r0, #1
 8003b4a:	f43f ae3c 	beq.w	80037c6 <_printf_float+0xb6>
 8003b4e:	f108 0801 	add.w	r8, r8, #1
 8003b52:	68e3      	ldr	r3, [r4, #12]
 8003b54:	990f      	ldr	r1, [sp, #60]	@ 0x3c
 8003b56:	1a5b      	subs	r3, r3, r1
 8003b58:	4543      	cmp	r3, r8
 8003b5a:	dcf0      	bgt.n	8003b3e <_printf_float+0x42e>
 8003b5c:	e6fd      	b.n	800395a <_printf_float+0x24a>
 8003b5e:	f04f 0800 	mov.w	r8, #0
 8003b62:	f104 0919 	add.w	r9, r4, #25
 8003b66:	e7f4      	b.n	8003b52 <_printf_float+0x442>

08003b68 <_printf_common>:
 8003b68:	e92d 47f0 	stmdb	sp!, {r4, r5, r6, r7, r8, r9, sl, lr}
 8003b6c:	4616      	mov	r6, r2
 8003b6e:	4698      	mov	r8, r3
 8003b70:	688a      	ldr	r2, [r1, #8]
 8003b72:	690b      	ldr	r3, [r1, #16]
 8003b74:	4607      	mov	r7, r0
 8003b76:	4293      	cmp	r3, r2
 8003b78:	bfb8      	it	lt
 8003b7a:	4613      	movlt	r3, r2
 8003b7c:	6033      	str	r3, [r6, #0]
 8003b7e:	f891 2043 	ldrb.w	r2, [r1, #67]	@ 0x43
 8003b82:	460c      	mov	r4, r1
 8003b84:	f8dd 9020 	ldr.w	r9, [sp, #32]
 8003b88:	b10a      	cbz	r2, 8003b8e <_printf_common+0x26>
 8003b8a:	3301      	adds	r3, #1
 8003b8c:	6033      	str	r3, [r6, #0]
 8003b8e:	6823      	ldr	r3, [r4, #0]
 8003b90:	0699      	lsls	r1, r3, #26
 8003b92:	bf42      	ittt	mi
 8003b94:	6833      	ldrmi	r3, [r6, #0]
 8003b96:	3302      	addmi	r3, #2
 8003b98:	6033      	strmi	r3, [r6, #0]
 8003b9a:	6825      	ldr	r5, [r4, #0]
 8003b9c:	f015 0506 	ands.w	r5, r5, #6
 8003ba0:	d106      	bne.n	8003bb0 <_printf_common+0x48>
 8003ba2:	f104 0a19 	add.w	sl, r4, #25
 8003ba6:	68e3      	ldr	r3, [r4, #12]
 8003ba8:	6832      	ldr	r2, [r6, #0]
 8003baa:	1a9b      	subs	r3, r3, r2
 8003bac:	42ab      	cmp	r3, r5
 8003bae:	dc2b      	bgt.n	8003c08 <_printf_common+0xa0>
 8003bb0:	f894 3043 	ldrb.w	r3, [r4, #67]	@ 0x43
 8003bb4:	6822      	ldr	r2, [r4, #0]
 8003bb6:	3b00      	subs	r3, #0
 8003bb8:	bf18      	it	ne
 8003bba:	2301      	movne	r3, #1
 8003bbc:	0692      	lsls	r2, r2, #26
 8003bbe:	d430      	bmi.n	8003c22 <_printf_common+0xba>
 8003bc0:	4641      	mov	r1, r8
 8003bc2:	4638      	mov	r0, r7
 8003bc4:	f104 0243 	add.w	r2, r4, #67	@ 0x43
 8003bc8:	47c8      	blx	r9
 8003bca:	3001      	adds	r0, #1
 8003bcc:	d023      	beq.n	8003c16 <_printf_common+0xae>
 8003bce:	6823      	ldr	r3, [r4, #0]
 8003bd0:	6922      	ldr	r2, [r4, #16]
 8003bd2:	f003 0306 	and.w	r3, r3, #6
 8003bd6:	2b04      	cmp	r3, #4
 8003bd8:	bf14      	ite	ne
 8003bda:	2500      	movne	r5, #0
 8003bdc:	6833      	ldreq	r3, [r6, #0]
 8003bde:	f04f 0600 	mov.w	r6, #0
 8003be2:	bf08      	it	eq
 8003be4:	68e5      	ldreq	r5, [r4, #12]
 8003be6:	f104 041a 	add.w	r4, r4, #26
 8003bea:	bf08      	it	eq
 8003bec:	1aed      	subeq	r5, r5, r3
 8003bee:	f854 3c12 	ldr.w	r3, [r4, #-18]
 8003bf2:	bf08      	it	eq
 8003bf4:	ea25 75e5 	biceq.w	r5, r5, r5, asr #31
 8003bf8:	4293      	cmp	r3, r2
 8003bfa:	bfc4      	itt	gt
 8003bfc:	1a9b      	subgt	r3, r3, r2
 8003bfe:	18ed      	addgt	r5, r5, r3
 8003c00:	42b5      	cmp	r5, r6
 8003c02:	d11a      	bne.n	8003c3a <_printf_common+0xd2>
 8003c04:	2000      	movs	r0, #0
 8003c06:	e008      	b.n	8003c1a <_printf_common+0xb2>
 8003c08:	2301      	movs	r3, #1
 8003c0a:	4652      	mov	r2, sl
 8003c0c:	4641      	mov	r1, r8
 8003c0e:	4638      	mov	r0, r7
 8003c10:	47c8      	blx	r9
 8003c12:	3001      	adds	r0, #1
 8003c14:	d103      	bne.n	8003c1e <_printf_common+0xb6>
 8003c16:	f04f 30ff 	mov.w	r0, #4294967295
 8003c1a:	e8bd 87f0 	ldmia.w	sp!, {r4, r5, r6, r7, r8, r9, sl, pc}
 8003c1e:	3501      	adds	r5, #1
 8003c20:	e7c1      	b.n	8003ba6 <_printf_common+0x3e>
 8003c22:	2030      	movs	r0, #48	@ 0x30
 8003c24:	18e1      	adds	r1, r4, r3
 8003c26:	f881 0043 	strb.w	r0, [r1, #67]	@ 0x43
 8003c2a:	1c5a      	adds	r2, r3, #1
 8003c2c:	f894 1045 	ldrb.w	r1, [r4, #69]	@ 0x45
 8003c30:	4422      	add	r2, r4
 8003c32:	3302      	adds	r3, #2
 8003c34:	f882 1043 	strb.w	r1, [r2, #67]	@ 0x43
 8003c38:	e7c2      	b.n	8003bc0 <_printf_common+0x58>
 8003c3a:	2301      	movs	r3, #1
 8003c3c:	4622      	mov	r2, r4
 8003c3e:	4641      	mov	r1, r8
 8003c40:	4638      	mov	r0, r7
 8003c42:	47c8      	blx	r9
 8003c44:	3001      	adds	r0, #1
 8003c46:	d0e6      	beq.n	8003c16 <_printf_common+0xae>
 8003c48:	3601      	adds	r6, #1
 8003c4a:	e7d9      	b.n	8003c00 <_printf_common+0x98>

08003c4c <_printf_i>:
 8003c4c:	e92d 47ff 	stmdb	sp!, {r0, r1, r2, r3, r4, r5, r6, r7, r8, r9, sl, lr}
 8003c50:	7e0f      	ldrb	r7, [r1, #24]
 8003c52:	4691      	mov	r9, r2
 8003c54:	2f78      	cmp	r7, #120	@ 0x78
 8003c56:	4680      	mov	r8, r0
 8003c58:	460c      	mov	r4, r1
 8003c5a:	469a      	mov	sl, r3
 8003c5c:	9e0c      	ldr	r6, [sp, #48]	@ 0x30
 8003c5e:	f101 0243 	add.w	r2, r1, #67	@ 0x43
 8003c62:	d807      	bhi.n	8003c74 <_printf_i+0x28>
 8003c64:	2f62      	cmp	r7, #98	@ 0x62
 8003c66:	d80a      	bhi.n	8003c7e <_printf_i+0x32>
 8003c68:	2f00      	cmp	r7, #0
 8003c6a:	f000 80d1 	beq.w	8003e10 <_printf_i+0x1c4>
 8003c6e:	2f58      	cmp	r7, #88	@ 0x58
 8003c70:	f000 80b8 	beq.w	8003de4 <_printf_i+0x198>
 8003c74:	f104 0642 	add.w	r6, r4, #66	@ 0x42
 8003c78:	f884 7042 	strb.w	r7, [r4, #66]	@ 0x42
 8003c7c:	e03a      	b.n	8003cf4 <_printf_i+0xa8>
 8003c7e:	f1a7 0363 	sub.w	r3, r7, #99	@ 0x63
 8003c82:	2b15      	cmp	r3, #21
 8003c84:	d8f6      	bhi.n	8003c74 <_printf_i+0x28>
 8003c86:	a101      	add	r1, pc, #4	@ (adr r1, 8003c8c <_printf_i+0x40>)
 8003c88:	f851 f023 	ldr.w	pc, [r1, r3, lsl #2]
 8003c8c:	08003ce5 	.word	0x08003ce5
 8003c90:	08003cf9 	.word	0x08003cf9
 8003c94:	08003c75 	.word	0x08003c75
 8003c98:	08003c75 	.word	0x08003c75
 8003c9c:	08003c75 	.word	0x08003c75
 8003ca0:	08003c75 	.word	0x08003c75
 8003ca4:	08003cf9 	.word	0x08003cf9
 8003ca8:	08003c75 	.word	0x08003c75
 8003cac:	08003c75 	.word	0x08003c75
 8003cb0:	08003c75 	.word	0x08003c75
 8003cb4:	08003c75 	.word	0x08003c75
 8003cb8:	08003df7 	.word	0x08003df7
 8003cbc:	08003d23 	.word	0x08003d23
 8003cc0:	08003db1 	.word	0x08003db1
 8003cc4:	08003c75 	.word	0x08003c75
 8003cc8:	08003c75 	.word	0x08003c75
 8003ccc:	08003e19 	.word	0x08003e19
 8003cd0:	08003c75 	.word	0x08003c75
 8003cd4:	08003d23 	.word	0x08003d23
 8003cd8:	08003c75 	.word	0x08003c75
 8003cdc:	08003c75 	.word	0x08003c75
 8003ce0:	08003db9 	.word	0x08003db9
 8003ce4:	6833      	ldr	r3, [r6, #0]
 8003ce6:	1d1a      	adds	r2, r3, #4
 8003ce8:	681b      	ldr	r3, [r3, #0]
 8003cea:	6032      	str	r2, [r6, #0]
 8003cec:	f104 0642 	add.w	r6, r4, #66	@ 0x42
 8003cf0:	f884 3042 	strb.w	r3, [r4, #66]	@ 0x42
 8003cf4:	2301      	movs	r3, #1
 8003cf6:	e09c      	b.n	8003e32 <_printf_i+0x1e6>
 8003cf8:	6833      	ldr	r3, [r6, #0]
 8003cfa:	6820      	ldr	r0, [r4, #0]
 8003cfc:	1d19      	adds	r1, r3, #4
 8003cfe:	6031      	str	r1, [r6, #0]
 8003d00:	0606      	lsls	r6, r0, #24
 8003d02:	d501      	bpl.n	8003d08 <_printf_i+0xbc>
 8003d04:	681d      	ldr	r5, [r3, #0]
 8003d06:	e003      	b.n	8003d10 <_printf_i+0xc4>
 8003d08:	0645      	lsls	r5, r0, #25
 8003d0a:	d5fb      	bpl.n	8003d04 <_printf_i+0xb8>
 8003d0c:	f9b3 5000 	ldrsh.w	r5, [r3]
 8003d10:	2d00      	cmp	r5, #0
 8003d12:	da03      	bge.n	8003d1c <_printf_i+0xd0>
 8003d14:	232d      	movs	r3, #45	@ 0x2d
 8003d16:	426d      	negs	r5, r5
 8003d18:	f884 3043 	strb.w	r3, [r4, #67]	@ 0x43
 8003d1c:	230a      	movs	r3, #10
 8003d1e:	4858      	ldr	r0, [pc, #352]	@ (8003e80 <_printf_i+0x234>)
 8003d20:	e011      	b.n	8003d46 <_printf_i+0xfa>
 8003d22:	6821      	ldr	r1, [r4, #0]
 8003d24:	6833      	ldr	r3, [r6, #0]
 8003d26:	0608      	lsls	r0, r1, #24
 8003d28:	f853 5b04 	ldr.w	r5, [r3], #4
 8003d2c:	d402      	bmi.n	8003d34 <_printf_i+0xe8>
 8003d2e:	0649      	lsls	r1, r1, #25
 8003d30:	bf48      	it	mi
 8003d32:	b2ad      	uxthmi	r5, r5
 8003d34:	2f6f      	cmp	r7, #111	@ 0x6f
 8003d36:	6033      	str	r3, [r6, #0]
 8003d38:	bf14      	ite	ne
 8003d3a:	230a      	movne	r3, #10
 8003d3c:	2308      	moveq	r3, #8
 8003d3e:	4850      	ldr	r0, [pc, #320]	@ (8003e80 <_printf_i+0x234>)
 8003d40:	2100      	movs	r1, #0
 8003d42:	f884 1043 	strb.w	r1, [r4, #67]	@ 0x43
 8003d46:	6866      	ldr	r6, [r4, #4]
 8003d48:	2e00      	cmp	r6, #0
 8003d4a:	60a6      	str	r6, [r4, #8]
 8003d4c:	db05      	blt.n	8003d5a <_printf_i+0x10e>
 8003d4e:	6821      	ldr	r1, [r4, #0]
 8003d50:	432e      	orrs	r6, r5
 8003d52:	f021 0104 	bic.w	r1, r1, #4
 8003d56:	6021      	str	r1, [r4, #0]
 8003d58:	d04b      	beq.n	8003df2 <_printf_i+0x1a6>
 8003d5a:	4616      	mov	r6, r2
 8003d5c:	fbb5 f1f3 	udiv	r1, r5, r3
 8003d60:	fb03 5711 	mls	r7, r3, r1, r5
 8003d64:	5dc7      	ldrb	r7, [r0, r7]
 8003d66:	f806 7d01 	strb.w	r7, [r6, #-1]!
 8003d6a:	462f      	mov	r7, r5
 8003d6c:	42bb      	cmp	r3, r7
 8003d6e:	460d      	mov	r5, r1
 8003d70:	d9f4      	bls.n	8003d5c <_printf_i+0x110>
 8003d72:	2b08      	cmp	r3, #8
 8003d74:	d10b      	bne.n	8003d8e <_printf_i+0x142>
 8003d76:	6823      	ldr	r3, [r4, #0]
 8003d78:	07df      	lsls	r7, r3, #31
 8003d7a:	d508      	bpl.n	8003d8e <_printf_i+0x142>
 8003d7c:	6923      	ldr	r3, [r4, #16]
 8003d7e:	6861      	ldr	r1, [r4, #4]
 8003d80:	4299      	cmp	r1, r3
 8003d82:	bfde      	ittt	le
 8003d84:	2330      	movle	r3, #48	@ 0x30
 8003d86:	f806 3c01 	strble.w	r3, [r6, #-1]
 8003d8a:	f106 36ff 	addle.w	r6, r6, #4294967295
 8003d8e:	1b92      	subs	r2, r2, r6
 8003d90:	6122      	str	r2, [r4, #16]
 8003d92:	464b      	mov	r3, r9
 8003d94:	4621      	mov	r1, r4
 8003d96:	4640      	mov	r0, r8
 8003d98:	f8cd a000 	str.w	sl, [sp]
 8003d9c:	aa03      	add	r2, sp, #12
 8003d9e:	f7ff fee3 	bl	8003b68 <_printf_common>
 8003da2:	3001      	adds	r0, #1
 8003da4:	d14a      	bne.n	8003e3c <_printf_i+0x1f0>
 8003da6:	f04f 30ff 	mov.w	r0, #4294967295
 8003daa:	b004      	add	sp, #16
 8003dac:	e8bd 87f0 	ldmia.w	sp!, {r4, r5, r6, r7, r8, r9, sl, pc}
 8003db0:	6823      	ldr	r3, [r4, #0]
 8003db2:	f043 0320 	orr.w	r3, r3, #32
 8003db6:	6023      	str	r3, [r4, #0]
 8003db8:	2778      	movs	r7, #120	@ 0x78
 8003dba:	4832      	ldr	r0, [pc, #200]	@ (8003e84 <_printf_i+0x238>)
 8003dbc:	f884 7045 	strb.w	r7, [r4, #69]	@ 0x45
 8003dc0:	6823      	ldr	r3, [r4, #0]
 8003dc2:	6831      	ldr	r1, [r6, #0]
 8003dc4:	061f      	lsls	r7, r3, #24
 8003dc6:	f851 5b04 	ldr.w	r5, [r1], #4
 8003dca:	d402      	bmi.n	8003dd2 <_printf_i+0x186>
 8003dcc:	065f      	lsls	r7, r3, #25
 8003dce:	bf48      	it	mi
 8003dd0:	b2ad      	uxthmi	r5, r5
 8003dd2:	6031      	str	r1, [r6, #0]
 8003dd4:	07d9      	lsls	r1, r3, #31
 8003dd6:	bf44      	itt	mi
 8003dd8:	f043 0320 	orrmi.w	r3, r3, #32
 8003ddc:	6023      	strmi	r3, [r4, #0]
 8003dde:	b11d      	cbz	r5, 8003de8 <_printf_i+0x19c>
 8003de0:	2310      	movs	r3, #16
 8003de2:	e7ad      	b.n	8003d40 <_printf_i+0xf4>
 8003de4:	4826      	ldr	r0, [pc, #152]	@ (8003e80 <_printf_i+0x234>)
 8003de6:	e7e9      	b.n	8003dbc <_printf_i+0x170>
 8003de8:	6823      	ldr	r3, [r4, #0]
 8003dea:	f023 0320 	bic.w	r3, r3, #32
 8003dee:	6023      	str	r3, [r4, #0]
 8003df0:	e7f6      	b.n	8003de0 <_printf_i+0x194>
 8003df2:	4616      	mov	r6, r2
 8003df4:	e7bd      	b.n	8003d72 <_printf_i+0x126>
 8003df6:	6833      	ldr	r3, [r6, #0]
 8003df8:	6825      	ldr	r5, [r4, #0]
 8003dfa:	1d18      	adds	r0, r3, #4
 8003dfc:	6961      	ldr	r1, [r4, #20]
 8003dfe:	6030      	str	r0, [r6, #0]
 8003e00:	062e      	lsls	r6, r5, #24
 8003e02:	681b      	ldr	r3, [r3, #0]
 8003e04:	d501      	bpl.n	8003e0a <_printf_i+0x1be>
 8003e06:	6019      	str	r1, [r3, #0]
 8003e08:	e002      	b.n	8003e10 <_printf_i+0x1c4>
 8003e0a:	0668      	lsls	r0, r5, #25
 8003e0c:	d5fb      	bpl.n	8003e06 <_printf_i+0x1ba>
 8003e0e:	8019      	strh	r1, [r3, #0]
 8003e10:	2300      	movs	r3, #0
 8003e12:	4616      	mov	r6, r2
 8003e14:	6123      	str	r3, [r4, #16]
 8003e16:	e7bc      	b.n	8003d92 <_printf_i+0x146>
 8003e18:	6833      	ldr	r3, [r6, #0]
 8003e1a:	2100      	movs	r1, #0
 8003e1c:	1d1a      	adds	r2, r3, #4
 8003e1e:	6032      	str	r2, [r6, #0]
 8003e20:	681e      	ldr	r6, [r3, #0]
 8003e22:	6862      	ldr	r2, [r4, #4]
 8003e24:	4630      	mov	r0, r6
 8003e26:	f000 fab8 	bl	800439a <memchr>
 8003e2a:	b108      	cbz	r0, 8003e30 <_printf_i+0x1e4>
 8003e2c:	1b80      	subs	r0, r0, r6
 8003e2e:	6060      	str	r0, [r4, #4]
 8003e30:	6863      	ldr	r3, [r4, #4]
 8003e32:	6123      	str	r3, [r4, #16]
 8003e34:	2300      	movs	r3, #0
 8003e36:	f884 3043 	strb.w	r3, [r4, #67]	@ 0x43
 8003e3a:	e7aa      	b.n	8003d92 <_printf_i+0x146>
 8003e3c:	4632      	mov	r2, r6
 8003e3e:	4649      	mov	r1, r9
 8003e40:	4640      	mov	r0, r8
 8003e42:	6923      	ldr	r3, [r4, #16]
 8003e44:	47d0      	blx	sl
 8003e46:	3001      	adds	r0, #1
 8003e48:	d0ad      	beq.n	8003da6 <_printf_i+0x15a>
 8003e4a:	6823      	ldr	r3, [r4, #0]
 8003e4c:	079b      	lsls	r3, r3, #30
 8003e4e:	d413      	bmi.n	8003e78 <_printf_i+0x22c>
 8003e50:	68e0      	ldr	r0, [r4, #12]
 8003e52:	9b03      	ldr	r3, [sp, #12]
 8003e54:	4298      	cmp	r0, r3
 8003e56:	bfb8      	it	lt
 8003e58:	4618      	movlt	r0, r3
 8003e5a:	e7a6      	b.n	8003daa <_printf_i+0x15e>
 8003e5c:	2301      	movs	r3, #1
 8003e5e:	4632      	mov	r2, r6
 8003e60:	4649      	mov	r1, r9
 8003e62:	4640      	mov	r0, r8
 8003e64:	47d0      	blx	sl
 8003e66:	3001      	adds	r0, #1
 8003e68:	d09d      	beq.n	8003da6 <_printf_i+0x15a>
 8003e6a:	3501      	adds	r5, #1
 8003e6c:	68e3      	ldr	r3, [r4, #12]
 8003e6e:	9903      	ldr	r1, [sp, #12]
 8003e70:	1a5b      	subs	r3, r3, r1
 8003e72:	42ab      	cmp	r3, r5
 8003e74:	dcf2      	bgt.n	8003e5c <_printf_i+0x210>
 8003e76:	e7eb      	b.n	8003e50 <_printf_i+0x204>
 8003e78:	2500      	movs	r5, #0
 8003e7a:	f104 0619 	add.w	r6, r4, #25
 8003e7e:	e7f5      	b.n	8003e6c <_printf_i+0x220>
 8003e80:	08006064 	.word	0x08006064
 8003e84:	08006075 	.word	0x08006075

08003e88 <std>:
 8003e88:	2300      	movs	r3, #0
 8003e8a:	b510      	push	{r4, lr}
 8003e8c:	4604      	mov	r4, r0
 8003e8e:	e9c0 3300 	strd	r3, r3, [r0]
 8003e92:	e9c0 3304 	strd	r3, r3, [r0, #16]
 8003e96:	6083      	str	r3, [r0, #8]
 8003e98:	8181      	strh	r1, [r0, #12]
 8003e9a:	6643      	str	r3, [r0, #100]	@ 0x64
 8003e9c:	81c2      	strh	r2, [r0, #14]
 8003e9e:	6183      	str	r3, [r0, #24]
 8003ea0:	4619      	mov	r1, r3
 8003ea2:	2208      	movs	r2, #8
 8003ea4:	305c      	adds	r0, #92	@ 0x5c
 8003ea6:	f000 f9f9 	bl	800429c <memset>
 8003eaa:	4b0d      	ldr	r3, [pc, #52]	@ (8003ee0 <std+0x58>)
 8003eac:	6224      	str	r4, [r4, #32]
 8003eae:	6263      	str	r3, [r4, #36]	@ 0x24
 8003eb0:	4b0c      	ldr	r3, [pc, #48]	@ (8003ee4 <std+0x5c>)
 8003eb2:	62a3      	str	r3, [r4, #40]	@ 0x28
 8003eb4:	4b0c      	ldr	r3, [pc, #48]	@ (8003ee8 <std+0x60>)
 8003eb6:	62e3      	str	r3, [r4, #44]	@ 0x2c
 8003eb8:	4b0c      	ldr	r3, [pc, #48]	@ (8003eec <std+0x64>)
 8003eba:	6323      	str	r3, [r4, #48]	@ 0x30
 8003ebc:	4b0c      	ldr	r3, [pc, #48]	@ (8003ef0 <std+0x68>)
 8003ebe:	429c      	cmp	r4, r3
 8003ec0:	d006      	beq.n	8003ed0 <std+0x48>
 8003ec2:	f103 0268 	add.w	r2, r3, #104	@ 0x68
 8003ec6:	4294      	cmp	r4, r2
 8003ec8:	d002      	beq.n	8003ed0 <std+0x48>
 8003eca:	33d0      	adds	r3, #208	@ 0xd0
 8003ecc:	429c      	cmp	r4, r3
 8003ece:	d105      	bne.n	8003edc <std+0x54>
 8003ed0:	f104 0058 	add.w	r0, r4, #88	@ 0x58
 8003ed4:	e8bd 4010 	ldmia.w	sp!, {r4, lr}
 8003ed8:	f000 ba5c 	b.w	8004394 <__retarget_lock_init_recursive>
 8003edc:	bd10      	pop	{r4, pc}
 8003ede:	bf00      	nop
 8003ee0:	080040ed 	.word	0x080040ed
 8003ee4:	0800410f 	.word	0x0800410f
 8003ee8:	08004147 	.word	0x08004147
 8003eec:	0800416b 	.word	0x0800416b
 8003ef0:	20000270 	.word	0x20000270

08003ef4 <stdio_exit_handler>:
 8003ef4:	4a02      	ldr	r2, [pc, #8]	@ (8003f00 <stdio_exit_handler+0xc>)
 8003ef6:	4903      	ldr	r1, [pc, #12]	@ (8003f04 <stdio_exit_handler+0x10>)
 8003ef8:	4803      	ldr	r0, [pc, #12]	@ (8003f08 <stdio_exit_handler+0x14>)
 8003efa:	f000 b869 	b.w	8003fd0 <_fwalk_sglue>
 8003efe:	bf00      	nop
 8003f00:	2000000c 	.word	0x2000000c
 8003f04:	08005ce1 	.word	0x08005ce1
 8003f08:	2000001c 	.word	0x2000001c

08003f0c <cleanup_stdio>:
 8003f0c:	6841      	ldr	r1, [r0, #4]
 8003f0e:	4b0c      	ldr	r3, [pc, #48]	@ (8003f40 <cleanup_stdio+0x34>)
 8003f10:	b510      	push	{r4, lr}
 8003f12:	4299      	cmp	r1, r3
 8003f14:	4604      	mov	r4, r0
 8003f16:	d001      	beq.n	8003f1c <cleanup_stdio+0x10>
 8003f18:	f001 fee2 	bl	8005ce0 <_fflush_r>
 8003f1c:	68a1      	ldr	r1, [r4, #8]
 8003f1e:	4b09      	ldr	r3, [pc, #36]	@ (8003f44 <cleanup_stdio+0x38>)
 8003f20:	4299      	cmp	r1, r3
 8003f22:	d002      	beq.n	8003f2a <cleanup_stdio+0x1e>
 8003f24:	4620      	mov	r0, r4
 8003f26:	f001 fedb 	bl	8005ce0 <_fflush_r>
 8003f2a:	68e1      	ldr	r1, [r4, #12]
 8003f2c:	4b06      	ldr	r3, [pc, #24]	@ (8003f48 <cleanup_stdio+0x3c>)
 8003f2e:	4299      	cmp	r1, r3
 8003f30:	d004      	beq.n	8003f3c <cleanup_stdio+0x30>
 8003f32:	4620      	mov	r0, r4
 8003f34:	e8bd 4010 	ldmia.w	sp!, {r4, lr}
 8003f38:	f001 bed2 	b.w	8005ce0 <_fflush_r>
 8003f3c:	bd10      	pop	{r4, pc}
 8003f3e:	bf00      	nop
 8003f40:	20000270 	.word	0x20000270
 8003f44:	200002d8 	.word	0x200002d8
 8003f48:	20000340 	.word	0x20000340

08003f4c <global_stdio_init.part.0>:
 8003f4c:	b510      	push	{r4, lr}
 8003f4e:	4b0b      	ldr	r3, [pc, #44]	@ (8003f7c <global_stdio_init.part.0+0x30>)
 8003f50:	4c0b      	ldr	r4, [pc, #44]	@ (8003f80 <global_stdio_init.part.0+0x34>)
 8003f52:	4a0c      	ldr	r2, [pc, #48]	@ (8003f84 <global_stdio_init.part.0+0x38>)
 8003f54:	4620      	mov	r0, r4
 8003f56:	601a      	str	r2, [r3, #0]
 8003f58:	2104      	movs	r1, #4
 8003f5a:	2200      	movs	r2, #0
 8003f5c:	f7ff ff94 	bl	8003e88 <std>
 8003f60:	f104 0068 	add.w	r0, r4, #104	@ 0x68
 8003f64:	2201      	movs	r2, #1
 8003f66:	2109      	movs	r1, #9
 8003f68:	f7ff ff8e 	bl	8003e88 <std>
 8003f6c:	f104 00d0 	add.w	r0, r4, #208	@ 0xd0
 8003f70:	2202      	movs	r2, #2
 8003f72:	e8bd 4010 	ldmia.w	sp!, {r4, lr}
 8003f76:	2112      	movs	r1, #18
 8003f78:	f7ff bf86 	b.w	8003e88 <std>
 8003f7c:	200003a8 	.word	0x200003a8
 8003f80:	20000270 	.word	0x20000270
 8003f84:	08003ef5 	.word	0x08003ef5

08003f88 <__sfp_lock_acquire>:
 8003f88:	4801      	ldr	r0, [pc, #4]	@ (8003f90 <__sfp_lock_acquire+0x8>)
 8003f8a:	f000 ba04 	b.w	8004396 <__retarget_lock_acquire_recursive>
 8003f8e:	bf00      	nop
 8003f90:	200003b1 	.word	0x200003b1

08003f94 <__sfp_lock_release>:
 8003f94:	4801      	ldr	r0, [pc, #4]	@ (8003f9c <__sfp_lock_release+0x8>)
 8003f96:	f000 b9ff 	b.w	8004398 <__retarget_lock_release_recursive>
 8003f9a:	bf00      	nop
 8003f9c:	200003b1 	.word	0x200003b1

08003fa0 <__sinit>:
 8003fa0:	b510      	push	{r4, lr}
 8003fa2:	4604      	mov	r4, r0
 8003fa4:	f7ff fff0 	bl	8003f88 <__sfp_lock_acquire>
 8003fa8:	6a23      	ldr	r3, [r4, #32]
 8003faa:	b11b      	cbz	r3, 8003fb4 <__sinit+0x14>
 8003fac:	e8bd 4010 	ldmia.w	sp!, {r4, lr}
 8003fb0:	f7ff bff0 	b.w	8003f94 <__sfp_lock_release>
 8003fb4:	4b04      	ldr	r3, [pc, #16]	@ (8003fc8 <__sinit+0x28>)
 8003fb6:	6223      	str	r3, [r4, #32]
 8003fb8:	4b04      	ldr	r3, [pc, #16]	@ (8003fcc <__sinit+0x2c>)
 8003fba:	681b      	ldr	r3, [r3, #0]
 8003fbc:	2b00      	cmp	r3, #0
 8003fbe:	d1f5      	bne.n	8003fac <__sinit+0xc>
 8003fc0:	f7ff ffc4 	bl	8003f4c <global_stdio_init.part.0>
 8003fc4:	e7f2      	b.n	8003fac <__sinit+0xc>
 8003fc6:	bf00      	nop
 8003fc8:	08003f0d 	.word	0x08003f0d
 8003fcc:	200003a8 	.word	0x200003a8

08003fd0 <_fwalk_sglue>:
 8003fd0:	e92d 43f8 	stmdb	sp!, {r3, r4, r5, r6, r7, r8, r9, lr}
 8003fd4:	4607      	mov	r7, r0
 8003fd6:	4688      	mov	r8, r1
 8003fd8:	4614      	mov	r4, r2
 8003fda:	2600      	movs	r6, #0
 8003fdc:	e9d4 9501 	ldrd	r9, r5, [r4, #4]
 8003fe0:	f1b9 0901 	subs.w	r9, r9, #1
 8003fe4:	d505      	bpl.n	8003ff2 <_fwalk_sglue+0x22>
 8003fe6:	6824      	ldr	r4, [r4, #0]
 8003fe8:	2c00      	cmp	r4, #0
 8003fea:	d1f7      	bne.n	8003fdc <_fwalk_sglue+0xc>
 8003fec:	4630      	mov	r0, r6
 8003fee:	e8bd 83f8 	ldmia.w	sp!, {r3, r4, r5, r6, r7, r8, r9, pc}
 8003ff2:	89ab      	ldrh	r3, [r5, #12]
 8003ff4:	2b01      	cmp	r3, #1
 8003ff6:	d907      	bls.n	8004008 <_fwalk_sglue+0x38>
 8003ff8:	f9b5 300e 	ldrsh.w	r3, [r5, #14]
 8003ffc:	3301      	adds	r3, #1
 8003ffe:	d003      	beq.n	8004008 <_fwalk_sglue+0x38>
 8004000:	4629      	mov	r1, r5
 8004002:	4638      	mov	r0, r7
 8004004:	47c0      	blx	r8
 8004006:	4306      	orrs	r6, r0
 8004008:	3568      	adds	r5, #104	@ 0x68
 800400a:	e7e9      	b.n	8003fe0 <_fwalk_sglue+0x10>

0800400c <iprintf>:
 800400c:	b40f      	push	{r0, r1, r2, r3}
 800400e:	b507      	push	{r0, r1, r2, lr}
 8004010:	4906      	ldr	r1, [pc, #24]	@ (800402c <iprintf+0x20>)
 8004012:	ab04      	add	r3, sp, #16
 8004014:	6808      	ldr	r0, [r1, #0]
 8004016:	f853 2b04 	ldr.w	r2, [r3], #4
 800401a:	6881      	ldr	r1, [r0, #8]
 800401c:	9301      	str	r3, [sp, #4]
 800401e:	f001 fcc7 	bl	80059b0 <_vfiprintf_r>
 8004022:	b003      	add	sp, #12
 8004024:	f85d eb04 	ldr.w	lr, [sp], #4
 8004028:	b004      	add	sp, #16
 800402a:	4770      	bx	lr
 800402c:	20000018 	.word	0x20000018

08004030 <_puts_r>:
 8004030:	6a03      	ldr	r3, [r0, #32]
 8004032:	b570      	push	{r4, r5, r6, lr}
 8004034:	4605      	mov	r5, r0
 8004036:	460e      	mov	r6, r1
 8004038:	6884      	ldr	r4, [r0, #8]
 800403a:	b90b      	cbnz	r3, 8004040 <_puts_r+0x10>
 800403c:	f7ff ffb0 	bl	8003fa0 <__sinit>
 8004040:	6e63      	ldr	r3, [r4, #100]	@ 0x64
 8004042:	07db      	lsls	r3, r3, #31
 8004044:	d405      	bmi.n	8004052 <_puts_r+0x22>
 8004046:	89a3      	ldrh	r3, [r4, #12]
 8004048:	0598      	lsls	r0, r3, #22
 800404a:	d402      	bmi.n	8004052 <_puts_r+0x22>
 800404c:	6da0      	ldr	r0, [r4, #88]	@ 0x58
 800404e:	f000 f9a2 	bl	8004396 <__retarget_lock_acquire_recursive>
 8004052:	89a3      	ldrh	r3, [r4, #12]
 8004054:	0719      	lsls	r1, r3, #28
 8004056:	d502      	bpl.n	800405e <_puts_r+0x2e>
 8004058:	6923      	ldr	r3, [r4, #16]
 800405a:	2b00      	cmp	r3, #0
 800405c:	d135      	bne.n	80040ca <_puts_r+0x9a>
 800405e:	4621      	mov	r1, r4
 8004060:	4628      	mov	r0, r5
 8004062:	f000 f8c5 	bl	80041f0 <__swsetup_r>
 8004066:	b380      	cbz	r0, 80040ca <_puts_r+0x9a>
 8004068:	f04f 35ff 	mov.w	r5, #4294967295
 800406c:	6e63      	ldr	r3, [r4, #100]	@ 0x64
 800406e:	07da      	lsls	r2, r3, #31
 8004070:	d405      	bmi.n	800407e <_puts_r+0x4e>
 8004072:	89a3      	ldrh	r3, [r4, #12]
 8004074:	059b      	lsls	r3, r3, #22
 8004076:	d402      	bmi.n	800407e <_puts_r+0x4e>
 8004078:	6da0      	ldr	r0, [r4, #88]	@ 0x58
 800407a:	f000 f98d 	bl	8004398 <__retarget_lock_release_recursive>
 800407e:	4628      	mov	r0, r5
 8004080:	bd70      	pop	{r4, r5, r6, pc}
 8004082:	2b00      	cmp	r3, #0
 8004084:	da04      	bge.n	8004090 <_puts_r+0x60>
 8004086:	69a2      	ldr	r2, [r4, #24]
 8004088:	429a      	cmp	r2, r3
 800408a:	dc17      	bgt.n	80040bc <_puts_r+0x8c>
 800408c:	290a      	cmp	r1, #10
 800408e:	d015      	beq.n	80040bc <_puts_r+0x8c>
 8004090:	6823      	ldr	r3, [r4, #0]
 8004092:	1c5a      	adds	r2, r3, #1
 8004094:	6022      	str	r2, [r4, #0]
 8004096:	7019      	strb	r1, [r3, #0]
 8004098:	68a3      	ldr	r3, [r4, #8]
 800409a:	f816 1f01 	ldrb.w	r1, [r6, #1]!
 800409e:	3b01      	subs	r3, #1
 80040a0:	60a3      	str	r3, [r4, #8]
 80040a2:	2900      	cmp	r1, #0
 80040a4:	d1ed      	bne.n	8004082 <_puts_r+0x52>
 80040a6:	2b00      	cmp	r3, #0
 80040a8:	da11      	bge.n	80040ce <_puts_r+0x9e>
 80040aa:	4622      	mov	r2, r4
 80040ac:	210a      	movs	r1, #10
 80040ae:	4628      	mov	r0, r5
 80040b0:	f000 f85f 	bl	8004172 <__swbuf_r>
 80040b4:	3001      	adds	r0, #1
 80040b6:	d0d7      	beq.n	8004068 <_puts_r+0x38>
 80040b8:	250a      	movs	r5, #10
 80040ba:	e7d7      	b.n	800406c <_puts_r+0x3c>
 80040bc:	4622      	mov	r2, r4
 80040be:	4628      	mov	r0, r5
 80040c0:	f000 f857 	bl	8004172 <__swbuf_r>
 80040c4:	3001      	adds	r0, #1
 80040c6:	d1e7      	bne.n	8004098 <_puts_r+0x68>
 80040c8:	e7ce      	b.n	8004068 <_puts_r+0x38>
 80040ca:	3e01      	subs	r6, #1
 80040cc:	e7e4      	b.n	8004098 <_puts_r+0x68>
 80040ce:	6823      	ldr	r3, [r4, #0]
 80040d0:	1c5a      	adds	r2, r3, #1
 80040d2:	6022      	str	r2, [r4, #0]
 80040d4:	220a      	movs	r2, #10
 80040d6:	701a      	strb	r2, [r3, #0]
 80040d8:	e7ee      	b.n	80040b8 <_puts_r+0x88>
	...

080040dc <puts>:
 80040dc:	4b02      	ldr	r3, [pc, #8]	@ (80040e8 <puts+0xc>)
 80040de:	4601      	mov	r1, r0
 80040e0:	6818      	ldr	r0, [r3, #0]
 80040e2:	f7ff bfa5 	b.w	8004030 <_puts_r>
 80040e6:	bf00      	nop
 80040e8:	20000018 	.word	0x20000018

080040ec <__sread>:
 80040ec:	b510      	push	{r4, lr}
 80040ee:	460c      	mov	r4, r1
 80040f0:	f9b1 100e 	ldrsh.w	r1, [r1, #14]
 80040f4:	f000 f900 	bl	80042f8 <_read_r>
 80040f8:	2800      	cmp	r0, #0
 80040fa:	bfab      	itete	ge
 80040fc:	6d63      	ldrge	r3, [r4, #84]	@ 0x54
 80040fe:	89a3      	ldrhlt	r3, [r4, #12]
 8004100:	181b      	addge	r3, r3, r0
 8004102:	f423 5380 	biclt.w	r3, r3, #4096	@ 0x1000
 8004106:	bfac      	ite	ge
 8004108:	6563      	strge	r3, [r4, #84]	@ 0x54
 800410a:	81a3      	strhlt	r3, [r4, #12]
 800410c:	bd10      	pop	{r4, pc}

0800410e <__swrite>:
 800410e:	e92d 41f0 	stmdb	sp!, {r4, r5, r6, r7, r8, lr}
 8004112:	461f      	mov	r7, r3
 8004114:	898b      	ldrh	r3, [r1, #12]
 8004116:	4605      	mov	r5, r0
 8004118:	05db      	lsls	r3, r3, #23
 800411a:	460c      	mov	r4, r1
 800411c:	4616      	mov	r6, r2
 800411e:	d505      	bpl.n	800412c <__swrite+0x1e>
 8004120:	2302      	movs	r3, #2
 8004122:	2200      	movs	r2, #0
 8004124:	f9b1 100e 	ldrsh.w	r1, [r1, #14]
 8004128:	f000 f8d4 	bl	80042d4 <_lseek_r>
 800412c:	89a3      	ldrh	r3, [r4, #12]
 800412e:	4632      	mov	r2, r6
 8004130:	f423 5380 	bic.w	r3, r3, #4096	@ 0x1000
 8004134:	81a3      	strh	r3, [r4, #12]
 8004136:	4628      	mov	r0, r5
 8004138:	463b      	mov	r3, r7
 800413a:	f9b4 100e 	ldrsh.w	r1, [r4, #14]
 800413e:	e8bd 41f0 	ldmia.w	sp!, {r4, r5, r6, r7, r8, lr}
 8004142:	f000 b8eb 	b.w	800431c <_write_r>

08004146 <__sseek>:
 8004146:	b510      	push	{r4, lr}
 8004148:	460c      	mov	r4, r1
 800414a:	f9b1 100e 	ldrsh.w	r1, [r1, #14]
 800414e:	f000 f8c1 	bl	80042d4 <_lseek_r>
 8004152:	1c43      	adds	r3, r0, #1
 8004154:	89a3      	ldrh	r3, [r4, #12]
 8004156:	bf15      	itete	ne
 8004158:	6560      	strne	r0, [r4, #84]	@ 0x54
 800415a:	f423 5380 	biceq.w	r3, r3, #4096	@ 0x1000
 800415e:	f443 5380 	orrne.w	r3, r3, #4096	@ 0x1000
 8004162:	81a3      	strheq	r3, [r4, #12]
 8004164:	bf18      	it	ne
 8004166:	81a3      	strhne	r3, [r4, #12]
 8004168:	bd10      	pop	{r4, pc}

0800416a <__sclose>:
 800416a:	f9b1 100e 	ldrsh.w	r1, [r1, #14]
 800416e:	f000 b8a1 	b.w	80042b4 <_close_r>

08004172 <__swbuf_r>:
 8004172:	b5f8      	push	{r3, r4, r5, r6, r7, lr}
 8004174:	460e      	mov	r6, r1
 8004176:	4614      	mov	r4, r2
 8004178:	4605      	mov	r5, r0
 800417a:	b118      	cbz	r0, 8004184 <__swbuf_r+0x12>
 800417c:	6a03      	ldr	r3, [r0, #32]
 800417e:	b90b      	cbnz	r3, 8004184 <__swbuf_r+0x12>
 8004180:	f7ff ff0e 	bl	8003fa0 <__sinit>
 8004184:	69a3      	ldr	r3, [r4, #24]
 8004186:	60a3      	str	r3, [r4, #8]
 8004188:	89a3      	ldrh	r3, [r4, #12]
 800418a:	071a      	lsls	r2, r3, #28
 800418c:	d501      	bpl.n	8004192 <__swbuf_r+0x20>
 800418e:	6923      	ldr	r3, [r4, #16]
 8004190:	b943      	cbnz	r3, 80041a4 <__swbuf_r+0x32>
 8004192:	4621      	mov	r1, r4
 8004194:	4628      	mov	r0, r5
 8004196:	f000 f82b 	bl	80041f0 <__swsetup_r>
 800419a:	b118      	cbz	r0, 80041a4 <__swbuf_r+0x32>
 800419c:	f04f 37ff 	mov.w	r7, #4294967295
 80041a0:	4638      	mov	r0, r7
 80041a2:	bdf8      	pop	{r3, r4, r5, r6, r7, pc}
 80041a4:	6823      	ldr	r3, [r4, #0]
 80041a6:	6922      	ldr	r2, [r4, #16]
 80041a8:	b2f6      	uxtb	r6, r6
 80041aa:	1a98      	subs	r0, r3, r2
 80041ac:	6963      	ldr	r3, [r4, #20]
 80041ae:	4637      	mov	r7, r6
 80041b0:	4283      	cmp	r3, r0
 80041b2:	dc05      	bgt.n	80041c0 <__swbuf_r+0x4e>
 80041b4:	4621      	mov	r1, r4
 80041b6:	4628      	mov	r0, r5
 80041b8:	f001 fd92 	bl	8005ce0 <_fflush_r>
 80041bc:	2800      	cmp	r0, #0
 80041be:	d1ed      	bne.n	800419c <__swbuf_r+0x2a>
 80041c0:	68a3      	ldr	r3, [r4, #8]
 80041c2:	3b01      	subs	r3, #1
 80041c4:	60a3      	str	r3, [r4, #8]
 80041c6:	6823      	ldr	r3, [r4, #0]
 80041c8:	1c5a      	adds	r2, r3, #1
 80041ca:	6022      	str	r2, [r4, #0]
 80041cc:	701e      	strb	r6, [r3, #0]
 80041ce:	6962      	ldr	r2, [r4, #20]
 80041d0:	1c43      	adds	r3, r0, #1
 80041d2:	429a      	cmp	r2, r3
 80041d4:	d004      	beq.n	80041e0 <__swbuf_r+0x6e>
 80041d6:	89a3      	ldrh	r3, [r4, #12]
 80041d8:	07db      	lsls	r3, r3, #31
 80041da:	d5e1      	bpl.n	80041a0 <__swbuf_r+0x2e>
 80041dc:	2e0a      	cmp	r6, #10
 80041de:	d1df      	bne.n	80041a0 <__swbuf_r+0x2e>
 80041e0:	4621      	mov	r1, r4
 80041e2:	4628      	mov	r0, r5
 80041e4:	f001 fd7c 	bl	8005ce0 <_fflush_r>
 80041e8:	2800      	cmp	r0, #0
 80041ea:	d0d9      	beq.n	80041a0 <__swbuf_r+0x2e>
 80041ec:	e7d6      	b.n	800419c <__swbuf_r+0x2a>
	...

080041f0 <__swsetup_r>:
 80041f0:	b538      	push	{r3, r4, r5, lr}
 80041f2:	4b29      	ldr	r3, [pc, #164]	@ (8004298 <__swsetup_r+0xa8>)
 80041f4:	4605      	mov	r5, r0
 80041f6:	6818      	ldr	r0, [r3, #0]
 80041f8:	460c      	mov	r4, r1
 80041fa:	b118      	cbz	r0, 8004204 <__swsetup_r+0x14>
 80041fc:	6a03      	ldr	r3, [r0, #32]
 80041fe:	b90b      	cbnz	r3, 8004204 <__swsetup_r+0x14>
 8004200:	f7ff fece 	bl	8003fa0 <__sinit>
 8004204:	f9b4 300c 	ldrsh.w	r3, [r4, #12]
 8004208:	0719      	lsls	r1, r3, #28
 800420a:	d422      	bmi.n	8004252 <__swsetup_r+0x62>
 800420c:	06da      	lsls	r2, r3, #27
 800420e:	d407      	bmi.n	8004220 <__swsetup_r+0x30>
 8004210:	2209      	movs	r2, #9
 8004212:	602a      	str	r2, [r5, #0]
 8004214:	f043 0340 	orr.w	r3, r3, #64	@ 0x40
 8004218:	f04f 30ff 	mov.w	r0, #4294967295
 800421c:	81a3      	strh	r3, [r4, #12]
 800421e:	e033      	b.n	8004288 <__swsetup_r+0x98>
 8004220:	0758      	lsls	r0, r3, #29
 8004222:	d512      	bpl.n	800424a <__swsetup_r+0x5a>
 8004224:	6b61      	ldr	r1, [r4, #52]	@ 0x34
 8004226:	b141      	cbz	r1, 800423a <__swsetup_r+0x4a>
 8004228:	f104 0344 	add.w	r3, r4, #68	@ 0x44
 800422c:	4299      	cmp	r1, r3
 800422e:	d002      	beq.n	8004236 <__swsetup_r+0x46>
 8004230:	4628      	mov	r0, r5
 8004232:	f000 ff1d 	bl	8005070 <_free_r>
 8004236:	2300      	movs	r3, #0
 8004238:	6363      	str	r3, [r4, #52]	@ 0x34
 800423a:	89a3      	ldrh	r3, [r4, #12]
 800423c:	f023 0324 	bic.w	r3, r3, #36	@ 0x24
 8004240:	81a3      	strh	r3, [r4, #12]
 8004242:	2300      	movs	r3, #0
 8004244:	6063      	str	r3, [r4, #4]
 8004246:	6923      	ldr	r3, [r4, #16]
 8004248:	6023      	str	r3, [r4, #0]
 800424a:	89a3      	ldrh	r3, [r4, #12]
 800424c:	f043 0308 	orr.w	r3, r3, #8
 8004250:	81a3      	strh	r3, [r4, #12]
 8004252:	6923      	ldr	r3, [r4, #16]
 8004254:	b94b      	cbnz	r3, 800426a <__swsetup_r+0x7a>
 8004256:	89a3      	ldrh	r3, [r4, #12]
 8004258:	f403 7320 	and.w	r3, r3, #640	@ 0x280
 800425c:	f5b3 7f00 	cmp.w	r3, #512	@ 0x200
 8004260:	d003      	beq.n	800426a <__swsetup_r+0x7a>
 8004262:	4621      	mov	r1, r4
 8004264:	4628      	mov	r0, r5
 8004266:	f001 fd88 	bl	8005d7a <__smakebuf_r>
 800426a:	f9b4 300c 	ldrsh.w	r3, [r4, #12]
 800426e:	f013 0201 	ands.w	r2, r3, #1
 8004272:	d00a      	beq.n	800428a <__swsetup_r+0x9a>
 8004274:	2200      	movs	r2, #0
 8004276:	60a2      	str	r2, [r4, #8]
 8004278:	6962      	ldr	r2, [r4, #20]
 800427a:	4252      	negs	r2, r2
 800427c:	61a2      	str	r2, [r4, #24]
 800427e:	6922      	ldr	r2, [r4, #16]
 8004280:	b942      	cbnz	r2, 8004294 <__swsetup_r+0xa4>
 8004282:	f013 0080 	ands.w	r0, r3, #128	@ 0x80
 8004286:	d1c5      	bne.n	8004214 <__swsetup_r+0x24>
 8004288:	bd38      	pop	{r3, r4, r5, pc}
 800428a:	0799      	lsls	r1, r3, #30
 800428c:	bf58      	it	pl
 800428e:	6962      	ldrpl	r2, [r4, #20]
 8004290:	60a2      	str	r2, [r4, #8]
 8004292:	e7f4      	b.n	800427e <__swsetup_r+0x8e>
 8004294:	2000      	movs	r0, #0
 8004296:	e7f7      	b.n	8004288 <__swsetup_r+0x98>
 8004298:	20000018 	.word	0x20000018

0800429c <memset>:
 800429c:	4603      	mov	r3, r0
 800429e:	4402      	add	r2, r0
 80042a0:	4293      	cmp	r3, r2
 80042a2:	d100      	bne.n	80042a6 <memset+0xa>
 80042a4:	4770      	bx	lr
 80042a6:	f803 1b01 	strb.w	r1, [r3], #1
 80042aa:	e7f9      	b.n	80042a0 <memset+0x4>

080042ac <_localeconv_r>:
 80042ac:	4800      	ldr	r0, [pc, #0]	@ (80042b0 <_localeconv_r+0x4>)
 80042ae:	4770      	bx	lr
 80042b0:	20000158 	.word	0x20000158

080042b4 <_close_r>:
 80042b4:	b538      	push	{r3, r4, r5, lr}
 80042b6:	2300      	movs	r3, #0
 80042b8:	4d05      	ldr	r5, [pc, #20]	@ (80042d0 <_close_r+0x1c>)
 80042ba:	4604      	mov	r4, r0
 80042bc:	4608      	mov	r0, r1
 80042be:	602b      	str	r3, [r5, #0]
 80042c0:	f7fd f929 	bl	8001516 <_close>
 80042c4:	1c43      	adds	r3, r0, #1
 80042c6:	d102      	bne.n	80042ce <_close_r+0x1a>
 80042c8:	682b      	ldr	r3, [r5, #0]
 80042ca:	b103      	cbz	r3, 80042ce <_close_r+0x1a>
 80042cc:	6023      	str	r3, [r4, #0]
 80042ce:	bd38      	pop	{r3, r4, r5, pc}
 80042d0:	200003ac 	.word	0x200003ac

080042d4 <_lseek_r>:
 80042d4:	b538      	push	{r3, r4, r5, lr}
 80042d6:	4604      	mov	r4, r0
 80042d8:	4608      	mov	r0, r1
 80042da:	4611      	mov	r1, r2
 80042dc:	2200      	movs	r2, #0
 80042de:	4d05      	ldr	r5, [pc, #20]	@ (80042f4 <_lseek_r+0x20>)
 80042e0:	602a      	str	r2, [r5, #0]
 80042e2:	461a      	mov	r2, r3
 80042e4:	f7fd f93b 	bl	800155e <_lseek>
 80042e8:	1c43      	adds	r3, r0, #1
 80042ea:	d102      	bne.n	80042f2 <_lseek_r+0x1e>
 80042ec:	682b      	ldr	r3, [r5, #0]
 80042ee:	b103      	cbz	r3, 80042f2 <_lseek_r+0x1e>
 80042f0:	6023      	str	r3, [r4, #0]
 80042f2:	bd38      	pop	{r3, r4, r5, pc}
 80042f4:	200003ac 	.word	0x200003ac

080042f8 <_read_r>:
 80042f8:	b538      	push	{r3, r4, r5, lr}
 80042fa:	4604      	mov	r4, r0
 80042fc:	4608      	mov	r0, r1
 80042fe:	4611      	mov	r1, r2
 8004300:	2200      	movs	r2, #0
 8004302:	4d05      	ldr	r5, [pc, #20]	@ (8004318 <_read_r+0x20>)
 8004304:	602a      	str	r2, [r5, #0]
 8004306:	461a      	mov	r2, r3
 8004308:	f7fd f8cc 	bl	80014a4 <_read>
 800430c:	1c43      	adds	r3, r0, #1
 800430e:	d102      	bne.n	8004316 <_read_r+0x1e>
 8004310:	682b      	ldr	r3, [r5, #0]
 8004312:	b103      	cbz	r3, 8004316 <_read_r+0x1e>
 8004314:	6023      	str	r3, [r4, #0]
 8004316:	bd38      	pop	{r3, r4, r5, pc}
 8004318:	200003ac 	.word	0x200003ac

0800431c <_write_r>:
 800431c:	b538      	push	{r3, r4, r5, lr}
 800431e:	4604      	mov	r4, r0
 8004320:	4608      	mov	r0, r1
 8004322:	4611      	mov	r1, r2
 8004324:	2200      	movs	r2, #0
 8004326:	4d05      	ldr	r5, [pc, #20]	@ (800433c <_write_r+0x20>)
 8004328:	602a      	str	r2, [r5, #0]
 800432a:	461a      	mov	r2, r3
 800432c:	f7fd f8d7 	bl	80014de <_write>
 8004330:	1c43      	adds	r3, r0, #1
 8004332:	d102      	bne.n	800433a <_write_r+0x1e>
 8004334:	682b      	ldr	r3, [r5, #0]
 8004336:	b103      	cbz	r3, 800433a <_write_r+0x1e>
 8004338:	6023      	str	r3, [r4, #0]
 800433a:	bd38      	pop	{r3, r4, r5, pc}
 800433c:	200003ac 	.word	0x200003ac

08004340 <__errno>:
 8004340:	4b01      	ldr	r3, [pc, #4]	@ (8004348 <__errno+0x8>)
 8004342:	6818      	ldr	r0, [r3, #0]
 8004344:	4770      	bx	lr
 8004346:	bf00      	nop
 8004348:	20000018 	.word	0x20000018

0800434c <__libc_init_array>:
 800434c:	b570      	push	{r4, r5, r6, lr}
 800434e:	2600      	movs	r6, #0
 8004350:	4d0c      	ldr	r5, [pc, #48]	@ (8004384 <__libc_init_array+0x38>)
 8004352:	4c0d      	ldr	r4, [pc, #52]	@ (8004388 <__libc_init_array+0x3c>)
 8004354:	1b64      	subs	r4, r4, r5
 8004356:	10a4      	asrs	r4, r4, #2
 8004358:	42a6      	cmp	r6, r4
 800435a:	d109      	bne.n	8004370 <__libc_init_array+0x24>
 800435c:	f001 fe3a 	bl	8005fd4 <_init>
 8004360:	2600      	movs	r6, #0
 8004362:	4d0a      	ldr	r5, [pc, #40]	@ (800438c <__libc_init_array+0x40>)
 8004364:	4c0a      	ldr	r4, [pc, #40]	@ (8004390 <__libc_init_array+0x44>)
 8004366:	1b64      	subs	r4, r4, r5
 8004368:	10a4      	asrs	r4, r4, #2
 800436a:	42a6      	cmp	r6, r4
 800436c:	d105      	bne.n	800437a <__libc_init_array+0x2e>
 800436e:	bd70      	pop	{r4, r5, r6, pc}
 8004370:	f855 3b04 	ldr.w	r3, [r5], #4
 8004374:	4798      	blx	r3
 8004376:	3601      	adds	r6, #1
 8004378:	e7ee      	b.n	8004358 <__libc_init_array+0xc>
 800437a:	f855 3b04 	ldr.w	r3, [r5], #4
 800437e:	4798      	blx	r3
 8004380:	3601      	adds	r6, #1
 8004382:	e7f2      	b.n	800436a <__libc_init_array+0x1e>
 8004384:	080063cc 	.word	0x080063cc
 8004388:	080063cc 	.word	0x080063cc
 800438c:	080063cc 	.word	0x080063cc
 8004390:	080063d0 	.word	0x080063d0

08004394 <__retarget_lock_init_recursive>:
 8004394:	4770      	bx	lr

08004396 <__retarget_lock_acquire_recursive>:
 8004396:	4770      	bx	lr

08004398 <__retarget_lock_release_recursive>:
 8004398:	4770      	bx	lr

0800439a <memchr>:
 800439a:	4603      	mov	r3, r0
 800439c:	b510      	push	{r4, lr}
 800439e:	b2c9      	uxtb	r1, r1
 80043a0:	4402      	add	r2, r0
 80043a2:	4293      	cmp	r3, r2
 80043a4:	4618      	mov	r0, r3
 80043a6:	d101      	bne.n	80043ac <memchr+0x12>
 80043a8:	2000      	movs	r0, #0
 80043aa:	e003      	b.n	80043b4 <memchr+0x1a>
 80043ac:	7804      	ldrb	r4, [r0, #0]
 80043ae:	3301      	adds	r3, #1
 80043b0:	428c      	cmp	r4, r1
 80043b2:	d1f6      	bne.n	80043a2 <memchr+0x8>
 80043b4:	bd10      	pop	{r4, pc}

080043b6 <quorem>:
 80043b6:	e92d 4ff7 	stmdb	sp!, {r0, r1, r2, r4, r5, r6, r7, r8, r9, sl, fp, lr}
 80043ba:	6903      	ldr	r3, [r0, #16]
 80043bc:	690c      	ldr	r4, [r1, #16]
 80043be:	4607      	mov	r7, r0
 80043c0:	42a3      	cmp	r3, r4
 80043c2:	db7e      	blt.n	80044c2 <quorem+0x10c>
 80043c4:	3c01      	subs	r4, #1
 80043c6:	00a3      	lsls	r3, r4, #2
 80043c8:	f100 0514 	add.w	r5, r0, #20
 80043cc:	f101 0814 	add.w	r8, r1, #20
 80043d0:	9300      	str	r3, [sp, #0]
 80043d2:	eb05 0384 	add.w	r3, r5, r4, lsl #2
 80043d6:	9301      	str	r3, [sp, #4]
 80043d8:	f858 3024 	ldr.w	r3, [r8, r4, lsl #2]
 80043dc:	f855 2024 	ldr.w	r2, [r5, r4, lsl #2]
 80043e0:	3301      	adds	r3, #1
 80043e2:	429a      	cmp	r2, r3
 80043e4:	fbb2 f6f3 	udiv	r6, r2, r3
 80043e8:	eb08 0984 	add.w	r9, r8, r4, lsl #2
 80043ec:	d32e      	bcc.n	800444c <quorem+0x96>
 80043ee:	f04f 0a00 	mov.w	sl, #0
 80043f2:	46c4      	mov	ip, r8
 80043f4:	46ae      	mov	lr, r5
 80043f6:	46d3      	mov	fp, sl
 80043f8:	f85c 3b04 	ldr.w	r3, [ip], #4
 80043fc:	b298      	uxth	r0, r3
 80043fe:	fb06 a000 	mla	r0, r6, r0, sl
 8004402:	0c1b      	lsrs	r3, r3, #16
 8004404:	0c02      	lsrs	r2, r0, #16
 8004406:	fb06 2303 	mla	r3, r6, r3, r2
 800440a:	f8de 2000 	ldr.w	r2, [lr]
 800440e:	b280      	uxth	r0, r0
 8004410:	b292      	uxth	r2, r2
 8004412:	1a12      	subs	r2, r2, r0
 8004414:	445a      	add	r2, fp
 8004416:	f8de 0000 	ldr.w	r0, [lr]
 800441a:	ea4f 4a13 	mov.w	sl, r3, lsr #16
 800441e:	b29b      	uxth	r3, r3
 8004420:	ebc3 4322 	rsb	r3, r3, r2, asr #16
 8004424:	eb03 4310 	add.w	r3, r3, r0, lsr #16
 8004428:	b292      	uxth	r2, r2
 800442a:	ea42 4203 	orr.w	r2, r2, r3, lsl #16
 800442e:	45e1      	cmp	r9, ip
 8004430:	ea4f 4b23 	mov.w	fp, r3, asr #16
 8004434:	f84e 2b04 	str.w	r2, [lr], #4
 8004438:	d2de      	bcs.n	80043f8 <quorem+0x42>
 800443a:	9b00      	ldr	r3, [sp, #0]
 800443c:	58eb      	ldr	r3, [r5, r3]
 800443e:	b92b      	cbnz	r3, 800444c <quorem+0x96>
 8004440:	9b01      	ldr	r3, [sp, #4]
 8004442:	3b04      	subs	r3, #4
 8004444:	429d      	cmp	r5, r3
 8004446:	461a      	mov	r2, r3
 8004448:	d32f      	bcc.n	80044aa <quorem+0xf4>
 800444a:	613c      	str	r4, [r7, #16]
 800444c:	4638      	mov	r0, r7
 800444e:	f001 f97f 	bl	8005750 <__mcmp>
 8004452:	2800      	cmp	r0, #0
 8004454:	db25      	blt.n	80044a2 <quorem+0xec>
 8004456:	4629      	mov	r1, r5
 8004458:	2000      	movs	r0, #0
 800445a:	f858 2b04 	ldr.w	r2, [r8], #4
 800445e:	f8d1 c000 	ldr.w	ip, [r1]
 8004462:	fa1f fe82 	uxth.w	lr, r2
 8004466:	fa1f f38c 	uxth.w	r3, ip
 800446a:	eba3 030e 	sub.w	r3, r3, lr
 800446e:	4403      	add	r3, r0
 8004470:	0c12      	lsrs	r2, r2, #16
 8004472:	ebc2 4223 	rsb	r2, r2, r3, asr #16
 8004476:	eb02 421c 	add.w	r2, r2, ip, lsr #16
 800447a:	b29b      	uxth	r3, r3
 800447c:	ea43 4302 	orr.w	r3, r3, r2, lsl #16
 8004480:	45c1      	cmp	r9, r8
 8004482:	ea4f 4022 	mov.w	r0, r2, asr #16
 8004486:	f841 3b04 	str.w	r3, [r1], #4
 800448a:	d2e6      	bcs.n	800445a <quorem+0xa4>
 800448c:	f855 2024 	ldr.w	r2, [r5, r4, lsl #2]
 8004490:	eb05 0384 	add.w	r3, r5, r4, lsl #2
 8004494:	b922      	cbnz	r2, 80044a0 <quorem+0xea>
 8004496:	3b04      	subs	r3, #4
 8004498:	429d      	cmp	r5, r3
 800449a:	461a      	mov	r2, r3
 800449c:	d30b      	bcc.n	80044b6 <quorem+0x100>
 800449e:	613c      	str	r4, [r7, #16]
 80044a0:	3601      	adds	r6, #1
 80044a2:	4630      	mov	r0, r6
 80044a4:	b003      	add	sp, #12
 80044a6:	e8bd 8ff0 	ldmia.w	sp!, {r4, r5, r6, r7, r8, r9, sl, fp, pc}
 80044aa:	6812      	ldr	r2, [r2, #0]
 80044ac:	3b04      	subs	r3, #4
 80044ae:	2a00      	cmp	r2, #0
 80044b0:	d1cb      	bne.n	800444a <quorem+0x94>
 80044b2:	3c01      	subs	r4, #1
 80044b4:	e7c6      	b.n	8004444 <quorem+0x8e>
 80044b6:	6812      	ldr	r2, [r2, #0]
 80044b8:	3b04      	subs	r3, #4
 80044ba:	2a00      	cmp	r2, #0
 80044bc:	d1ef      	bne.n	800449e <quorem+0xe8>
 80044be:	3c01      	subs	r4, #1
 80044c0:	e7ea      	b.n	8004498 <quorem+0xe2>
 80044c2:	2000      	movs	r0, #0
 80044c4:	e7ee      	b.n	80044a4 <quorem+0xee>
	...

080044c8 <_dtoa_r>:
 80044c8:	e92d 4ff0 	stmdb	sp!, {r4, r5, r6, r7, r8, r9, sl, fp, lr}
 80044cc:	4614      	mov	r4, r2
 80044ce:	461d      	mov	r5, r3
 80044d0:	69c7      	ldr	r7, [r0, #28]
 80044d2:	b097      	sub	sp, #92	@ 0x5c
 80044d4:	4681      	mov	r9, r0
 80044d6:	e9cd 4506 	strd	r4, r5, [sp, #24]
 80044da:	9e23      	ldr	r6, [sp, #140]	@ 0x8c
 80044dc:	b97f      	cbnz	r7, 80044fe <_dtoa_r+0x36>
 80044de:	2010      	movs	r0, #16
 80044e0:	f000 fe0e 	bl	8005100 <malloc>
 80044e4:	4602      	mov	r2, r0
 80044e6:	f8c9 001c 	str.w	r0, [r9, #28]
 80044ea:	b920      	cbnz	r0, 80044f6 <_dtoa_r+0x2e>
 80044ec:	21ef      	movs	r1, #239	@ 0xef
 80044ee:	4bac      	ldr	r3, [pc, #688]	@ (80047a0 <_dtoa_r+0x2d8>)
 80044f0:	48ac      	ldr	r0, [pc, #688]	@ (80047a4 <_dtoa_r+0x2dc>)
 80044f2:	f001 fcbf 	bl	8005e74 <__assert_func>
 80044f6:	e9c0 7701 	strd	r7, r7, [r0, #4]
 80044fa:	6007      	str	r7, [r0, #0]
 80044fc:	60c7      	str	r7, [r0, #12]
 80044fe:	f8d9 301c 	ldr.w	r3, [r9, #28]
 8004502:	6819      	ldr	r1, [r3, #0]
 8004504:	b159      	cbz	r1, 800451e <_dtoa_r+0x56>
 8004506:	685a      	ldr	r2, [r3, #4]
 8004508:	2301      	movs	r3, #1
 800450a:	4093      	lsls	r3, r2
 800450c:	604a      	str	r2, [r1, #4]
 800450e:	608b      	str	r3, [r1, #8]
 8004510:	4648      	mov	r0, r9
 8004512:	f000 feeb 	bl	80052ec <_Bfree>
 8004516:	2200      	movs	r2, #0
 8004518:	f8d9 301c 	ldr.w	r3, [r9, #28]
 800451c:	601a      	str	r2, [r3, #0]
 800451e:	1e2b      	subs	r3, r5, #0
 8004520:	bfaf      	iteee	ge
 8004522:	2300      	movge	r3, #0
 8004524:	2201      	movlt	r2, #1
 8004526:	f023 4300 	biclt.w	r3, r3, #2147483648	@ 0x80000000
 800452a:	9307      	strlt	r3, [sp, #28]
 800452c:	bfa8      	it	ge
 800452e:	6033      	strge	r3, [r6, #0]
 8004530:	f8dd 801c 	ldr.w	r8, [sp, #28]
 8004534:	4b9c      	ldr	r3, [pc, #624]	@ (80047a8 <_dtoa_r+0x2e0>)
 8004536:	bfb8      	it	lt
 8004538:	6032      	strlt	r2, [r6, #0]
 800453a:	ea33 0308 	bics.w	r3, r3, r8
 800453e:	d112      	bne.n	8004566 <_dtoa_r+0x9e>
 8004540:	f242 730f 	movw	r3, #9999	@ 0x270f
 8004544:	9a22      	ldr	r2, [sp, #136]	@ 0x88
 8004546:	6013      	str	r3, [r2, #0]
 8004548:	f3c8 0313 	ubfx	r3, r8, #0, #20
 800454c:	4323      	orrs	r3, r4
 800454e:	f000 855e 	beq.w	800500e <_dtoa_r+0xb46>
 8004552:	9b24      	ldr	r3, [sp, #144]	@ 0x90
 8004554:	f8df a254 	ldr.w	sl, [pc, #596]	@ 80047ac <_dtoa_r+0x2e4>
 8004558:	2b00      	cmp	r3, #0
 800455a:	f000 8560 	beq.w	800501e <_dtoa_r+0xb56>
 800455e:	f10a 0303 	add.w	r3, sl, #3
 8004562:	f000 bd5a 	b.w	800501a <_dtoa_r+0xb52>
 8004566:	e9dd 2306 	ldrd	r2, r3, [sp, #24]
 800456a:	e9cd 230c 	strd	r2, r3, [sp, #48]	@ 0x30
 800456e:	e9dd 010c 	ldrd	r0, r1, [sp, #48]	@ 0x30
 8004572:	2200      	movs	r2, #0
 8004574:	2300      	movs	r3, #0
 8004576:	f7fc fa17 	bl	80009a8 <__aeabi_dcmpeq>
 800457a:	4607      	mov	r7, r0
 800457c:	b158      	cbz	r0, 8004596 <_dtoa_r+0xce>
 800457e:	2301      	movs	r3, #1
 8004580:	9a22      	ldr	r2, [sp, #136]	@ 0x88
 8004582:	6013      	str	r3, [r2, #0]
 8004584:	9b24      	ldr	r3, [sp, #144]	@ 0x90
 8004586:	b113      	cbz	r3, 800458e <_dtoa_r+0xc6>
 8004588:	4b89      	ldr	r3, [pc, #548]	@ (80047b0 <_dtoa_r+0x2e8>)
 800458a:	9a24      	ldr	r2, [sp, #144]	@ 0x90
 800458c:	6013      	str	r3, [r2, #0]
 800458e:	f8df a224 	ldr.w	sl, [pc, #548]	@ 80047b4 <_dtoa_r+0x2ec>
 8004592:	f000 bd44 	b.w	800501e <_dtoa_r+0xb56>
 8004596:	ab14      	add	r3, sp, #80	@ 0x50
 8004598:	9301      	str	r3, [sp, #4]
 800459a:	ab15      	add	r3, sp, #84	@ 0x54
 800459c:	9300      	str	r3, [sp, #0]
 800459e:	4648      	mov	r0, r9
 80045a0:	e9dd 230c 	ldrd	r2, r3, [sp, #48]	@ 0x30
 80045a4:	f001 f984 	bl	80058b0 <__d2b>
 80045a8:	f3c8 560a 	ubfx	r6, r8, #20, #11
 80045ac:	9003      	str	r0, [sp, #12]
 80045ae:	2e00      	cmp	r6, #0
 80045b0:	d078      	beq.n	80046a4 <_dtoa_r+0x1dc>
 80045b2:	e9dd 010c 	ldrd	r0, r1, [sp, #48]	@ 0x30
 80045b6:	9b0d      	ldr	r3, [sp, #52]	@ 0x34
 80045b8:	f2a6 36ff 	subw	r6, r6, #1023	@ 0x3ff
 80045bc:	f3c3 0313 	ubfx	r3, r3, #0, #20
 80045c0:	f043 537f 	orr.w	r3, r3, #1069547520	@ 0x3fc00000
 80045c4:	f443 1340 	orr.w	r3, r3, #3145728	@ 0x300000
 80045c8:	9712      	str	r7, [sp, #72]	@ 0x48
 80045ca:	4619      	mov	r1, r3
 80045cc:	2200      	movs	r2, #0
 80045ce:	4b7a      	ldr	r3, [pc, #488]	@ (80047b8 <_dtoa_r+0x2f0>)
 80045d0:	f7fb fdca 	bl	8000168 <__aeabi_dsub>
 80045d4:	a36c      	add	r3, pc, #432	@ (adr r3, 8004788 <_dtoa_r+0x2c0>)
 80045d6:	e9d3 2300 	ldrd	r2, r3, [r3]
 80045da:	f7fb ff7d 	bl	80004d8 <__aeabi_dmul>
 80045de:	a36c      	add	r3, pc, #432	@ (adr r3, 8004790 <_dtoa_r+0x2c8>)
 80045e0:	e9d3 2300 	ldrd	r2, r3, [r3]
 80045e4:	f7fb fdc2 	bl	800016c <__adddf3>
 80045e8:	4604      	mov	r4, r0
 80045ea:	4630      	mov	r0, r6
 80045ec:	460d      	mov	r5, r1
 80045ee:	f7fb ff09 	bl	8000404 <__aeabi_i2d>
 80045f2:	a369      	add	r3, pc, #420	@ (adr r3, 8004798 <_dtoa_r+0x2d0>)
 80045f4:	e9d3 2300 	ldrd	r2, r3, [r3]
 80045f8:	f7fb ff6e 	bl	80004d8 <__aeabi_dmul>
 80045fc:	4602      	mov	r2, r0
 80045fe:	460b      	mov	r3, r1
 8004600:	4620      	mov	r0, r4
 8004602:	4629      	mov	r1, r5
 8004604:	f7fb fdb2 	bl	800016c <__adddf3>
 8004608:	4604      	mov	r4, r0
 800460a:	460d      	mov	r5, r1
 800460c:	f7fc fa14 	bl	8000a38 <__aeabi_d2iz>
 8004610:	2200      	movs	r2, #0
 8004612:	4607      	mov	r7, r0
 8004614:	2300      	movs	r3, #0
 8004616:	4620      	mov	r0, r4
 8004618:	4629      	mov	r1, r5
 800461a:	f7fc f9cf 	bl	80009bc <__aeabi_dcmplt>
 800461e:	b140      	cbz	r0, 8004632 <_dtoa_r+0x16a>
 8004620:	4638      	mov	r0, r7
 8004622:	f7fb feef 	bl	8000404 <__aeabi_i2d>
 8004626:	4622      	mov	r2, r4
 8004628:	462b      	mov	r3, r5
 800462a:	f7fc f9bd 	bl	80009a8 <__aeabi_dcmpeq>
 800462e:	b900      	cbnz	r0, 8004632 <_dtoa_r+0x16a>
 8004630:	3f01      	subs	r7, #1
 8004632:	2f16      	cmp	r7, #22
 8004634:	d854      	bhi.n	80046e0 <_dtoa_r+0x218>
 8004636:	e9dd 010c 	ldrd	r0, r1, [sp, #48]	@ 0x30
 800463a:	4b60      	ldr	r3, [pc, #384]	@ (80047bc <_dtoa_r+0x2f4>)
 800463c:	eb03 03c7 	add.w	r3, r3, r7, lsl #3
 8004640:	e9d3 2300 	ldrd	r2, r3, [r3]
 8004644:	f7fc f9ba 	bl	80009bc <__aeabi_dcmplt>
 8004648:	2800      	cmp	r0, #0
 800464a:	d04b      	beq.n	80046e4 <_dtoa_r+0x21c>
 800464c:	2300      	movs	r3, #0
 800464e:	3f01      	subs	r7, #1
 8004650:	930f      	str	r3, [sp, #60]	@ 0x3c
 8004652:	9b14      	ldr	r3, [sp, #80]	@ 0x50
 8004654:	1b9b      	subs	r3, r3, r6
 8004656:	1e5a      	subs	r2, r3, #1
 8004658:	bf49      	itett	mi
 800465a:	f1c3 0301 	rsbmi	r3, r3, #1
 800465e:	2300      	movpl	r3, #0
 8004660:	9304      	strmi	r3, [sp, #16]
 8004662:	2300      	movmi	r3, #0
 8004664:	9209      	str	r2, [sp, #36]	@ 0x24
 8004666:	bf54      	ite	pl
 8004668:	9304      	strpl	r3, [sp, #16]
 800466a:	9309      	strmi	r3, [sp, #36]	@ 0x24
 800466c:	2f00      	cmp	r7, #0
 800466e:	db3b      	blt.n	80046e8 <_dtoa_r+0x220>
 8004670:	9b09      	ldr	r3, [sp, #36]	@ 0x24
 8004672:	970e      	str	r7, [sp, #56]	@ 0x38
 8004674:	443b      	add	r3, r7
 8004676:	9309      	str	r3, [sp, #36]	@ 0x24
 8004678:	2300      	movs	r3, #0
 800467a:	930a      	str	r3, [sp, #40]	@ 0x28
 800467c:	9b20      	ldr	r3, [sp, #128]	@ 0x80
 800467e:	2b09      	cmp	r3, #9
 8004680:	d865      	bhi.n	800474e <_dtoa_r+0x286>
 8004682:	2b05      	cmp	r3, #5
 8004684:	bfc4      	itt	gt
 8004686:	3b04      	subgt	r3, #4
 8004688:	9320      	strgt	r3, [sp, #128]	@ 0x80
 800468a:	9b20      	ldr	r3, [sp, #128]	@ 0x80
 800468c:	bfc8      	it	gt
 800468e:	2400      	movgt	r4, #0
 8004690:	f1a3 0302 	sub.w	r3, r3, #2
 8004694:	bfd8      	it	le
 8004696:	2401      	movle	r4, #1
 8004698:	2b03      	cmp	r3, #3
 800469a:	d864      	bhi.n	8004766 <_dtoa_r+0x29e>
 800469c:	e8df f003 	tbb	[pc, r3]
 80046a0:	2c385553 	.word	0x2c385553
 80046a4:	e9dd 6314 	ldrd	r6, r3, [sp, #80]	@ 0x50
 80046a8:	441e      	add	r6, r3
 80046aa:	f206 4332 	addw	r3, r6, #1074	@ 0x432
 80046ae:	2b20      	cmp	r3, #32
 80046b0:	bfc1      	itttt	gt
 80046b2:	f1c3 0340 	rsbgt	r3, r3, #64	@ 0x40
 80046b6:	fa08 f803 	lslgt.w	r8, r8, r3
 80046ba:	f206 4312 	addwgt	r3, r6, #1042	@ 0x412
 80046be:	fa24 f303 	lsrgt.w	r3, r4, r3
 80046c2:	bfd6      	itet	le
 80046c4:	f1c3 0320 	rsble	r3, r3, #32
 80046c8:	ea48 0003 	orrgt.w	r0, r8, r3
 80046cc:	fa04 f003 	lslle.w	r0, r4, r3
 80046d0:	f7fb fe88 	bl	80003e4 <__aeabi_ui2d>
 80046d4:	2201      	movs	r2, #1
 80046d6:	f1a1 73f8 	sub.w	r3, r1, #32505856	@ 0x1f00000
 80046da:	3e01      	subs	r6, #1
 80046dc:	9212      	str	r2, [sp, #72]	@ 0x48
 80046de:	e774      	b.n	80045ca <_dtoa_r+0x102>
 80046e0:	2301      	movs	r3, #1
 80046e2:	e7b5      	b.n	8004650 <_dtoa_r+0x188>
 80046e4:	900f      	str	r0, [sp, #60]	@ 0x3c
 80046e6:	e7b4      	b.n	8004652 <_dtoa_r+0x18a>
 80046e8:	9b04      	ldr	r3, [sp, #16]
 80046ea:	1bdb      	subs	r3, r3, r7
 80046ec:	9304      	str	r3, [sp, #16]
 80046ee:	427b      	negs	r3, r7
 80046f0:	930a      	str	r3, [sp, #40]	@ 0x28
 80046f2:	2300      	movs	r3, #0
 80046f4:	930e      	str	r3, [sp, #56]	@ 0x38
 80046f6:	e7c1      	b.n	800467c <_dtoa_r+0x1b4>
 80046f8:	2301      	movs	r3, #1
 80046fa:	930b      	str	r3, [sp, #44]	@ 0x2c
 80046fc:	9b21      	ldr	r3, [sp, #132]	@ 0x84
 80046fe:	eb07 0b03 	add.w	fp, r7, r3
 8004702:	f10b 0301 	add.w	r3, fp, #1
 8004706:	2b01      	cmp	r3, #1
 8004708:	9308      	str	r3, [sp, #32]
 800470a:	bfb8      	it	lt
 800470c:	2301      	movlt	r3, #1
 800470e:	e006      	b.n	800471e <_dtoa_r+0x256>
 8004710:	2301      	movs	r3, #1
 8004712:	930b      	str	r3, [sp, #44]	@ 0x2c
 8004714:	9b21      	ldr	r3, [sp, #132]	@ 0x84
 8004716:	2b00      	cmp	r3, #0
 8004718:	dd28      	ble.n	800476c <_dtoa_r+0x2a4>
 800471a:	469b      	mov	fp, r3
 800471c:	9308      	str	r3, [sp, #32]
 800471e:	2100      	movs	r1, #0
 8004720:	2204      	movs	r2, #4
 8004722:	f8d9 001c 	ldr.w	r0, [r9, #28]
 8004726:	f102 0514 	add.w	r5, r2, #20
 800472a:	429d      	cmp	r5, r3
 800472c:	d926      	bls.n	800477c <_dtoa_r+0x2b4>
 800472e:	6041      	str	r1, [r0, #4]
 8004730:	4648      	mov	r0, r9
 8004732:	f000 fd9b 	bl	800526c <_Balloc>
 8004736:	4682      	mov	sl, r0
 8004738:	2800      	cmp	r0, #0
 800473a:	d143      	bne.n	80047c4 <_dtoa_r+0x2fc>
 800473c:	4602      	mov	r2, r0
 800473e:	f240 11af 	movw	r1, #431	@ 0x1af
 8004742:	4b1f      	ldr	r3, [pc, #124]	@ (80047c0 <_dtoa_r+0x2f8>)
 8004744:	e6d4      	b.n	80044f0 <_dtoa_r+0x28>
 8004746:	2300      	movs	r3, #0
 8004748:	e7e3      	b.n	8004712 <_dtoa_r+0x24a>
 800474a:	2300      	movs	r3, #0
 800474c:	e7d5      	b.n	80046fa <_dtoa_r+0x232>
 800474e:	2401      	movs	r4, #1
 8004750:	2300      	movs	r3, #0
 8004752:	940b      	str	r4, [sp, #44]	@ 0x2c
 8004754:	9320      	str	r3, [sp, #128]	@ 0x80
 8004756:	f04f 3bff 	mov.w	fp, #4294967295
 800475a:	2200      	movs	r2, #0
 800475c:	2312      	movs	r3, #18
 800475e:	f8cd b020 	str.w	fp, [sp, #32]
 8004762:	9221      	str	r2, [sp, #132]	@ 0x84
 8004764:	e7db      	b.n	800471e <_dtoa_r+0x256>
 8004766:	2301      	movs	r3, #1
 8004768:	930b      	str	r3, [sp, #44]	@ 0x2c
 800476a:	e7f4      	b.n	8004756 <_dtoa_r+0x28e>
 800476c:	f04f 0b01 	mov.w	fp, #1
 8004770:	465b      	mov	r3, fp
 8004772:	f8cd b020 	str.w	fp, [sp, #32]
 8004776:	f8cd b084 	str.w	fp, [sp, #132]	@ 0x84
 800477a:	e7d0      	b.n	800471e <_dtoa_r+0x256>
 800477c:	3101      	adds	r1, #1
 800477e:	0052      	lsls	r2, r2, #1
 8004780:	e7d1      	b.n	8004726 <_dtoa_r+0x25e>
 8004782:	bf00      	nop
 8004784:	f3af 8000 	nop.w
 8004788:	636f4361 	.word	0x636f4361
 800478c:	3fd287a7 	.word	0x3fd287a7
 8004790:	8b60c8b3 	.word	0x8b60c8b3
 8004794:	3fc68a28 	.word	0x3fc68a28
 8004798:	509f79fb 	.word	0x509f79fb
 800479c:	3fd34413 	.word	0x3fd34413
 80047a0:	08006093 	.word	0x08006093
 80047a4:	080060aa 	.word	0x080060aa
 80047a8:	7ff00000 	.word	0x7ff00000
 80047ac:	0800608f 	.word	0x0800608f
 80047b0:	08006063 	.word	0x08006063
 80047b4:	08006062 	.word	0x08006062
 80047b8:	3ff80000 	.word	0x3ff80000
 80047bc:	080061f8 	.word	0x080061f8
 80047c0:	08006102 	.word	0x08006102
 80047c4:	f8d9 301c 	ldr.w	r3, [r9, #28]
 80047c8:	6018      	str	r0, [r3, #0]
 80047ca:	9b08      	ldr	r3, [sp, #32]
 80047cc:	2b0e      	cmp	r3, #14
 80047ce:	f200 80a1 	bhi.w	8004914 <_dtoa_r+0x44c>
 80047d2:	2c00      	cmp	r4, #0
 80047d4:	f000 809e 	beq.w	8004914 <_dtoa_r+0x44c>
 80047d8:	2f00      	cmp	r7, #0
 80047da:	dd33      	ble.n	8004844 <_dtoa_r+0x37c>
 80047dc:	4b9c      	ldr	r3, [pc, #624]	@ (8004a50 <_dtoa_r+0x588>)
 80047de:	f007 020f 	and.w	r2, r7, #15
 80047e2:	eb03 03c2 	add.w	r3, r3, r2, lsl #3
 80047e6:	05f8      	lsls	r0, r7, #23
 80047e8:	e9d3 3400 	ldrd	r3, r4, [r3]
 80047ec:	e9cd 3410 	strd	r3, r4, [sp, #64]	@ 0x40
 80047f0:	ea4f 1427 	mov.w	r4, r7, asr #4
 80047f4:	d516      	bpl.n	8004824 <_dtoa_r+0x35c>
 80047f6:	e9dd 010c 	ldrd	r0, r1, [sp, #48]	@ 0x30
 80047fa:	4b96      	ldr	r3, [pc, #600]	@ (8004a54 <_dtoa_r+0x58c>)
 80047fc:	2603      	movs	r6, #3
 80047fe:	e9d3 2308 	ldrd	r2, r3, [r3, #32]
 8004802:	f7fb ff93 	bl	800072c <__aeabi_ddiv>
 8004806:	e9cd 0106 	strd	r0, r1, [sp, #24]
 800480a:	f004 040f 	and.w	r4, r4, #15
 800480e:	4d91      	ldr	r5, [pc, #580]	@ (8004a54 <_dtoa_r+0x58c>)
 8004810:	b954      	cbnz	r4, 8004828 <_dtoa_r+0x360>
 8004812:	e9dd 2310 	ldrd	r2, r3, [sp, #64]	@ 0x40
 8004816:	e9dd 0106 	ldrd	r0, r1, [sp, #24]
 800481a:	f7fb ff87 	bl	800072c <__aeabi_ddiv>
 800481e:	e9cd 0106 	strd	r0, r1, [sp, #24]
 8004822:	e028      	b.n	8004876 <_dtoa_r+0x3ae>
 8004824:	2602      	movs	r6, #2
 8004826:	e7f2      	b.n	800480e <_dtoa_r+0x346>
 8004828:	07e1      	lsls	r1, r4, #31
 800482a:	d508      	bpl.n	800483e <_dtoa_r+0x376>
 800482c:	e9dd 0110 	ldrd	r0, r1, [sp, #64]	@ 0x40
 8004830:	e9d5 2300 	ldrd	r2, r3, [r5]
 8004834:	f7fb fe50 	bl	80004d8 <__aeabi_dmul>
 8004838:	e9cd 0110 	strd	r0, r1, [sp, #64]	@ 0x40
 800483c:	3601      	adds	r6, #1
 800483e:	1064      	asrs	r4, r4, #1
 8004840:	3508      	adds	r5, #8
 8004842:	e7e5      	b.n	8004810 <_dtoa_r+0x348>
 8004844:	f000 80af 	beq.w	80049a6 <_dtoa_r+0x4de>
 8004848:	e9dd 010c 	ldrd	r0, r1, [sp, #48]	@ 0x30
 800484c:	427c      	negs	r4, r7
 800484e:	4b80      	ldr	r3, [pc, #512]	@ (8004a50 <_dtoa_r+0x588>)
 8004850:	f004 020f 	and.w	r2, r4, #15
 8004854:	eb03 03c2 	add.w	r3, r3, r2, lsl #3
 8004858:	e9d3 2300 	ldrd	r2, r3, [r3]
 800485c:	f7fb fe3c 	bl	80004d8 <__aeabi_dmul>
 8004860:	2602      	movs	r6, #2
 8004862:	2300      	movs	r3, #0
 8004864:	e9cd 0106 	strd	r0, r1, [sp, #24]
 8004868:	4d7a      	ldr	r5, [pc, #488]	@ (8004a54 <_dtoa_r+0x58c>)
 800486a:	1124      	asrs	r4, r4, #4
 800486c:	2c00      	cmp	r4, #0
 800486e:	f040 808f 	bne.w	8004990 <_dtoa_r+0x4c8>
 8004872:	2b00      	cmp	r3, #0
 8004874:	d1d3      	bne.n	800481e <_dtoa_r+0x356>
 8004876:	e9dd 4506 	ldrd	r4, r5, [sp, #24]
 800487a:	9b0f      	ldr	r3, [sp, #60]	@ 0x3c
 800487c:	2b00      	cmp	r3, #0
 800487e:	f000 8094 	beq.w	80049aa <_dtoa_r+0x4e2>
 8004882:	2200      	movs	r2, #0
 8004884:	4620      	mov	r0, r4
 8004886:	4629      	mov	r1, r5
 8004888:	4b73      	ldr	r3, [pc, #460]	@ (8004a58 <_dtoa_r+0x590>)
 800488a:	f7fc f897 	bl	80009bc <__aeabi_dcmplt>
 800488e:	2800      	cmp	r0, #0
 8004890:	f000 808b 	beq.w	80049aa <_dtoa_r+0x4e2>
 8004894:	9b08      	ldr	r3, [sp, #32]
 8004896:	2b00      	cmp	r3, #0
 8004898:	f000 8087 	beq.w	80049aa <_dtoa_r+0x4e2>
 800489c:	f1bb 0f00 	cmp.w	fp, #0
 80048a0:	dd34      	ble.n	800490c <_dtoa_r+0x444>
 80048a2:	4620      	mov	r0, r4
 80048a4:	2200      	movs	r2, #0
 80048a6:	4629      	mov	r1, r5
 80048a8:	4b6c      	ldr	r3, [pc, #432]	@ (8004a5c <_dtoa_r+0x594>)
 80048aa:	f7fb fe15 	bl	80004d8 <__aeabi_dmul>
 80048ae:	465c      	mov	r4, fp
 80048b0:	e9cd 0106 	strd	r0, r1, [sp, #24]
 80048b4:	f107 38ff 	add.w	r8, r7, #4294967295
 80048b8:	3601      	adds	r6, #1
 80048ba:	4630      	mov	r0, r6
 80048bc:	f7fb fda2 	bl	8000404 <__aeabi_i2d>
 80048c0:	e9dd 2306 	ldrd	r2, r3, [sp, #24]
 80048c4:	f7fb fe08 	bl	80004d8 <__aeabi_dmul>
 80048c8:	2200      	movs	r2, #0
 80048ca:	4b65      	ldr	r3, [pc, #404]	@ (8004a60 <_dtoa_r+0x598>)
 80048cc:	f7fb fc4e 	bl	800016c <__adddf3>
 80048d0:	4605      	mov	r5, r0
 80048d2:	f1a1 7650 	sub.w	r6, r1, #54525952	@ 0x3400000
 80048d6:	2c00      	cmp	r4, #0
 80048d8:	d16a      	bne.n	80049b0 <_dtoa_r+0x4e8>
 80048da:	e9dd 0106 	ldrd	r0, r1, [sp, #24]
 80048de:	2200      	movs	r2, #0
 80048e0:	4b60      	ldr	r3, [pc, #384]	@ (8004a64 <_dtoa_r+0x59c>)
 80048e2:	f7fb fc41 	bl	8000168 <__aeabi_dsub>
 80048e6:	4602      	mov	r2, r0
 80048e8:	460b      	mov	r3, r1
 80048ea:	e9cd 2306 	strd	r2, r3, [sp, #24]
 80048ee:	462a      	mov	r2, r5
 80048f0:	4633      	mov	r3, r6
 80048f2:	f7fc f881 	bl	80009f8 <__aeabi_dcmpgt>
 80048f6:	2800      	cmp	r0, #0
 80048f8:	f040 8298 	bne.w	8004e2c <_dtoa_r+0x964>
 80048fc:	e9dd 0106 	ldrd	r0, r1, [sp, #24]
 8004900:	462a      	mov	r2, r5
 8004902:	f106 4300 	add.w	r3, r6, #2147483648	@ 0x80000000
 8004906:	f7fc f859 	bl	80009bc <__aeabi_dcmplt>
 800490a:	bb38      	cbnz	r0, 800495c <_dtoa_r+0x494>
 800490c:	e9dd 340c 	ldrd	r3, r4, [sp, #48]	@ 0x30
 8004910:	e9cd 3406 	strd	r3, r4, [sp, #24]
 8004914:	9b15      	ldr	r3, [sp, #84]	@ 0x54
 8004916:	2b00      	cmp	r3, #0
 8004918:	f2c0 8157 	blt.w	8004bca <_dtoa_r+0x702>
 800491c:	2f0e      	cmp	r7, #14
 800491e:	f300 8154 	bgt.w	8004bca <_dtoa_r+0x702>
 8004922:	4b4b      	ldr	r3, [pc, #300]	@ (8004a50 <_dtoa_r+0x588>)
 8004924:	eb03 03c7 	add.w	r3, r3, r7, lsl #3
 8004928:	e9d3 3400 	ldrd	r3, r4, [r3]
 800492c:	e9cd 3404 	strd	r3, r4, [sp, #16]
 8004930:	9b21      	ldr	r3, [sp, #132]	@ 0x84
 8004932:	2b00      	cmp	r3, #0
 8004934:	f280 80e5 	bge.w	8004b02 <_dtoa_r+0x63a>
 8004938:	9b08      	ldr	r3, [sp, #32]
 800493a:	2b00      	cmp	r3, #0
 800493c:	f300 80e1 	bgt.w	8004b02 <_dtoa_r+0x63a>
 8004940:	d10c      	bne.n	800495c <_dtoa_r+0x494>
 8004942:	e9dd 0104 	ldrd	r0, r1, [sp, #16]
 8004946:	2200      	movs	r2, #0
 8004948:	4b46      	ldr	r3, [pc, #280]	@ (8004a64 <_dtoa_r+0x59c>)
 800494a:	f7fb fdc5 	bl	80004d8 <__aeabi_dmul>
 800494e:	e9dd 2306 	ldrd	r2, r3, [sp, #24]
 8004952:	f7fc f847 	bl	80009e4 <__aeabi_dcmpge>
 8004956:	2800      	cmp	r0, #0
 8004958:	f000 8266 	beq.w	8004e28 <_dtoa_r+0x960>
 800495c:	2400      	movs	r4, #0
 800495e:	4625      	mov	r5, r4
 8004960:	9b21      	ldr	r3, [sp, #132]	@ 0x84
 8004962:	4656      	mov	r6, sl
 8004964:	ea6f 0803 	mvn.w	r8, r3
 8004968:	2700      	movs	r7, #0
 800496a:	4621      	mov	r1, r4
 800496c:	4648      	mov	r0, r9
 800496e:	f000 fcbd 	bl	80052ec <_Bfree>
 8004972:	2d00      	cmp	r5, #0
 8004974:	f000 80bd 	beq.w	8004af2 <_dtoa_r+0x62a>
 8004978:	b12f      	cbz	r7, 8004986 <_dtoa_r+0x4be>
 800497a:	42af      	cmp	r7, r5
 800497c:	d003      	beq.n	8004986 <_dtoa_r+0x4be>
 800497e:	4639      	mov	r1, r7
 8004980:	4648      	mov	r0, r9
 8004982:	f000 fcb3 	bl	80052ec <_Bfree>
 8004986:	4629      	mov	r1, r5
 8004988:	4648      	mov	r0, r9
 800498a:	f000 fcaf 	bl	80052ec <_Bfree>
 800498e:	e0b0      	b.n	8004af2 <_dtoa_r+0x62a>
 8004990:	07e2      	lsls	r2, r4, #31
 8004992:	d505      	bpl.n	80049a0 <_dtoa_r+0x4d8>
 8004994:	e9d5 2300 	ldrd	r2, r3, [r5]
 8004998:	f7fb fd9e 	bl	80004d8 <__aeabi_dmul>
 800499c:	2301      	movs	r3, #1
 800499e:	3601      	adds	r6, #1
 80049a0:	1064      	asrs	r4, r4, #1
 80049a2:	3508      	adds	r5, #8
 80049a4:	e762      	b.n	800486c <_dtoa_r+0x3a4>
 80049a6:	2602      	movs	r6, #2
 80049a8:	e765      	b.n	8004876 <_dtoa_r+0x3ae>
 80049aa:	46b8      	mov	r8, r7
 80049ac:	9c08      	ldr	r4, [sp, #32]
 80049ae:	e784      	b.n	80048ba <_dtoa_r+0x3f2>
 80049b0:	4b27      	ldr	r3, [pc, #156]	@ (8004a50 <_dtoa_r+0x588>)
 80049b2:	990b      	ldr	r1, [sp, #44]	@ 0x2c
 80049b4:	eb03 03c4 	add.w	r3, r3, r4, lsl #3
 80049b8:	e953 2302 	ldrd	r2, r3, [r3, #-8]
 80049bc:	4454      	add	r4, sl
 80049be:	2900      	cmp	r1, #0
 80049c0:	d054      	beq.n	8004a6c <_dtoa_r+0x5a4>
 80049c2:	2000      	movs	r0, #0
 80049c4:	4928      	ldr	r1, [pc, #160]	@ (8004a68 <_dtoa_r+0x5a0>)
 80049c6:	f7fb feb1 	bl	800072c <__aeabi_ddiv>
 80049ca:	4633      	mov	r3, r6
 80049cc:	462a      	mov	r2, r5
 80049ce:	f7fb fbcb 	bl	8000168 <__aeabi_dsub>
 80049d2:	4656      	mov	r6, sl
 80049d4:	e9cd 0110 	strd	r0, r1, [sp, #64]	@ 0x40
 80049d8:	e9dd 0106 	ldrd	r0, r1, [sp, #24]
 80049dc:	f7fc f82c 	bl	8000a38 <__aeabi_d2iz>
 80049e0:	4605      	mov	r5, r0
 80049e2:	f7fb fd0f 	bl	8000404 <__aeabi_i2d>
 80049e6:	4602      	mov	r2, r0
 80049e8:	460b      	mov	r3, r1
 80049ea:	e9dd 0106 	ldrd	r0, r1, [sp, #24]
 80049ee:	f7fb fbbb 	bl	8000168 <__aeabi_dsub>
 80049f2:	4602      	mov	r2, r0
 80049f4:	460b      	mov	r3, r1
 80049f6:	3530      	adds	r5, #48	@ 0x30
 80049f8:	e9cd 2306 	strd	r2, r3, [sp, #24]
 80049fc:	e9dd 2310 	ldrd	r2, r3, [sp, #64]	@ 0x40
 8004a00:	f806 5b01 	strb.w	r5, [r6], #1
 8004a04:	f7fb ffda 	bl	80009bc <__aeabi_dcmplt>
 8004a08:	2800      	cmp	r0, #0
 8004a0a:	d172      	bne.n	8004af2 <_dtoa_r+0x62a>
 8004a0c:	e9dd 2306 	ldrd	r2, r3, [sp, #24]
 8004a10:	2000      	movs	r0, #0
 8004a12:	4911      	ldr	r1, [pc, #68]	@ (8004a58 <_dtoa_r+0x590>)
 8004a14:	f7fb fba8 	bl	8000168 <__aeabi_dsub>
 8004a18:	e9dd 2310 	ldrd	r2, r3, [sp, #64]	@ 0x40
 8004a1c:	f7fb ffce 	bl	80009bc <__aeabi_dcmplt>
 8004a20:	2800      	cmp	r0, #0
 8004a22:	f040 80b4 	bne.w	8004b8e <_dtoa_r+0x6c6>
 8004a26:	42a6      	cmp	r6, r4
 8004a28:	f43f af70 	beq.w	800490c <_dtoa_r+0x444>
 8004a2c:	e9dd 0110 	ldrd	r0, r1, [sp, #64]	@ 0x40
 8004a30:	2200      	movs	r2, #0
 8004a32:	4b0a      	ldr	r3, [pc, #40]	@ (8004a5c <_dtoa_r+0x594>)
 8004a34:	f7fb fd50 	bl	80004d8 <__aeabi_dmul>
 8004a38:	2200      	movs	r2, #0
 8004a3a:	e9cd 0110 	strd	r0, r1, [sp, #64]	@ 0x40
 8004a3e:	e9dd 0106 	ldrd	r0, r1, [sp, #24]
 8004a42:	4b06      	ldr	r3, [pc, #24]	@ (8004a5c <_dtoa_r+0x594>)
 8004a44:	f7fb fd48 	bl	80004d8 <__aeabi_dmul>
 8004a48:	e9cd 0106 	strd	r0, r1, [sp, #24]
 8004a4c:	e7c4      	b.n	80049d8 <_dtoa_r+0x510>
 8004a4e:	bf00      	nop
 8004a50:	080061f8 	.word	0x080061f8
 8004a54:	080061d0 	.word	0x080061d0
 8004a58:	3ff00000 	.word	0x3ff00000
 8004a5c:	40240000 	.word	0x40240000
 8004a60:	401c0000 	.word	0x401c0000
 8004a64:	40140000 	.word	0x40140000
 8004a68:	3fe00000 	.word	0x3fe00000
 8004a6c:	4631      	mov	r1, r6
 8004a6e:	4628      	mov	r0, r5
 8004a70:	f7fb fd32 	bl	80004d8 <__aeabi_dmul>
 8004a74:	4656      	mov	r6, sl
 8004a76:	e9cd 0110 	strd	r0, r1, [sp, #64]	@ 0x40
 8004a7a:	9413      	str	r4, [sp, #76]	@ 0x4c
 8004a7c:	e9dd 0106 	ldrd	r0, r1, [sp, #24]
 8004a80:	f7fb ffda 	bl	8000a38 <__aeabi_d2iz>
 8004a84:	4605      	mov	r5, r0
 8004a86:	f7fb fcbd 	bl	8000404 <__aeabi_i2d>
 8004a8a:	4602      	mov	r2, r0
 8004a8c:	460b      	mov	r3, r1
 8004a8e:	e9dd 0106 	ldrd	r0, r1, [sp, #24]
 8004a92:	f7fb fb69 	bl	8000168 <__aeabi_dsub>
 8004a96:	4602      	mov	r2, r0
 8004a98:	460b      	mov	r3, r1
 8004a9a:	3530      	adds	r5, #48	@ 0x30
 8004a9c:	f806 5b01 	strb.w	r5, [r6], #1
 8004aa0:	42a6      	cmp	r6, r4
 8004aa2:	e9cd 2306 	strd	r2, r3, [sp, #24]
 8004aa6:	f04f 0200 	mov.w	r2, #0
 8004aaa:	d124      	bne.n	8004af6 <_dtoa_r+0x62e>
 8004aac:	e9dd 0110 	ldrd	r0, r1, [sp, #64]	@ 0x40
 8004ab0:	4bae      	ldr	r3, [pc, #696]	@ (8004d6c <_dtoa_r+0x8a4>)
 8004ab2:	f7fb fb5b 	bl	800016c <__adddf3>
 8004ab6:	4602      	mov	r2, r0
 8004ab8:	460b      	mov	r3, r1
 8004aba:	e9dd 0106 	ldrd	r0, r1, [sp, #24]
 8004abe:	f7fb ff9b 	bl	80009f8 <__aeabi_dcmpgt>
 8004ac2:	2800      	cmp	r0, #0
 8004ac4:	d163      	bne.n	8004b8e <_dtoa_r+0x6c6>
 8004ac6:	e9dd 2310 	ldrd	r2, r3, [sp, #64]	@ 0x40
 8004aca:	2000      	movs	r0, #0
 8004acc:	49a7      	ldr	r1, [pc, #668]	@ (8004d6c <_dtoa_r+0x8a4>)
 8004ace:	f7fb fb4b 	bl	8000168 <__aeabi_dsub>
 8004ad2:	4602      	mov	r2, r0
 8004ad4:	460b      	mov	r3, r1
 8004ad6:	e9dd 0106 	ldrd	r0, r1, [sp, #24]
 8004ada:	f7fb ff6f 	bl	80009bc <__aeabi_dcmplt>
 8004ade:	2800      	cmp	r0, #0
 8004ae0:	f43f af14 	beq.w	800490c <_dtoa_r+0x444>
 8004ae4:	9e13      	ldr	r6, [sp, #76]	@ 0x4c
 8004ae6:	1e73      	subs	r3, r6, #1
 8004ae8:	9313      	str	r3, [sp, #76]	@ 0x4c
 8004aea:	f816 3c01 	ldrb.w	r3, [r6, #-1]
 8004aee:	2b30      	cmp	r3, #48	@ 0x30
 8004af0:	d0f8      	beq.n	8004ae4 <_dtoa_r+0x61c>
 8004af2:	4647      	mov	r7, r8
 8004af4:	e03b      	b.n	8004b6e <_dtoa_r+0x6a6>
 8004af6:	4b9e      	ldr	r3, [pc, #632]	@ (8004d70 <_dtoa_r+0x8a8>)
 8004af8:	f7fb fcee 	bl	80004d8 <__aeabi_dmul>
 8004afc:	e9cd 0106 	strd	r0, r1, [sp, #24]
 8004b00:	e7bc      	b.n	8004a7c <_dtoa_r+0x5b4>
 8004b02:	4656      	mov	r6, sl
 8004b04:	e9dd 4506 	ldrd	r4, r5, [sp, #24]
 8004b08:	e9dd 2304 	ldrd	r2, r3, [sp, #16]
 8004b0c:	4620      	mov	r0, r4
 8004b0e:	4629      	mov	r1, r5
 8004b10:	f7fb fe0c 	bl	800072c <__aeabi_ddiv>
 8004b14:	f7fb ff90 	bl	8000a38 <__aeabi_d2iz>
 8004b18:	4680      	mov	r8, r0
 8004b1a:	f7fb fc73 	bl	8000404 <__aeabi_i2d>
 8004b1e:	e9dd 2304 	ldrd	r2, r3, [sp, #16]
 8004b22:	f7fb fcd9 	bl	80004d8 <__aeabi_dmul>
 8004b26:	4602      	mov	r2, r0
 8004b28:	460b      	mov	r3, r1
 8004b2a:	4620      	mov	r0, r4
 8004b2c:	4629      	mov	r1, r5
 8004b2e:	f7fb fb1b 	bl	8000168 <__aeabi_dsub>
 8004b32:	f108 0430 	add.w	r4, r8, #48	@ 0x30
 8004b36:	9d08      	ldr	r5, [sp, #32]
 8004b38:	f806 4b01 	strb.w	r4, [r6], #1
 8004b3c:	eba6 040a 	sub.w	r4, r6, sl
 8004b40:	42a5      	cmp	r5, r4
 8004b42:	4602      	mov	r2, r0
 8004b44:	460b      	mov	r3, r1
 8004b46:	d133      	bne.n	8004bb0 <_dtoa_r+0x6e8>
 8004b48:	f7fb fb10 	bl	800016c <__adddf3>
 8004b4c:	e9dd 2304 	ldrd	r2, r3, [sp, #16]
 8004b50:	4604      	mov	r4, r0
 8004b52:	460d      	mov	r5, r1
 8004b54:	f7fb ff50 	bl	80009f8 <__aeabi_dcmpgt>
 8004b58:	b9c0      	cbnz	r0, 8004b8c <_dtoa_r+0x6c4>
 8004b5a:	e9dd 2304 	ldrd	r2, r3, [sp, #16]
 8004b5e:	4620      	mov	r0, r4
 8004b60:	4629      	mov	r1, r5
 8004b62:	f7fb ff21 	bl	80009a8 <__aeabi_dcmpeq>
 8004b66:	b110      	cbz	r0, 8004b6e <_dtoa_r+0x6a6>
 8004b68:	f018 0f01 	tst.w	r8, #1
 8004b6c:	d10e      	bne.n	8004b8c <_dtoa_r+0x6c4>
 8004b6e:	4648      	mov	r0, r9
 8004b70:	9903      	ldr	r1, [sp, #12]
 8004b72:	f000 fbbb 	bl	80052ec <_Bfree>
 8004b76:	2300      	movs	r3, #0
 8004b78:	7033      	strb	r3, [r6, #0]
 8004b7a:	9b22      	ldr	r3, [sp, #136]	@ 0x88
 8004b7c:	3701      	adds	r7, #1
 8004b7e:	601f      	str	r7, [r3, #0]
 8004b80:	9b24      	ldr	r3, [sp, #144]	@ 0x90
 8004b82:	2b00      	cmp	r3, #0
 8004b84:	f000 824b 	beq.w	800501e <_dtoa_r+0xb56>
 8004b88:	601e      	str	r6, [r3, #0]
 8004b8a:	e248      	b.n	800501e <_dtoa_r+0xb56>
 8004b8c:	46b8      	mov	r8, r7
 8004b8e:	4633      	mov	r3, r6
 8004b90:	461e      	mov	r6, r3
 8004b92:	f813 2d01 	ldrb.w	r2, [r3, #-1]!
 8004b96:	2a39      	cmp	r2, #57	@ 0x39
 8004b98:	d106      	bne.n	8004ba8 <_dtoa_r+0x6e0>
 8004b9a:	459a      	cmp	sl, r3
 8004b9c:	d1f8      	bne.n	8004b90 <_dtoa_r+0x6c8>
 8004b9e:	2230      	movs	r2, #48	@ 0x30
 8004ba0:	f108 0801 	add.w	r8, r8, #1
 8004ba4:	f88a 2000 	strb.w	r2, [sl]
 8004ba8:	781a      	ldrb	r2, [r3, #0]
 8004baa:	3201      	adds	r2, #1
 8004bac:	701a      	strb	r2, [r3, #0]
 8004bae:	e7a0      	b.n	8004af2 <_dtoa_r+0x62a>
 8004bb0:	2200      	movs	r2, #0
 8004bb2:	4b6f      	ldr	r3, [pc, #444]	@ (8004d70 <_dtoa_r+0x8a8>)
 8004bb4:	f7fb fc90 	bl	80004d8 <__aeabi_dmul>
 8004bb8:	2200      	movs	r2, #0
 8004bba:	2300      	movs	r3, #0
 8004bbc:	4604      	mov	r4, r0
 8004bbe:	460d      	mov	r5, r1
 8004bc0:	f7fb fef2 	bl	80009a8 <__aeabi_dcmpeq>
 8004bc4:	2800      	cmp	r0, #0
 8004bc6:	d09f      	beq.n	8004b08 <_dtoa_r+0x640>
 8004bc8:	e7d1      	b.n	8004b6e <_dtoa_r+0x6a6>
 8004bca:	9a0b      	ldr	r2, [sp, #44]	@ 0x2c
 8004bcc:	2a00      	cmp	r2, #0
 8004bce:	f000 80ea 	beq.w	8004da6 <_dtoa_r+0x8de>
 8004bd2:	9a20      	ldr	r2, [sp, #128]	@ 0x80
 8004bd4:	2a01      	cmp	r2, #1
 8004bd6:	f300 80cd 	bgt.w	8004d74 <_dtoa_r+0x8ac>
 8004bda:	9a12      	ldr	r2, [sp, #72]	@ 0x48
 8004bdc:	2a00      	cmp	r2, #0
 8004bde:	f000 80c1 	beq.w	8004d64 <_dtoa_r+0x89c>
 8004be2:	f203 4333 	addw	r3, r3, #1075	@ 0x433
 8004be6:	9c0a      	ldr	r4, [sp, #40]	@ 0x28
 8004be8:	9e04      	ldr	r6, [sp, #16]
 8004bea:	9a04      	ldr	r2, [sp, #16]
 8004bec:	2101      	movs	r1, #1
 8004bee:	441a      	add	r2, r3
 8004bf0:	9204      	str	r2, [sp, #16]
 8004bf2:	9a09      	ldr	r2, [sp, #36]	@ 0x24
 8004bf4:	4648      	mov	r0, r9
 8004bf6:	441a      	add	r2, r3
 8004bf8:	9209      	str	r2, [sp, #36]	@ 0x24
 8004bfa:	f000 fc2b 	bl	8005454 <__i2b>
 8004bfe:	4605      	mov	r5, r0
 8004c00:	b166      	cbz	r6, 8004c1c <_dtoa_r+0x754>
 8004c02:	9b09      	ldr	r3, [sp, #36]	@ 0x24
 8004c04:	2b00      	cmp	r3, #0
 8004c06:	dd09      	ble.n	8004c1c <_dtoa_r+0x754>
 8004c08:	42b3      	cmp	r3, r6
 8004c0a:	bfa8      	it	ge
 8004c0c:	4633      	movge	r3, r6
 8004c0e:	9a04      	ldr	r2, [sp, #16]
 8004c10:	1af6      	subs	r6, r6, r3
 8004c12:	1ad2      	subs	r2, r2, r3
 8004c14:	9204      	str	r2, [sp, #16]
 8004c16:	9a09      	ldr	r2, [sp, #36]	@ 0x24
 8004c18:	1ad3      	subs	r3, r2, r3
 8004c1a:	9309      	str	r3, [sp, #36]	@ 0x24
 8004c1c:	9b0a      	ldr	r3, [sp, #40]	@ 0x28
 8004c1e:	b30b      	cbz	r3, 8004c64 <_dtoa_r+0x79c>
 8004c20:	9b0b      	ldr	r3, [sp, #44]	@ 0x2c
 8004c22:	2b00      	cmp	r3, #0
 8004c24:	f000 80c6 	beq.w	8004db4 <_dtoa_r+0x8ec>
 8004c28:	2c00      	cmp	r4, #0
 8004c2a:	f000 80c0 	beq.w	8004dae <_dtoa_r+0x8e6>
 8004c2e:	4629      	mov	r1, r5
 8004c30:	4622      	mov	r2, r4
 8004c32:	4648      	mov	r0, r9
 8004c34:	f000 fcc6 	bl	80055c4 <__pow5mult>
 8004c38:	9a03      	ldr	r2, [sp, #12]
 8004c3a:	4601      	mov	r1, r0
 8004c3c:	4605      	mov	r5, r0
 8004c3e:	4648      	mov	r0, r9
 8004c40:	f000 fc1e 	bl	8005480 <__multiply>
 8004c44:	9903      	ldr	r1, [sp, #12]
 8004c46:	4680      	mov	r8, r0
 8004c48:	4648      	mov	r0, r9
 8004c4a:	f000 fb4f 	bl	80052ec <_Bfree>
 8004c4e:	9b0a      	ldr	r3, [sp, #40]	@ 0x28
 8004c50:	1b1b      	subs	r3, r3, r4
 8004c52:	930a      	str	r3, [sp, #40]	@ 0x28
 8004c54:	f000 80b1 	beq.w	8004dba <_dtoa_r+0x8f2>
 8004c58:	4641      	mov	r1, r8
 8004c5a:	9a0a      	ldr	r2, [sp, #40]	@ 0x28
 8004c5c:	4648      	mov	r0, r9
 8004c5e:	f000 fcb1 	bl	80055c4 <__pow5mult>
 8004c62:	9003      	str	r0, [sp, #12]
 8004c64:	2101      	movs	r1, #1
 8004c66:	4648      	mov	r0, r9
 8004c68:	f000 fbf4 	bl	8005454 <__i2b>
 8004c6c:	9b0e      	ldr	r3, [sp, #56]	@ 0x38
 8004c6e:	4604      	mov	r4, r0
 8004c70:	2b00      	cmp	r3, #0
 8004c72:	f000 81d8 	beq.w	8005026 <_dtoa_r+0xb5e>
 8004c76:	461a      	mov	r2, r3
 8004c78:	4601      	mov	r1, r0
 8004c7a:	4648      	mov	r0, r9
 8004c7c:	f000 fca2 	bl	80055c4 <__pow5mult>
 8004c80:	9b20      	ldr	r3, [sp, #128]	@ 0x80
 8004c82:	4604      	mov	r4, r0
 8004c84:	2b01      	cmp	r3, #1
 8004c86:	f300 809f 	bgt.w	8004dc8 <_dtoa_r+0x900>
 8004c8a:	9b06      	ldr	r3, [sp, #24]
 8004c8c:	2b00      	cmp	r3, #0
 8004c8e:	f040 8097 	bne.w	8004dc0 <_dtoa_r+0x8f8>
 8004c92:	9b07      	ldr	r3, [sp, #28]
 8004c94:	f3c3 0313 	ubfx	r3, r3, #0, #20
 8004c98:	2b00      	cmp	r3, #0
 8004c9a:	f040 8093 	bne.w	8004dc4 <_dtoa_r+0x8fc>
 8004c9e:	9b07      	ldr	r3, [sp, #28]
 8004ca0:	f023 4300 	bic.w	r3, r3, #2147483648	@ 0x80000000
 8004ca4:	0d1b      	lsrs	r3, r3, #20
 8004ca6:	051b      	lsls	r3, r3, #20
 8004ca8:	b133      	cbz	r3, 8004cb8 <_dtoa_r+0x7f0>
 8004caa:	9b04      	ldr	r3, [sp, #16]
 8004cac:	3301      	adds	r3, #1
 8004cae:	9304      	str	r3, [sp, #16]
 8004cb0:	9b09      	ldr	r3, [sp, #36]	@ 0x24
 8004cb2:	3301      	adds	r3, #1
 8004cb4:	9309      	str	r3, [sp, #36]	@ 0x24
 8004cb6:	2301      	movs	r3, #1
 8004cb8:	930a      	str	r3, [sp, #40]	@ 0x28
 8004cba:	9b0e      	ldr	r3, [sp, #56]	@ 0x38
 8004cbc:	2b00      	cmp	r3, #0
 8004cbe:	f000 81b8 	beq.w	8005032 <_dtoa_r+0xb6a>
 8004cc2:	6923      	ldr	r3, [r4, #16]
 8004cc4:	eb04 0383 	add.w	r3, r4, r3, lsl #2
 8004cc8:	6918      	ldr	r0, [r3, #16]
 8004cca:	f000 fb77 	bl	80053bc <__hi0bits>
 8004cce:	f1c0 0020 	rsb	r0, r0, #32
 8004cd2:	9b09      	ldr	r3, [sp, #36]	@ 0x24
 8004cd4:	4418      	add	r0, r3
 8004cd6:	f010 001f 	ands.w	r0, r0, #31
 8004cda:	f000 8082 	beq.w	8004de2 <_dtoa_r+0x91a>
 8004cde:	f1c0 0320 	rsb	r3, r0, #32
 8004ce2:	2b04      	cmp	r3, #4
 8004ce4:	dd73      	ble.n	8004dce <_dtoa_r+0x906>
 8004ce6:	9b04      	ldr	r3, [sp, #16]
 8004ce8:	f1c0 001c 	rsb	r0, r0, #28
 8004cec:	4403      	add	r3, r0
 8004cee:	9304      	str	r3, [sp, #16]
 8004cf0:	9b09      	ldr	r3, [sp, #36]	@ 0x24
 8004cf2:	4406      	add	r6, r0
 8004cf4:	4403      	add	r3, r0
 8004cf6:	9309      	str	r3, [sp, #36]	@ 0x24
 8004cf8:	9b04      	ldr	r3, [sp, #16]
 8004cfa:	2b00      	cmp	r3, #0
 8004cfc:	dd05      	ble.n	8004d0a <_dtoa_r+0x842>
 8004cfe:	461a      	mov	r2, r3
 8004d00:	4648      	mov	r0, r9
 8004d02:	9903      	ldr	r1, [sp, #12]
 8004d04:	f000 fcb8 	bl	8005678 <__lshift>
 8004d08:	9003      	str	r0, [sp, #12]
 8004d0a:	9b09      	ldr	r3, [sp, #36]	@ 0x24
 8004d0c:	2b00      	cmp	r3, #0
 8004d0e:	dd05      	ble.n	8004d1c <_dtoa_r+0x854>
 8004d10:	4621      	mov	r1, r4
 8004d12:	461a      	mov	r2, r3
 8004d14:	4648      	mov	r0, r9
 8004d16:	f000 fcaf 	bl	8005678 <__lshift>
 8004d1a:	4604      	mov	r4, r0
 8004d1c:	9b0f      	ldr	r3, [sp, #60]	@ 0x3c
 8004d1e:	2b00      	cmp	r3, #0
 8004d20:	d061      	beq.n	8004de6 <_dtoa_r+0x91e>
 8004d22:	4621      	mov	r1, r4
 8004d24:	9803      	ldr	r0, [sp, #12]
 8004d26:	f000 fd13 	bl	8005750 <__mcmp>
 8004d2a:	2800      	cmp	r0, #0
 8004d2c:	da5b      	bge.n	8004de6 <_dtoa_r+0x91e>
 8004d2e:	2300      	movs	r3, #0
 8004d30:	220a      	movs	r2, #10
 8004d32:	4648      	mov	r0, r9
 8004d34:	9903      	ldr	r1, [sp, #12]
 8004d36:	f000 fafb 	bl	8005330 <__multadd>
 8004d3a:	9b0b      	ldr	r3, [sp, #44]	@ 0x2c
 8004d3c:	f107 38ff 	add.w	r8, r7, #4294967295
 8004d40:	9003      	str	r0, [sp, #12]
 8004d42:	2b00      	cmp	r3, #0
 8004d44:	f000 8177 	beq.w	8005036 <_dtoa_r+0xb6e>
 8004d48:	4629      	mov	r1, r5
 8004d4a:	2300      	movs	r3, #0
 8004d4c:	220a      	movs	r2, #10
 8004d4e:	4648      	mov	r0, r9
 8004d50:	f000 faee 	bl	8005330 <__multadd>
 8004d54:	f1bb 0f00 	cmp.w	fp, #0
 8004d58:	4605      	mov	r5, r0
 8004d5a:	dc6f      	bgt.n	8004e3c <_dtoa_r+0x974>
 8004d5c:	9b20      	ldr	r3, [sp, #128]	@ 0x80
 8004d5e:	2b02      	cmp	r3, #2
 8004d60:	dc49      	bgt.n	8004df6 <_dtoa_r+0x92e>
 8004d62:	e06b      	b.n	8004e3c <_dtoa_r+0x974>
 8004d64:	9b14      	ldr	r3, [sp, #80]	@ 0x50
 8004d66:	f1c3 0336 	rsb	r3, r3, #54	@ 0x36
 8004d6a:	e73c      	b.n	8004be6 <_dtoa_r+0x71e>
 8004d6c:	3fe00000 	.word	0x3fe00000
 8004d70:	40240000 	.word	0x40240000
 8004d74:	9b08      	ldr	r3, [sp, #32]
 8004d76:	1e5c      	subs	r4, r3, #1
 8004d78:	9b0a      	ldr	r3, [sp, #40]	@ 0x28
 8004d7a:	42a3      	cmp	r3, r4
 8004d7c:	db09      	blt.n	8004d92 <_dtoa_r+0x8ca>
 8004d7e:	1b1c      	subs	r4, r3, r4
 8004d80:	9b08      	ldr	r3, [sp, #32]
 8004d82:	2b00      	cmp	r3, #0
 8004d84:	f6bf af30 	bge.w	8004be8 <_dtoa_r+0x720>
 8004d88:	9b04      	ldr	r3, [sp, #16]
 8004d8a:	9a08      	ldr	r2, [sp, #32]
 8004d8c:	1a9e      	subs	r6, r3, r2
 8004d8e:	2300      	movs	r3, #0
 8004d90:	e72b      	b.n	8004bea <_dtoa_r+0x722>
 8004d92:	9b0a      	ldr	r3, [sp, #40]	@ 0x28
 8004d94:	9a0e      	ldr	r2, [sp, #56]	@ 0x38
 8004d96:	1ae3      	subs	r3, r4, r3
 8004d98:	441a      	add	r2, r3
 8004d9a:	940a      	str	r4, [sp, #40]	@ 0x28
 8004d9c:	9e04      	ldr	r6, [sp, #16]
 8004d9e:	2400      	movs	r4, #0
 8004da0:	9b08      	ldr	r3, [sp, #32]
 8004da2:	920e      	str	r2, [sp, #56]	@ 0x38
 8004da4:	e721      	b.n	8004bea <_dtoa_r+0x722>
 8004da6:	9c0a      	ldr	r4, [sp, #40]	@ 0x28
 8004da8:	9e04      	ldr	r6, [sp, #16]
 8004daa:	9d0b      	ldr	r5, [sp, #44]	@ 0x2c
 8004dac:	e728      	b.n	8004c00 <_dtoa_r+0x738>
 8004dae:	f8dd 800c 	ldr.w	r8, [sp, #12]
 8004db2:	e751      	b.n	8004c58 <_dtoa_r+0x790>
 8004db4:	9a0a      	ldr	r2, [sp, #40]	@ 0x28
 8004db6:	9903      	ldr	r1, [sp, #12]
 8004db8:	e750      	b.n	8004c5c <_dtoa_r+0x794>
 8004dba:	f8cd 800c 	str.w	r8, [sp, #12]
 8004dbe:	e751      	b.n	8004c64 <_dtoa_r+0x79c>
 8004dc0:	2300      	movs	r3, #0
 8004dc2:	e779      	b.n	8004cb8 <_dtoa_r+0x7f0>
 8004dc4:	9b06      	ldr	r3, [sp, #24]
 8004dc6:	e777      	b.n	8004cb8 <_dtoa_r+0x7f0>
 8004dc8:	2300      	movs	r3, #0
 8004dca:	930a      	str	r3, [sp, #40]	@ 0x28
 8004dcc:	e779      	b.n	8004cc2 <_dtoa_r+0x7fa>
 8004dce:	d093      	beq.n	8004cf8 <_dtoa_r+0x830>
 8004dd0:	9a04      	ldr	r2, [sp, #16]
 8004dd2:	331c      	adds	r3, #28
 8004dd4:	441a      	add	r2, r3
 8004dd6:	9204      	str	r2, [sp, #16]
 8004dd8:	9a09      	ldr	r2, [sp, #36]	@ 0x24
 8004dda:	441e      	add	r6, r3
 8004ddc:	441a      	add	r2, r3
 8004dde:	9209      	str	r2, [sp, #36]	@ 0x24
 8004de0:	e78a      	b.n	8004cf8 <_dtoa_r+0x830>
 8004de2:	4603      	mov	r3, r0
 8004de4:	e7f4      	b.n	8004dd0 <_dtoa_r+0x908>
 8004de6:	9b08      	ldr	r3, [sp, #32]
 8004de8:	46b8      	mov	r8, r7
 8004dea:	2b00      	cmp	r3, #0
 8004dec:	dc20      	bgt.n	8004e30 <_dtoa_r+0x968>
 8004dee:	469b      	mov	fp, r3
 8004df0:	9b20      	ldr	r3, [sp, #128]	@ 0x80
 8004df2:	2b02      	cmp	r3, #2
 8004df4:	dd1e      	ble.n	8004e34 <_dtoa_r+0x96c>
 8004df6:	f1bb 0f00 	cmp.w	fp, #0
 8004dfa:	f47f adb1 	bne.w	8004960 <_dtoa_r+0x498>
 8004dfe:	4621      	mov	r1, r4
 8004e00:	465b      	mov	r3, fp
 8004e02:	2205      	movs	r2, #5
 8004e04:	4648      	mov	r0, r9
 8004e06:	f000 fa93 	bl	8005330 <__multadd>
 8004e0a:	4601      	mov	r1, r0
 8004e0c:	4604      	mov	r4, r0
 8004e0e:	9803      	ldr	r0, [sp, #12]
 8004e10:	f000 fc9e 	bl	8005750 <__mcmp>
 8004e14:	2800      	cmp	r0, #0
 8004e16:	f77f ada3 	ble.w	8004960 <_dtoa_r+0x498>
 8004e1a:	4656      	mov	r6, sl
 8004e1c:	2331      	movs	r3, #49	@ 0x31
 8004e1e:	f108 0801 	add.w	r8, r8, #1
 8004e22:	f806 3b01 	strb.w	r3, [r6], #1
 8004e26:	e59f      	b.n	8004968 <_dtoa_r+0x4a0>
 8004e28:	46b8      	mov	r8, r7
 8004e2a:	9c08      	ldr	r4, [sp, #32]
 8004e2c:	4625      	mov	r5, r4
 8004e2e:	e7f4      	b.n	8004e1a <_dtoa_r+0x952>
 8004e30:	f8dd b020 	ldr.w	fp, [sp, #32]
 8004e34:	9b0b      	ldr	r3, [sp, #44]	@ 0x2c
 8004e36:	2b00      	cmp	r3, #0
 8004e38:	f000 8101 	beq.w	800503e <_dtoa_r+0xb76>
 8004e3c:	2e00      	cmp	r6, #0
 8004e3e:	dd05      	ble.n	8004e4c <_dtoa_r+0x984>
 8004e40:	4629      	mov	r1, r5
 8004e42:	4632      	mov	r2, r6
 8004e44:	4648      	mov	r0, r9
 8004e46:	f000 fc17 	bl	8005678 <__lshift>
 8004e4a:	4605      	mov	r5, r0
 8004e4c:	9b0a      	ldr	r3, [sp, #40]	@ 0x28
 8004e4e:	2b00      	cmp	r3, #0
 8004e50:	d05c      	beq.n	8004f0c <_dtoa_r+0xa44>
 8004e52:	4648      	mov	r0, r9
 8004e54:	6869      	ldr	r1, [r5, #4]
 8004e56:	f000 fa09 	bl	800526c <_Balloc>
 8004e5a:	4606      	mov	r6, r0
 8004e5c:	b928      	cbnz	r0, 8004e6a <_dtoa_r+0x9a2>
 8004e5e:	4602      	mov	r2, r0
 8004e60:	f240 21ef 	movw	r1, #751	@ 0x2ef
 8004e64:	4b80      	ldr	r3, [pc, #512]	@ (8005068 <_dtoa_r+0xba0>)
 8004e66:	f7ff bb43 	b.w	80044f0 <_dtoa_r+0x28>
 8004e6a:	692a      	ldr	r2, [r5, #16]
 8004e6c:	f105 010c 	add.w	r1, r5, #12
 8004e70:	3202      	adds	r2, #2
 8004e72:	0092      	lsls	r2, r2, #2
 8004e74:	300c      	adds	r0, #12
 8004e76:	f000 ffef 	bl	8005e58 <memcpy>
 8004e7a:	2201      	movs	r2, #1
 8004e7c:	4631      	mov	r1, r6
 8004e7e:	4648      	mov	r0, r9
 8004e80:	f000 fbfa 	bl	8005678 <__lshift>
 8004e84:	462f      	mov	r7, r5
 8004e86:	4605      	mov	r5, r0
 8004e88:	f10a 0301 	add.w	r3, sl, #1
 8004e8c:	9304      	str	r3, [sp, #16]
 8004e8e:	eb0a 030b 	add.w	r3, sl, fp
 8004e92:	930a      	str	r3, [sp, #40]	@ 0x28
 8004e94:	9b06      	ldr	r3, [sp, #24]
 8004e96:	f003 0301 	and.w	r3, r3, #1
 8004e9a:	9309      	str	r3, [sp, #36]	@ 0x24
 8004e9c:	9b04      	ldr	r3, [sp, #16]
 8004e9e:	4621      	mov	r1, r4
 8004ea0:	9803      	ldr	r0, [sp, #12]
 8004ea2:	f103 3bff 	add.w	fp, r3, #4294967295
 8004ea6:	f7ff fa86 	bl	80043b6 <quorem>
 8004eaa:	4603      	mov	r3, r0
 8004eac:	4639      	mov	r1, r7
 8004eae:	3330      	adds	r3, #48	@ 0x30
 8004eb0:	9006      	str	r0, [sp, #24]
 8004eb2:	9803      	ldr	r0, [sp, #12]
 8004eb4:	930b      	str	r3, [sp, #44]	@ 0x2c
 8004eb6:	f000 fc4b 	bl	8005750 <__mcmp>
 8004eba:	462a      	mov	r2, r5
 8004ebc:	9008      	str	r0, [sp, #32]
 8004ebe:	4621      	mov	r1, r4
 8004ec0:	4648      	mov	r0, r9
 8004ec2:	f000 fc61 	bl	8005788 <__mdiff>
 8004ec6:	68c2      	ldr	r2, [r0, #12]
 8004ec8:	4606      	mov	r6, r0
 8004eca:	9b0b      	ldr	r3, [sp, #44]	@ 0x2c
 8004ecc:	bb02      	cbnz	r2, 8004f10 <_dtoa_r+0xa48>
 8004ece:	4601      	mov	r1, r0
 8004ed0:	9803      	ldr	r0, [sp, #12]
 8004ed2:	f000 fc3d 	bl	8005750 <__mcmp>
 8004ed6:	4602      	mov	r2, r0
 8004ed8:	9b0b      	ldr	r3, [sp, #44]	@ 0x2c
 8004eda:	4631      	mov	r1, r6
 8004edc:	4648      	mov	r0, r9
 8004ede:	e9cd 320b 	strd	r3, r2, [sp, #44]	@ 0x2c
 8004ee2:	f000 fa03 	bl	80052ec <_Bfree>
 8004ee6:	9b20      	ldr	r3, [sp, #128]	@ 0x80
 8004ee8:	9a0c      	ldr	r2, [sp, #48]	@ 0x30
 8004eea:	9e04      	ldr	r6, [sp, #16]
 8004eec:	ea42 0103 	orr.w	r1, r2, r3
 8004ef0:	9b09      	ldr	r3, [sp, #36]	@ 0x24
 8004ef2:	4319      	orrs	r1, r3
 8004ef4:	9b0b      	ldr	r3, [sp, #44]	@ 0x2c
 8004ef6:	d10d      	bne.n	8004f14 <_dtoa_r+0xa4c>
 8004ef8:	2b39      	cmp	r3, #57	@ 0x39
 8004efa:	d027      	beq.n	8004f4c <_dtoa_r+0xa84>
 8004efc:	9a08      	ldr	r2, [sp, #32]
 8004efe:	2a00      	cmp	r2, #0
 8004f00:	dd01      	ble.n	8004f06 <_dtoa_r+0xa3e>
 8004f02:	9b06      	ldr	r3, [sp, #24]
 8004f04:	3331      	adds	r3, #49	@ 0x31
 8004f06:	f88b 3000 	strb.w	r3, [fp]
 8004f0a:	e52e      	b.n	800496a <_dtoa_r+0x4a2>
 8004f0c:	4628      	mov	r0, r5
 8004f0e:	e7b9      	b.n	8004e84 <_dtoa_r+0x9bc>
 8004f10:	2201      	movs	r2, #1
 8004f12:	e7e2      	b.n	8004eda <_dtoa_r+0xa12>
 8004f14:	9908      	ldr	r1, [sp, #32]
 8004f16:	2900      	cmp	r1, #0
 8004f18:	db04      	blt.n	8004f24 <_dtoa_r+0xa5c>
 8004f1a:	9820      	ldr	r0, [sp, #128]	@ 0x80
 8004f1c:	4301      	orrs	r1, r0
 8004f1e:	9809      	ldr	r0, [sp, #36]	@ 0x24
 8004f20:	4301      	orrs	r1, r0
 8004f22:	d120      	bne.n	8004f66 <_dtoa_r+0xa9e>
 8004f24:	2a00      	cmp	r2, #0
 8004f26:	ddee      	ble.n	8004f06 <_dtoa_r+0xa3e>
 8004f28:	2201      	movs	r2, #1
 8004f2a:	9903      	ldr	r1, [sp, #12]
 8004f2c:	4648      	mov	r0, r9
 8004f2e:	9304      	str	r3, [sp, #16]
 8004f30:	f000 fba2 	bl	8005678 <__lshift>
 8004f34:	4621      	mov	r1, r4
 8004f36:	9003      	str	r0, [sp, #12]
 8004f38:	f000 fc0a 	bl	8005750 <__mcmp>
 8004f3c:	2800      	cmp	r0, #0
 8004f3e:	9b04      	ldr	r3, [sp, #16]
 8004f40:	dc02      	bgt.n	8004f48 <_dtoa_r+0xa80>
 8004f42:	d1e0      	bne.n	8004f06 <_dtoa_r+0xa3e>
 8004f44:	07da      	lsls	r2, r3, #31
 8004f46:	d5de      	bpl.n	8004f06 <_dtoa_r+0xa3e>
 8004f48:	2b39      	cmp	r3, #57	@ 0x39
 8004f4a:	d1da      	bne.n	8004f02 <_dtoa_r+0xa3a>
 8004f4c:	2339      	movs	r3, #57	@ 0x39
 8004f4e:	f88b 3000 	strb.w	r3, [fp]
 8004f52:	4633      	mov	r3, r6
 8004f54:	461e      	mov	r6, r3
 8004f56:	f816 2c01 	ldrb.w	r2, [r6, #-1]
 8004f5a:	3b01      	subs	r3, #1
 8004f5c:	2a39      	cmp	r2, #57	@ 0x39
 8004f5e:	d04e      	beq.n	8004ffe <_dtoa_r+0xb36>
 8004f60:	3201      	adds	r2, #1
 8004f62:	701a      	strb	r2, [r3, #0]
 8004f64:	e501      	b.n	800496a <_dtoa_r+0x4a2>
 8004f66:	2a00      	cmp	r2, #0
 8004f68:	dd03      	ble.n	8004f72 <_dtoa_r+0xaaa>
 8004f6a:	2b39      	cmp	r3, #57	@ 0x39
 8004f6c:	d0ee      	beq.n	8004f4c <_dtoa_r+0xa84>
 8004f6e:	3301      	adds	r3, #1
 8004f70:	e7c9      	b.n	8004f06 <_dtoa_r+0xa3e>
 8004f72:	9a04      	ldr	r2, [sp, #16]
 8004f74:	990a      	ldr	r1, [sp, #40]	@ 0x28
 8004f76:	f802 3c01 	strb.w	r3, [r2, #-1]
 8004f7a:	428a      	cmp	r2, r1
 8004f7c:	d028      	beq.n	8004fd0 <_dtoa_r+0xb08>
 8004f7e:	2300      	movs	r3, #0
 8004f80:	220a      	movs	r2, #10
 8004f82:	9903      	ldr	r1, [sp, #12]
 8004f84:	4648      	mov	r0, r9
 8004f86:	f000 f9d3 	bl	8005330 <__multadd>
 8004f8a:	42af      	cmp	r7, r5
 8004f8c:	9003      	str	r0, [sp, #12]
 8004f8e:	f04f 0300 	mov.w	r3, #0
 8004f92:	f04f 020a 	mov.w	r2, #10
 8004f96:	4639      	mov	r1, r7
 8004f98:	4648      	mov	r0, r9
 8004f9a:	d107      	bne.n	8004fac <_dtoa_r+0xae4>
 8004f9c:	f000 f9c8 	bl	8005330 <__multadd>
 8004fa0:	4607      	mov	r7, r0
 8004fa2:	4605      	mov	r5, r0
 8004fa4:	9b04      	ldr	r3, [sp, #16]
 8004fa6:	3301      	adds	r3, #1
 8004fa8:	9304      	str	r3, [sp, #16]
 8004faa:	e777      	b.n	8004e9c <_dtoa_r+0x9d4>
 8004fac:	f000 f9c0 	bl	8005330 <__multadd>
 8004fb0:	4629      	mov	r1, r5
 8004fb2:	4607      	mov	r7, r0
 8004fb4:	2300      	movs	r3, #0
 8004fb6:	220a      	movs	r2, #10
 8004fb8:	4648      	mov	r0, r9
 8004fba:	f000 f9b9 	bl	8005330 <__multadd>
 8004fbe:	4605      	mov	r5, r0
 8004fc0:	e7f0      	b.n	8004fa4 <_dtoa_r+0xadc>
 8004fc2:	f1bb 0f00 	cmp.w	fp, #0
 8004fc6:	bfcc      	ite	gt
 8004fc8:	465e      	movgt	r6, fp
 8004fca:	2601      	movle	r6, #1
 8004fcc:	2700      	movs	r7, #0
 8004fce:	4456      	add	r6, sl
 8004fd0:	2201      	movs	r2, #1
 8004fd2:	9903      	ldr	r1, [sp, #12]
 8004fd4:	4648      	mov	r0, r9
 8004fd6:	9304      	str	r3, [sp, #16]
 8004fd8:	f000 fb4e 	bl	8005678 <__lshift>
 8004fdc:	4621      	mov	r1, r4
 8004fde:	9003      	str	r0, [sp, #12]
 8004fe0:	f000 fbb6 	bl	8005750 <__mcmp>
 8004fe4:	2800      	cmp	r0, #0
 8004fe6:	dcb4      	bgt.n	8004f52 <_dtoa_r+0xa8a>
 8004fe8:	d102      	bne.n	8004ff0 <_dtoa_r+0xb28>
 8004fea:	9b04      	ldr	r3, [sp, #16]
 8004fec:	07db      	lsls	r3, r3, #31
 8004fee:	d4b0      	bmi.n	8004f52 <_dtoa_r+0xa8a>
 8004ff0:	4633      	mov	r3, r6
 8004ff2:	461e      	mov	r6, r3
 8004ff4:	f813 2d01 	ldrb.w	r2, [r3, #-1]!
 8004ff8:	2a30      	cmp	r2, #48	@ 0x30
 8004ffa:	d0fa      	beq.n	8004ff2 <_dtoa_r+0xb2a>
 8004ffc:	e4b5      	b.n	800496a <_dtoa_r+0x4a2>
 8004ffe:	459a      	cmp	sl, r3
 8005000:	d1a8      	bne.n	8004f54 <_dtoa_r+0xa8c>
 8005002:	2331      	movs	r3, #49	@ 0x31
 8005004:	f108 0801 	add.w	r8, r8, #1
 8005008:	f88a 3000 	strb.w	r3, [sl]
 800500c:	e4ad      	b.n	800496a <_dtoa_r+0x4a2>
 800500e:	9b24      	ldr	r3, [sp, #144]	@ 0x90
 8005010:	f8df a058 	ldr.w	sl, [pc, #88]	@ 800506c <_dtoa_r+0xba4>
 8005014:	b11b      	cbz	r3, 800501e <_dtoa_r+0xb56>
 8005016:	f10a 0308 	add.w	r3, sl, #8
 800501a:	9a24      	ldr	r2, [sp, #144]	@ 0x90
 800501c:	6013      	str	r3, [r2, #0]
 800501e:	4650      	mov	r0, sl
 8005020:	b017      	add	sp, #92	@ 0x5c
 8005022:	e8bd 8ff0 	ldmia.w	sp!, {r4, r5, r6, r7, r8, r9, sl, fp, pc}
 8005026:	9b20      	ldr	r3, [sp, #128]	@ 0x80
 8005028:	2b01      	cmp	r3, #1
 800502a:	f77f ae2e 	ble.w	8004c8a <_dtoa_r+0x7c2>
 800502e:	9b0e      	ldr	r3, [sp, #56]	@ 0x38
 8005030:	930a      	str	r3, [sp, #40]	@ 0x28
 8005032:	2001      	movs	r0, #1
 8005034:	e64d      	b.n	8004cd2 <_dtoa_r+0x80a>
 8005036:	f1bb 0f00 	cmp.w	fp, #0
 800503a:	f77f aed9 	ble.w	8004df0 <_dtoa_r+0x928>
 800503e:	4656      	mov	r6, sl
 8005040:	4621      	mov	r1, r4
 8005042:	9803      	ldr	r0, [sp, #12]
 8005044:	f7ff f9b7 	bl	80043b6 <quorem>
 8005048:	f100 0330 	add.w	r3, r0, #48	@ 0x30
 800504c:	f806 3b01 	strb.w	r3, [r6], #1
 8005050:	eba6 020a 	sub.w	r2, r6, sl
 8005054:	4593      	cmp	fp, r2
 8005056:	ddb4      	ble.n	8004fc2 <_dtoa_r+0xafa>
 8005058:	2300      	movs	r3, #0
 800505a:	220a      	movs	r2, #10
 800505c:	4648      	mov	r0, r9
 800505e:	9903      	ldr	r1, [sp, #12]
 8005060:	f000 f966 	bl	8005330 <__multadd>
 8005064:	9003      	str	r0, [sp, #12]
 8005066:	e7eb      	b.n	8005040 <_dtoa_r+0xb78>
 8005068:	08006102 	.word	0x08006102
 800506c:	08006086 	.word	0x08006086

08005070 <_free_r>:
 8005070:	b538      	push	{r3, r4, r5, lr}
 8005072:	4605      	mov	r5, r0
 8005074:	2900      	cmp	r1, #0
 8005076:	d040      	beq.n	80050fa <_free_r+0x8a>
 8005078:	f851 3c04 	ldr.w	r3, [r1, #-4]
 800507c:	1f0c      	subs	r4, r1, #4
 800507e:	2b00      	cmp	r3, #0
 8005080:	bfb8      	it	lt
 8005082:	18e4      	addlt	r4, r4, r3
 8005084:	f000 f8e6 	bl	8005254 <__malloc_lock>
 8005088:	4a1c      	ldr	r2, [pc, #112]	@ (80050fc <_free_r+0x8c>)
 800508a:	6813      	ldr	r3, [r2, #0]
 800508c:	b933      	cbnz	r3, 800509c <_free_r+0x2c>
 800508e:	6063      	str	r3, [r4, #4]
 8005090:	6014      	str	r4, [r2, #0]
 8005092:	4628      	mov	r0, r5
 8005094:	e8bd 4038 	ldmia.w	sp!, {r3, r4, r5, lr}
 8005098:	f000 b8e2 	b.w	8005260 <__malloc_unlock>
 800509c:	42a3      	cmp	r3, r4
 800509e:	d908      	bls.n	80050b2 <_free_r+0x42>
 80050a0:	6820      	ldr	r0, [r4, #0]
 80050a2:	1821      	adds	r1, r4, r0
 80050a4:	428b      	cmp	r3, r1
 80050a6:	bf01      	itttt	eq
 80050a8:	6819      	ldreq	r1, [r3, #0]
 80050aa:	685b      	ldreq	r3, [r3, #4]
 80050ac:	1809      	addeq	r1, r1, r0
 80050ae:	6021      	streq	r1, [r4, #0]
 80050b0:	e7ed      	b.n	800508e <_free_r+0x1e>
 80050b2:	461a      	mov	r2, r3
 80050b4:	685b      	ldr	r3, [r3, #4]
 80050b6:	b10b      	cbz	r3, 80050bc <_free_r+0x4c>
 80050b8:	42a3      	cmp	r3, r4
 80050ba:	d9fa      	bls.n	80050b2 <_free_r+0x42>
 80050bc:	6811      	ldr	r1, [r2, #0]
 80050be:	1850      	adds	r0, r2, r1
 80050c0:	42a0      	cmp	r0, r4
 80050c2:	d10b      	bne.n	80050dc <_free_r+0x6c>
 80050c4:	6820      	ldr	r0, [r4, #0]
 80050c6:	4401      	add	r1, r0
 80050c8:	1850      	adds	r0, r2, r1
 80050ca:	4283      	cmp	r3, r0
 80050cc:	6011      	str	r1, [r2, #0]
 80050ce:	d1e0      	bne.n	8005092 <_free_r+0x22>
 80050d0:	6818      	ldr	r0, [r3, #0]
 80050d2:	685b      	ldr	r3, [r3, #4]
 80050d4:	4408      	add	r0, r1
 80050d6:	6010      	str	r0, [r2, #0]
 80050d8:	6053      	str	r3, [r2, #4]
 80050da:	e7da      	b.n	8005092 <_free_r+0x22>
 80050dc:	d902      	bls.n	80050e4 <_free_r+0x74>
 80050de:	230c      	movs	r3, #12
 80050e0:	602b      	str	r3, [r5, #0]
 80050e2:	e7d6      	b.n	8005092 <_free_r+0x22>
 80050e4:	6820      	ldr	r0, [r4, #0]
 80050e6:	1821      	adds	r1, r4, r0
 80050e8:	428b      	cmp	r3, r1
 80050ea:	bf01      	itttt	eq
 80050ec:	6819      	ldreq	r1, [r3, #0]
 80050ee:	685b      	ldreq	r3, [r3, #4]
 80050f0:	1809      	addeq	r1, r1, r0
 80050f2:	6021      	streq	r1, [r4, #0]
 80050f4:	6063      	str	r3, [r4, #4]
 80050f6:	6054      	str	r4, [r2, #4]
 80050f8:	e7cb      	b.n	8005092 <_free_r+0x22>
 80050fa:	bd38      	pop	{r3, r4, r5, pc}
 80050fc:	200003b8 	.word	0x200003b8

08005100 <malloc>:
 8005100:	4b02      	ldr	r3, [pc, #8]	@ (800510c <malloc+0xc>)
 8005102:	4601      	mov	r1, r0
 8005104:	6818      	ldr	r0, [r3, #0]
 8005106:	f000 b825 	b.w	8005154 <_malloc_r>
 800510a:	bf00      	nop
 800510c:	20000018 	.word	0x20000018

08005110 <sbrk_aligned>:
 8005110:	b570      	push	{r4, r5, r6, lr}
 8005112:	4e0f      	ldr	r6, [pc, #60]	@ (8005150 <sbrk_aligned+0x40>)
 8005114:	460c      	mov	r4, r1
 8005116:	6831      	ldr	r1, [r6, #0]
 8005118:	4605      	mov	r5, r0
 800511a:	b911      	cbnz	r1, 8005122 <sbrk_aligned+0x12>
 800511c:	f000 fe8c 	bl	8005e38 <_sbrk_r>
 8005120:	6030      	str	r0, [r6, #0]
 8005122:	4621      	mov	r1, r4
 8005124:	4628      	mov	r0, r5
 8005126:	f000 fe87 	bl	8005e38 <_sbrk_r>
 800512a:	1c43      	adds	r3, r0, #1
 800512c:	d103      	bne.n	8005136 <sbrk_aligned+0x26>
 800512e:	f04f 34ff 	mov.w	r4, #4294967295
 8005132:	4620      	mov	r0, r4
 8005134:	bd70      	pop	{r4, r5, r6, pc}
 8005136:	1cc4      	adds	r4, r0, #3
 8005138:	f024 0403 	bic.w	r4, r4, #3
 800513c:	42a0      	cmp	r0, r4
 800513e:	d0f8      	beq.n	8005132 <sbrk_aligned+0x22>
 8005140:	1a21      	subs	r1, r4, r0
 8005142:	4628      	mov	r0, r5
 8005144:	f000 fe78 	bl	8005e38 <_sbrk_r>
 8005148:	3001      	adds	r0, #1
 800514a:	d1f2      	bne.n	8005132 <sbrk_aligned+0x22>
 800514c:	e7ef      	b.n	800512e <sbrk_aligned+0x1e>
 800514e:	bf00      	nop
 8005150:	200003b4 	.word	0x200003b4

08005154 <_malloc_r>:
 8005154:	e92d 43f8 	stmdb	sp!, {r3, r4, r5, r6, r7, r8, r9, lr}
 8005158:	1ccd      	adds	r5, r1, #3
 800515a:	f025 0503 	bic.w	r5, r5, #3
 800515e:	3508      	adds	r5, #8
 8005160:	2d0c      	cmp	r5, #12
 8005162:	bf38      	it	cc
 8005164:	250c      	movcc	r5, #12
 8005166:	2d00      	cmp	r5, #0
 8005168:	4606      	mov	r6, r0
 800516a:	db01      	blt.n	8005170 <_malloc_r+0x1c>
 800516c:	42a9      	cmp	r1, r5
 800516e:	d904      	bls.n	800517a <_malloc_r+0x26>
 8005170:	230c      	movs	r3, #12
 8005172:	6033      	str	r3, [r6, #0]
 8005174:	2000      	movs	r0, #0
 8005176:	e8bd 83f8 	ldmia.w	sp!, {r3, r4, r5, r6, r7, r8, r9, pc}
 800517a:	f8df 80d4 	ldr.w	r8, [pc, #212]	@ 8005250 <_malloc_r+0xfc>
 800517e:	f000 f869 	bl	8005254 <__malloc_lock>
 8005182:	f8d8 3000 	ldr.w	r3, [r8]
 8005186:	461c      	mov	r4, r3
 8005188:	bb44      	cbnz	r4, 80051dc <_malloc_r+0x88>
 800518a:	4629      	mov	r1, r5
 800518c:	4630      	mov	r0, r6
 800518e:	f7ff ffbf 	bl	8005110 <sbrk_aligned>
 8005192:	1c43      	adds	r3, r0, #1
 8005194:	4604      	mov	r4, r0
 8005196:	d158      	bne.n	800524a <_malloc_r+0xf6>
 8005198:	f8d8 4000 	ldr.w	r4, [r8]
 800519c:	4627      	mov	r7, r4
 800519e:	2f00      	cmp	r7, #0
 80051a0:	d143      	bne.n	800522a <_malloc_r+0xd6>
 80051a2:	2c00      	cmp	r4, #0
 80051a4:	d04b      	beq.n	800523e <_malloc_r+0xea>
 80051a6:	6823      	ldr	r3, [r4, #0]
 80051a8:	4639      	mov	r1, r7
 80051aa:	4630      	mov	r0, r6
 80051ac:	eb04 0903 	add.w	r9, r4, r3
 80051b0:	f000 fe42 	bl	8005e38 <_sbrk_r>
 80051b4:	4581      	cmp	r9, r0
 80051b6:	d142      	bne.n	800523e <_malloc_r+0xea>
 80051b8:	6821      	ldr	r1, [r4, #0]
 80051ba:	4630      	mov	r0, r6
 80051bc:	1a6d      	subs	r5, r5, r1
 80051be:	4629      	mov	r1, r5
 80051c0:	f7ff ffa6 	bl	8005110 <sbrk_aligned>
 80051c4:	3001      	adds	r0, #1
 80051c6:	d03a      	beq.n	800523e <_malloc_r+0xea>
 80051c8:	6823      	ldr	r3, [r4, #0]
 80051ca:	442b      	add	r3, r5
 80051cc:	6023      	str	r3, [r4, #0]
 80051ce:	f8d8 3000 	ldr.w	r3, [r8]
 80051d2:	685a      	ldr	r2, [r3, #4]
 80051d4:	bb62      	cbnz	r2, 8005230 <_malloc_r+0xdc>
 80051d6:	f8c8 7000 	str.w	r7, [r8]
 80051da:	e00f      	b.n	80051fc <_malloc_r+0xa8>
 80051dc:	6822      	ldr	r2, [r4, #0]
 80051de:	1b52      	subs	r2, r2, r5
 80051e0:	d420      	bmi.n	8005224 <_malloc_r+0xd0>
 80051e2:	2a0b      	cmp	r2, #11
 80051e4:	d917      	bls.n	8005216 <_malloc_r+0xc2>
 80051e6:	1961      	adds	r1, r4, r5
 80051e8:	42a3      	cmp	r3, r4
 80051ea:	6025      	str	r5, [r4, #0]
 80051ec:	bf18      	it	ne
 80051ee:	6059      	strne	r1, [r3, #4]
 80051f0:	6863      	ldr	r3, [r4, #4]
 80051f2:	bf08      	it	eq
 80051f4:	f8c8 1000 	streq.w	r1, [r8]
 80051f8:	5162      	str	r2, [r4, r5]
 80051fa:	604b      	str	r3, [r1, #4]
 80051fc:	4630      	mov	r0, r6
 80051fe:	f000 f82f 	bl	8005260 <__malloc_unlock>
 8005202:	f104 000b 	add.w	r0, r4, #11
 8005206:	1d23      	adds	r3, r4, #4
 8005208:	f020 0007 	bic.w	r0, r0, #7
 800520c:	1ac2      	subs	r2, r0, r3
 800520e:	bf1c      	itt	ne
 8005210:	1a1b      	subne	r3, r3, r0
 8005212:	50a3      	strne	r3, [r4, r2]
 8005214:	e7af      	b.n	8005176 <_malloc_r+0x22>
 8005216:	6862      	ldr	r2, [r4, #4]
 8005218:	42a3      	cmp	r3, r4
 800521a:	bf0c      	ite	eq
 800521c:	f8c8 2000 	streq.w	r2, [r8]
 8005220:	605a      	strne	r2, [r3, #4]
 8005222:	e7eb      	b.n	80051fc <_malloc_r+0xa8>
 8005224:	4623      	mov	r3, r4
 8005226:	6864      	ldr	r4, [r4, #4]
 8005228:	e7ae      	b.n	8005188 <_malloc_r+0x34>
 800522a:	463c      	mov	r4, r7
 800522c:	687f      	ldr	r7, [r7, #4]
 800522e:	e7b6      	b.n	800519e <_malloc_r+0x4a>
 8005230:	461a      	mov	r2, r3
 8005232:	685b      	ldr	r3, [r3, #4]
 8005234:	42a3      	cmp	r3, r4
 8005236:	d1fb      	bne.n	8005230 <_malloc_r+0xdc>
 8005238:	2300      	movs	r3, #0
 800523a:	6053      	str	r3, [r2, #4]
 800523c:	e7de      	b.n	80051fc <_malloc_r+0xa8>
 800523e:	230c      	movs	r3, #12
 8005240:	4630      	mov	r0, r6
 8005242:	6033      	str	r3, [r6, #0]
 8005244:	f000 f80c 	bl	8005260 <__malloc_unlock>
 8005248:	e794      	b.n	8005174 <_malloc_r+0x20>
 800524a:	6005      	str	r5, [r0, #0]
 800524c:	e7d6      	b.n	80051fc <_malloc_r+0xa8>
 800524e:	bf00      	nop
 8005250:	200003b8 	.word	0x200003b8

08005254 <__malloc_lock>:
 8005254:	4801      	ldr	r0, [pc, #4]	@ (800525c <__malloc_lock+0x8>)
 8005256:	f7ff b89e 	b.w	8004396 <__retarget_lock_acquire_recursive>
 800525a:	bf00      	nop
 800525c:	200003b0 	.word	0x200003b0

08005260 <__malloc_unlock>:
 8005260:	4801      	ldr	r0, [pc, #4]	@ (8005268 <__malloc_unlock+0x8>)
 8005262:	f7ff b899 	b.w	8004398 <__retarget_lock_release_recursive>
 8005266:	bf00      	nop
 8005268:	200003b0 	.word	0x200003b0

0800526c <_Balloc>:
 800526c:	b570      	push	{r4, r5, r6, lr}
 800526e:	69c6      	ldr	r6, [r0, #28]
 8005270:	4604      	mov	r4, r0
 8005272:	460d      	mov	r5, r1
 8005274:	b976      	cbnz	r6, 8005294 <_Balloc+0x28>
 8005276:	2010      	movs	r0, #16
 8005278:	f7ff ff42 	bl	8005100 <malloc>
 800527c:	4602      	mov	r2, r0
 800527e:	61e0      	str	r0, [r4, #28]
 8005280:	b920      	cbnz	r0, 800528c <_Balloc+0x20>
 8005282:	216b      	movs	r1, #107	@ 0x6b
 8005284:	4b17      	ldr	r3, [pc, #92]	@ (80052e4 <_Balloc+0x78>)
 8005286:	4818      	ldr	r0, [pc, #96]	@ (80052e8 <_Balloc+0x7c>)
 8005288:	f000 fdf4 	bl	8005e74 <__assert_func>
 800528c:	e9c0 6601 	strd	r6, r6, [r0, #4]
 8005290:	6006      	str	r6, [r0, #0]
 8005292:	60c6      	str	r6, [r0, #12]
 8005294:	69e6      	ldr	r6, [r4, #28]
 8005296:	68f3      	ldr	r3, [r6, #12]
 8005298:	b183      	cbz	r3, 80052bc <_Balloc+0x50>
 800529a:	69e3      	ldr	r3, [r4, #28]
 800529c:	68db      	ldr	r3, [r3, #12]
 800529e:	f853 0025 	ldr.w	r0, [r3, r5, lsl #2]
 80052a2:	b9b8      	cbnz	r0, 80052d4 <_Balloc+0x68>
 80052a4:	2101      	movs	r1, #1
 80052a6:	fa01 f605 	lsl.w	r6, r1, r5
 80052aa:	1d72      	adds	r2, r6, #5
 80052ac:	4620      	mov	r0, r4
 80052ae:	0092      	lsls	r2, r2, #2
 80052b0:	f000 fdfe 	bl	8005eb0 <_calloc_r>
 80052b4:	b160      	cbz	r0, 80052d0 <_Balloc+0x64>
 80052b6:	e9c0 5601 	strd	r5, r6, [r0, #4]
 80052ba:	e00e      	b.n	80052da <_Balloc+0x6e>
 80052bc:	2221      	movs	r2, #33	@ 0x21
 80052be:	2104      	movs	r1, #4
 80052c0:	4620      	mov	r0, r4
 80052c2:	f000 fdf5 	bl	8005eb0 <_calloc_r>
 80052c6:	69e3      	ldr	r3, [r4, #28]
 80052c8:	60f0      	str	r0, [r6, #12]
 80052ca:	68db      	ldr	r3, [r3, #12]
 80052cc:	2b00      	cmp	r3, #0
 80052ce:	d1e4      	bne.n	800529a <_Balloc+0x2e>
 80052d0:	2000      	movs	r0, #0
 80052d2:	bd70      	pop	{r4, r5, r6, pc}
 80052d4:	6802      	ldr	r2, [r0, #0]
 80052d6:	f843 2025 	str.w	r2, [r3, r5, lsl #2]
 80052da:	2300      	movs	r3, #0
 80052dc:	e9c0 3303 	strd	r3, r3, [r0, #12]
 80052e0:	e7f7      	b.n	80052d2 <_Balloc+0x66>
 80052e2:	bf00      	nop
 80052e4:	08006093 	.word	0x08006093
 80052e8:	08006113 	.word	0x08006113

080052ec <_Bfree>:
 80052ec:	b570      	push	{r4, r5, r6, lr}
 80052ee:	69c6      	ldr	r6, [r0, #28]
 80052f0:	4605      	mov	r5, r0
 80052f2:	460c      	mov	r4, r1
 80052f4:	b976      	cbnz	r6, 8005314 <_Bfree+0x28>
 80052f6:	2010      	movs	r0, #16
 80052f8:	f7ff ff02 	bl	8005100 <malloc>
 80052fc:	4602      	mov	r2, r0
 80052fe:	61e8      	str	r0, [r5, #28]
 8005300:	b920      	cbnz	r0, 800530c <_Bfree+0x20>
 8005302:	218f      	movs	r1, #143	@ 0x8f
 8005304:	4b08      	ldr	r3, [pc, #32]	@ (8005328 <_Bfree+0x3c>)
 8005306:	4809      	ldr	r0, [pc, #36]	@ (800532c <_Bfree+0x40>)
 8005308:	f000 fdb4 	bl	8005e74 <__assert_func>
 800530c:	e9c0 6601 	strd	r6, r6, [r0, #4]
 8005310:	6006      	str	r6, [r0, #0]
 8005312:	60c6      	str	r6, [r0, #12]
 8005314:	b13c      	cbz	r4, 8005326 <_Bfree+0x3a>
 8005316:	69eb      	ldr	r3, [r5, #28]
 8005318:	6862      	ldr	r2, [r4, #4]
 800531a:	68db      	ldr	r3, [r3, #12]
 800531c:	f853 1022 	ldr.w	r1, [r3, r2, lsl #2]
 8005320:	6021      	str	r1, [r4, #0]
 8005322:	f843 4022 	str.w	r4, [r3, r2, lsl #2]
 8005326:	bd70      	pop	{r4, r5, r6, pc}
 8005328:	08006093 	.word	0x08006093
 800532c:	08006113 	.word	0x08006113

08005330 <__multadd>:
 8005330:	e92d 41f0 	stmdb	sp!, {r4, r5, r6, r7, r8, lr}
 8005334:	4607      	mov	r7, r0
 8005336:	460c      	mov	r4, r1
 8005338:	461e      	mov	r6, r3
 800533a:	2000      	movs	r0, #0
 800533c:	690d      	ldr	r5, [r1, #16]
 800533e:	f101 0c14 	add.w	ip, r1, #20
 8005342:	f8dc 3000 	ldr.w	r3, [ip]
 8005346:	3001      	adds	r0, #1
 8005348:	b299      	uxth	r1, r3
 800534a:	fb02 6101 	mla	r1, r2, r1, r6
 800534e:	0c1e      	lsrs	r6, r3, #16
 8005350:	0c0b      	lsrs	r3, r1, #16
 8005352:	fb02 3306 	mla	r3, r2, r6, r3
 8005356:	b289      	uxth	r1, r1
 8005358:	eb01 4103 	add.w	r1, r1, r3, lsl #16
 800535c:	4285      	cmp	r5, r0
 800535e:	ea4f 4613 	mov.w	r6, r3, lsr #16
 8005362:	f84c 1b04 	str.w	r1, [ip], #4
 8005366:	dcec      	bgt.n	8005342 <__multadd+0x12>
 8005368:	b30e      	cbz	r6, 80053ae <__multadd+0x7e>
 800536a:	68a3      	ldr	r3, [r4, #8]
 800536c:	42ab      	cmp	r3, r5
 800536e:	dc19      	bgt.n	80053a4 <__multadd+0x74>
 8005370:	6861      	ldr	r1, [r4, #4]
 8005372:	4638      	mov	r0, r7
 8005374:	3101      	adds	r1, #1
 8005376:	f7ff ff79 	bl	800526c <_Balloc>
 800537a:	4680      	mov	r8, r0
 800537c:	b928      	cbnz	r0, 800538a <__multadd+0x5a>
 800537e:	4602      	mov	r2, r0
 8005380:	21ba      	movs	r1, #186	@ 0xba
 8005382:	4b0c      	ldr	r3, [pc, #48]	@ (80053b4 <__multadd+0x84>)
 8005384:	480c      	ldr	r0, [pc, #48]	@ (80053b8 <__multadd+0x88>)
 8005386:	f000 fd75 	bl	8005e74 <__assert_func>
 800538a:	6922      	ldr	r2, [r4, #16]
 800538c:	f104 010c 	add.w	r1, r4, #12
 8005390:	3202      	adds	r2, #2
 8005392:	0092      	lsls	r2, r2, #2
 8005394:	300c      	adds	r0, #12
 8005396:	f000 fd5f 	bl	8005e58 <memcpy>
 800539a:	4621      	mov	r1, r4
 800539c:	4638      	mov	r0, r7
 800539e:	f7ff ffa5 	bl	80052ec <_Bfree>
 80053a2:	4644      	mov	r4, r8
 80053a4:	eb04 0385 	add.w	r3, r4, r5, lsl #2
 80053a8:	3501      	adds	r5, #1
 80053aa:	615e      	str	r6, [r3, #20]
 80053ac:	6125      	str	r5, [r4, #16]
 80053ae:	4620      	mov	r0, r4
 80053b0:	e8bd 81f0 	ldmia.w	sp!, {r4, r5, r6, r7, r8, pc}
 80053b4:	08006102 	.word	0x08006102
 80053b8:	08006113 	.word	0x08006113

080053bc <__hi0bits>:
 80053bc:	4603      	mov	r3, r0
 80053be:	f5b0 3f80 	cmp.w	r0, #65536	@ 0x10000
 80053c2:	bf3a      	itte	cc
 80053c4:	0403      	lslcc	r3, r0, #16
 80053c6:	2010      	movcc	r0, #16
 80053c8:	2000      	movcs	r0, #0
 80053ca:	f1b3 7f80 	cmp.w	r3, #16777216	@ 0x1000000
 80053ce:	bf3c      	itt	cc
 80053d0:	021b      	lslcc	r3, r3, #8
 80053d2:	3008      	addcc	r0, #8
 80053d4:	f1b3 5f80 	cmp.w	r3, #268435456	@ 0x10000000
 80053d8:	bf3c      	itt	cc
 80053da:	011b      	lslcc	r3, r3, #4
 80053dc:	3004      	addcc	r0, #4
 80053de:	f1b3 4f80 	cmp.w	r3, #1073741824	@ 0x40000000
 80053e2:	bf3c      	itt	cc
 80053e4:	009b      	lslcc	r3, r3, #2
 80053e6:	3002      	addcc	r0, #2
 80053e8:	2b00      	cmp	r3, #0
 80053ea:	db05      	blt.n	80053f8 <__hi0bits+0x3c>
 80053ec:	f013 4f80 	tst.w	r3, #1073741824	@ 0x40000000
 80053f0:	f100 0001 	add.w	r0, r0, #1
 80053f4:	bf08      	it	eq
 80053f6:	2020      	moveq	r0, #32
 80053f8:	4770      	bx	lr

080053fa <__lo0bits>:
 80053fa:	6803      	ldr	r3, [r0, #0]
 80053fc:	4602      	mov	r2, r0
 80053fe:	f013 0007 	ands.w	r0, r3, #7
 8005402:	d00b      	beq.n	800541c <__lo0bits+0x22>
 8005404:	07d9      	lsls	r1, r3, #31
 8005406:	d421      	bmi.n	800544c <__lo0bits+0x52>
 8005408:	0798      	lsls	r0, r3, #30
 800540a:	bf49      	itett	mi
 800540c:	085b      	lsrmi	r3, r3, #1
 800540e:	089b      	lsrpl	r3, r3, #2
 8005410:	2001      	movmi	r0, #1
 8005412:	6013      	strmi	r3, [r2, #0]
 8005414:	bf5c      	itt	pl
 8005416:	2002      	movpl	r0, #2
 8005418:	6013      	strpl	r3, [r2, #0]
 800541a:	4770      	bx	lr
 800541c:	b299      	uxth	r1, r3
 800541e:	b909      	cbnz	r1, 8005424 <__lo0bits+0x2a>
 8005420:	2010      	movs	r0, #16
 8005422:	0c1b      	lsrs	r3, r3, #16
 8005424:	b2d9      	uxtb	r1, r3
 8005426:	b909      	cbnz	r1, 800542c <__lo0bits+0x32>
 8005428:	3008      	adds	r0, #8
 800542a:	0a1b      	lsrs	r3, r3, #8
 800542c:	0719      	lsls	r1, r3, #28
 800542e:	bf04      	itt	eq
 8005430:	091b      	lsreq	r3, r3, #4
 8005432:	3004      	addeq	r0, #4
 8005434:	0799      	lsls	r1, r3, #30
 8005436:	bf04      	itt	eq
 8005438:	089b      	lsreq	r3, r3, #2
 800543a:	3002      	addeq	r0, #2
 800543c:	07d9      	lsls	r1, r3, #31
 800543e:	d403      	bmi.n	8005448 <__lo0bits+0x4e>
 8005440:	085b      	lsrs	r3, r3, #1
 8005442:	f100 0001 	add.w	r0, r0, #1
 8005446:	d003      	beq.n	8005450 <__lo0bits+0x56>
 8005448:	6013      	str	r3, [r2, #0]
 800544a:	4770      	bx	lr
 800544c:	2000      	movs	r0, #0
 800544e:	4770      	bx	lr
 8005450:	2020      	movs	r0, #32
 8005452:	4770      	bx	lr

08005454 <__i2b>:
 8005454:	b510      	push	{r4, lr}
 8005456:	460c      	mov	r4, r1
 8005458:	2101      	movs	r1, #1
 800545a:	f7ff ff07 	bl	800526c <_Balloc>
 800545e:	4602      	mov	r2, r0
 8005460:	b928      	cbnz	r0, 800546e <__i2b+0x1a>
 8005462:	f240 1145 	movw	r1, #325	@ 0x145
 8005466:	4b04      	ldr	r3, [pc, #16]	@ (8005478 <__i2b+0x24>)
 8005468:	4804      	ldr	r0, [pc, #16]	@ (800547c <__i2b+0x28>)
 800546a:	f000 fd03 	bl	8005e74 <__assert_func>
 800546e:	2301      	movs	r3, #1
 8005470:	6144      	str	r4, [r0, #20]
 8005472:	6103      	str	r3, [r0, #16]
 8005474:	bd10      	pop	{r4, pc}
 8005476:	bf00      	nop
 8005478:	08006102 	.word	0x08006102
 800547c:	08006113 	.word	0x08006113

08005480 <__multiply>:
 8005480:	e92d 4ff0 	stmdb	sp!, {r4, r5, r6, r7, r8, r9, sl, fp, lr}
 8005484:	4617      	mov	r7, r2
 8005486:	690a      	ldr	r2, [r1, #16]
 8005488:	693b      	ldr	r3, [r7, #16]
 800548a:	4689      	mov	r9, r1
 800548c:	429a      	cmp	r2, r3
 800548e:	bfa2      	ittt	ge
 8005490:	463b      	movge	r3, r7
 8005492:	460f      	movge	r7, r1
 8005494:	4699      	movge	r9, r3
 8005496:	693d      	ldr	r5, [r7, #16]
 8005498:	f8d9 a010 	ldr.w	sl, [r9, #16]
 800549c:	68bb      	ldr	r3, [r7, #8]
 800549e:	6879      	ldr	r1, [r7, #4]
 80054a0:	eb05 060a 	add.w	r6, r5, sl
 80054a4:	42b3      	cmp	r3, r6
 80054a6:	b085      	sub	sp, #20
 80054a8:	bfb8      	it	lt
 80054aa:	3101      	addlt	r1, #1
 80054ac:	f7ff fede 	bl	800526c <_Balloc>
 80054b0:	b930      	cbnz	r0, 80054c0 <__multiply+0x40>
 80054b2:	4602      	mov	r2, r0
 80054b4:	f44f 71b1 	mov.w	r1, #354	@ 0x162
 80054b8:	4b40      	ldr	r3, [pc, #256]	@ (80055bc <__multiply+0x13c>)
 80054ba:	4841      	ldr	r0, [pc, #260]	@ (80055c0 <__multiply+0x140>)
 80054bc:	f000 fcda 	bl	8005e74 <__assert_func>
 80054c0:	f100 0414 	add.w	r4, r0, #20
 80054c4:	4623      	mov	r3, r4
 80054c6:	2200      	movs	r2, #0
 80054c8:	eb04 0e86 	add.w	lr, r4, r6, lsl #2
 80054cc:	4573      	cmp	r3, lr
 80054ce:	d320      	bcc.n	8005512 <__multiply+0x92>
 80054d0:	f107 0814 	add.w	r8, r7, #20
 80054d4:	f109 0114 	add.w	r1, r9, #20
 80054d8:	eb08 0585 	add.w	r5, r8, r5, lsl #2
 80054dc:	eb01 038a 	add.w	r3, r1, sl, lsl #2
 80054e0:	9302      	str	r3, [sp, #8]
 80054e2:	1beb      	subs	r3, r5, r7
 80054e4:	3b15      	subs	r3, #21
 80054e6:	f023 0303 	bic.w	r3, r3, #3
 80054ea:	3304      	adds	r3, #4
 80054ec:	3715      	adds	r7, #21
 80054ee:	42bd      	cmp	r5, r7
 80054f0:	bf38      	it	cc
 80054f2:	2304      	movcc	r3, #4
 80054f4:	9301      	str	r3, [sp, #4]
 80054f6:	9b02      	ldr	r3, [sp, #8]
 80054f8:	9103      	str	r1, [sp, #12]
 80054fa:	428b      	cmp	r3, r1
 80054fc:	d80c      	bhi.n	8005518 <__multiply+0x98>
 80054fe:	2e00      	cmp	r6, #0
 8005500:	dd03      	ble.n	800550a <__multiply+0x8a>
 8005502:	f85e 3d04 	ldr.w	r3, [lr, #-4]!
 8005506:	2b00      	cmp	r3, #0
 8005508:	d055      	beq.n	80055b6 <__multiply+0x136>
 800550a:	6106      	str	r6, [r0, #16]
 800550c:	b005      	add	sp, #20
 800550e:	e8bd 8ff0 	ldmia.w	sp!, {r4, r5, r6, r7, r8, r9, sl, fp, pc}
 8005512:	f843 2b04 	str.w	r2, [r3], #4
 8005516:	e7d9      	b.n	80054cc <__multiply+0x4c>
 8005518:	f8b1 a000 	ldrh.w	sl, [r1]
 800551c:	f1ba 0f00 	cmp.w	sl, #0
 8005520:	d01f      	beq.n	8005562 <__multiply+0xe2>
 8005522:	46c4      	mov	ip, r8
 8005524:	46a1      	mov	r9, r4
 8005526:	2700      	movs	r7, #0
 8005528:	f85c 2b04 	ldr.w	r2, [ip], #4
 800552c:	f8d9 3000 	ldr.w	r3, [r9]
 8005530:	fa1f fb82 	uxth.w	fp, r2
 8005534:	b29b      	uxth	r3, r3
 8005536:	fb0a 330b 	mla	r3, sl, fp, r3
 800553a:	443b      	add	r3, r7
 800553c:	f8d9 7000 	ldr.w	r7, [r9]
 8005540:	0c12      	lsrs	r2, r2, #16
 8005542:	0c3f      	lsrs	r7, r7, #16
 8005544:	fb0a 7202 	mla	r2, sl, r2, r7
 8005548:	eb02 4213 	add.w	r2, r2, r3, lsr #16
 800554c:	b29b      	uxth	r3, r3
 800554e:	ea43 4302 	orr.w	r3, r3, r2, lsl #16
 8005552:	4565      	cmp	r5, ip
 8005554:	ea4f 4712 	mov.w	r7, r2, lsr #16
 8005558:	f849 3b04 	str.w	r3, [r9], #4
 800555c:	d8e4      	bhi.n	8005528 <__multiply+0xa8>
 800555e:	9b01      	ldr	r3, [sp, #4]
 8005560:	50e7      	str	r7, [r4, r3]
 8005562:	9b03      	ldr	r3, [sp, #12]
 8005564:	3104      	adds	r1, #4
 8005566:	f8b3 9002 	ldrh.w	r9, [r3, #2]
 800556a:	f1b9 0f00 	cmp.w	r9, #0
 800556e:	d020      	beq.n	80055b2 <__multiply+0x132>
 8005570:	4647      	mov	r7, r8
 8005572:	46a4      	mov	ip, r4
 8005574:	f04f 0a00 	mov.w	sl, #0
 8005578:	6823      	ldr	r3, [r4, #0]
 800557a:	f8b7 b000 	ldrh.w	fp, [r7]
 800557e:	f8bc 2002 	ldrh.w	r2, [ip, #2]
 8005582:	b29b      	uxth	r3, r3
 8005584:	fb09 220b 	mla	r2, r9, fp, r2
 8005588:	4452      	add	r2, sl
 800558a:	ea43 4302 	orr.w	r3, r3, r2, lsl #16
 800558e:	f84c 3b04 	str.w	r3, [ip], #4
 8005592:	f857 3b04 	ldr.w	r3, [r7], #4
 8005596:	ea4f 4a13 	mov.w	sl, r3, lsr #16
 800559a:	f8bc 3000 	ldrh.w	r3, [ip]
 800559e:	42bd      	cmp	r5, r7
 80055a0:	fb09 330a 	mla	r3, r9, sl, r3
 80055a4:	eb03 4312 	add.w	r3, r3, r2, lsr #16
 80055a8:	ea4f 4a13 	mov.w	sl, r3, lsr #16
 80055ac:	d8e5      	bhi.n	800557a <__multiply+0xfa>
 80055ae:	9a01      	ldr	r2, [sp, #4]
 80055b0:	50a3      	str	r3, [r4, r2]
 80055b2:	3404      	adds	r4, #4
 80055b4:	e79f      	b.n	80054f6 <__multiply+0x76>
 80055b6:	3e01      	subs	r6, #1
 80055b8:	e7a1      	b.n	80054fe <__multiply+0x7e>
 80055ba:	bf00      	nop
 80055bc:	08006102 	.word	0x08006102
 80055c0:	08006113 	.word	0x08006113

080055c4 <__pow5mult>:
 80055c4:	e92d 43f8 	stmdb	sp!, {r3, r4, r5, r6, r7, r8, r9, lr}
 80055c8:	4615      	mov	r5, r2
 80055ca:	f012 0203 	ands.w	r2, r2, #3
 80055ce:	4607      	mov	r7, r0
 80055d0:	460e      	mov	r6, r1
 80055d2:	d007      	beq.n	80055e4 <__pow5mult+0x20>
 80055d4:	4c25      	ldr	r4, [pc, #148]	@ (800566c <__pow5mult+0xa8>)
 80055d6:	3a01      	subs	r2, #1
 80055d8:	2300      	movs	r3, #0
 80055da:	f854 2022 	ldr.w	r2, [r4, r2, lsl #2]
 80055de:	f7ff fea7 	bl	8005330 <__multadd>
 80055e2:	4606      	mov	r6, r0
 80055e4:	10ad      	asrs	r5, r5, #2
 80055e6:	d03d      	beq.n	8005664 <__pow5mult+0xa0>
 80055e8:	69fc      	ldr	r4, [r7, #28]
 80055ea:	b97c      	cbnz	r4, 800560c <__pow5mult+0x48>
 80055ec:	2010      	movs	r0, #16
 80055ee:	f7ff fd87 	bl	8005100 <malloc>
 80055f2:	4602      	mov	r2, r0
 80055f4:	61f8      	str	r0, [r7, #28]
 80055f6:	b928      	cbnz	r0, 8005604 <__pow5mult+0x40>
 80055f8:	f240 11b3 	movw	r1, #435	@ 0x1b3
 80055fc:	4b1c      	ldr	r3, [pc, #112]	@ (8005670 <__pow5mult+0xac>)
 80055fe:	481d      	ldr	r0, [pc, #116]	@ (8005674 <__pow5mult+0xb0>)
 8005600:	f000 fc38 	bl	8005e74 <__assert_func>
 8005604:	e9c0 4401 	strd	r4, r4, [r0, #4]
 8005608:	6004      	str	r4, [r0, #0]
 800560a:	60c4      	str	r4, [r0, #12]
 800560c:	f8d7 801c 	ldr.w	r8, [r7, #28]
 8005610:	f8d8 4008 	ldr.w	r4, [r8, #8]
 8005614:	b94c      	cbnz	r4, 800562a <__pow5mult+0x66>
 8005616:	f240 2171 	movw	r1, #625	@ 0x271
 800561a:	4638      	mov	r0, r7
 800561c:	f7ff ff1a 	bl	8005454 <__i2b>
 8005620:	2300      	movs	r3, #0
 8005622:	4604      	mov	r4, r0
 8005624:	f8c8 0008 	str.w	r0, [r8, #8]
 8005628:	6003      	str	r3, [r0, #0]
 800562a:	f04f 0900 	mov.w	r9, #0
 800562e:	07eb      	lsls	r3, r5, #31
 8005630:	d50a      	bpl.n	8005648 <__pow5mult+0x84>
 8005632:	4631      	mov	r1, r6
 8005634:	4622      	mov	r2, r4
 8005636:	4638      	mov	r0, r7
 8005638:	f7ff ff22 	bl	8005480 <__multiply>
 800563c:	4680      	mov	r8, r0
 800563e:	4631      	mov	r1, r6
 8005640:	4638      	mov	r0, r7
 8005642:	f7ff fe53 	bl	80052ec <_Bfree>
 8005646:	4646      	mov	r6, r8
 8005648:	106d      	asrs	r5, r5, #1
 800564a:	d00b      	beq.n	8005664 <__pow5mult+0xa0>
 800564c:	6820      	ldr	r0, [r4, #0]
 800564e:	b938      	cbnz	r0, 8005660 <__pow5mult+0x9c>
 8005650:	4622      	mov	r2, r4
 8005652:	4621      	mov	r1, r4
 8005654:	4638      	mov	r0, r7
 8005656:	f7ff ff13 	bl	8005480 <__multiply>
 800565a:	6020      	str	r0, [r4, #0]
 800565c:	f8c0 9000 	str.w	r9, [r0]
 8005660:	4604      	mov	r4, r0
 8005662:	e7e4      	b.n	800562e <__pow5mult+0x6a>
 8005664:	4630      	mov	r0, r6
 8005666:	e8bd 83f8 	ldmia.w	sp!, {r3, r4, r5, r6, r7, r8, r9, pc}
 800566a:	bf00      	nop
 800566c:	080061c4 	.word	0x080061c4
 8005670:	08006093 	.word	0x08006093
 8005674:	08006113 	.word	0x08006113

08005678 <__lshift>:
 8005678:	e92d 47f0 	stmdb	sp!, {r4, r5, r6, r7, r8, r9, sl, lr}
 800567c:	460c      	mov	r4, r1
 800567e:	4607      	mov	r7, r0
 8005680:	4691      	mov	r9, r2
 8005682:	6923      	ldr	r3, [r4, #16]
 8005684:	6849      	ldr	r1, [r1, #4]
 8005686:	eb03 1862 	add.w	r8, r3, r2, asr #5
 800568a:	68a3      	ldr	r3, [r4, #8]
 800568c:	ea4f 1a62 	mov.w	sl, r2, asr #5
 8005690:	f108 0601 	add.w	r6, r8, #1
 8005694:	42b3      	cmp	r3, r6
 8005696:	db0b      	blt.n	80056b0 <__lshift+0x38>
 8005698:	4638      	mov	r0, r7
 800569a:	f7ff fde7 	bl	800526c <_Balloc>
 800569e:	4605      	mov	r5, r0
 80056a0:	b948      	cbnz	r0, 80056b6 <__lshift+0x3e>
 80056a2:	4602      	mov	r2, r0
 80056a4:	f44f 71ef 	mov.w	r1, #478	@ 0x1de
 80056a8:	4b27      	ldr	r3, [pc, #156]	@ (8005748 <__lshift+0xd0>)
 80056aa:	4828      	ldr	r0, [pc, #160]	@ (800574c <__lshift+0xd4>)
 80056ac:	f000 fbe2 	bl	8005e74 <__assert_func>
 80056b0:	3101      	adds	r1, #1
 80056b2:	005b      	lsls	r3, r3, #1
 80056b4:	e7ee      	b.n	8005694 <__lshift+0x1c>
 80056b6:	2300      	movs	r3, #0
 80056b8:	f100 0114 	add.w	r1, r0, #20
 80056bc:	f100 0210 	add.w	r2, r0, #16
 80056c0:	4618      	mov	r0, r3
 80056c2:	4553      	cmp	r3, sl
 80056c4:	db33      	blt.n	800572e <__lshift+0xb6>
 80056c6:	6920      	ldr	r0, [r4, #16]
 80056c8:	ea2a 7aea 	bic.w	sl, sl, sl, asr #31
 80056cc:	f104 0314 	add.w	r3, r4, #20
 80056d0:	f019 091f 	ands.w	r9, r9, #31
 80056d4:	eb01 018a 	add.w	r1, r1, sl, lsl #2
 80056d8:	eb03 0c80 	add.w	ip, r3, r0, lsl #2
 80056dc:	d02b      	beq.n	8005736 <__lshift+0xbe>
 80056de:	468a      	mov	sl, r1
 80056e0:	2200      	movs	r2, #0
 80056e2:	f1c9 0e20 	rsb	lr, r9, #32
 80056e6:	6818      	ldr	r0, [r3, #0]
 80056e8:	fa00 f009 	lsl.w	r0, r0, r9
 80056ec:	4310      	orrs	r0, r2
 80056ee:	f84a 0b04 	str.w	r0, [sl], #4
 80056f2:	f853 2b04 	ldr.w	r2, [r3], #4
 80056f6:	459c      	cmp	ip, r3
 80056f8:	fa22 f20e 	lsr.w	r2, r2, lr
 80056fc:	d8f3      	bhi.n	80056e6 <__lshift+0x6e>
 80056fe:	ebac 0304 	sub.w	r3, ip, r4
 8005702:	3b15      	subs	r3, #21
 8005704:	f023 0303 	bic.w	r3, r3, #3
 8005708:	3304      	adds	r3, #4
 800570a:	f104 0015 	add.w	r0, r4, #21
 800570e:	4560      	cmp	r0, ip
 8005710:	bf88      	it	hi
 8005712:	2304      	movhi	r3, #4
 8005714:	50ca      	str	r2, [r1, r3]
 8005716:	b10a      	cbz	r2, 800571c <__lshift+0xa4>
 8005718:	f108 0602 	add.w	r6, r8, #2
 800571c:	3e01      	subs	r6, #1
 800571e:	4638      	mov	r0, r7
 8005720:	4621      	mov	r1, r4
 8005722:	612e      	str	r6, [r5, #16]
 8005724:	f7ff fde2 	bl	80052ec <_Bfree>
 8005728:	4628      	mov	r0, r5
 800572a:	e8bd 87f0 	ldmia.w	sp!, {r4, r5, r6, r7, r8, r9, sl, pc}
 800572e:	f842 0f04 	str.w	r0, [r2, #4]!
 8005732:	3301      	adds	r3, #1
 8005734:	e7c5      	b.n	80056c2 <__lshift+0x4a>
 8005736:	3904      	subs	r1, #4
 8005738:	f853 2b04 	ldr.w	r2, [r3], #4
 800573c:	459c      	cmp	ip, r3
 800573e:	f841 2f04 	str.w	r2, [r1, #4]!
 8005742:	d8f9      	bhi.n	8005738 <__lshift+0xc0>
 8005744:	e7ea      	b.n	800571c <__lshift+0xa4>
 8005746:	bf00      	nop
 8005748:	08006102 	.word	0x08006102
 800574c:	08006113 	.word	0x08006113

08005750 <__mcmp>:
 8005750:	4603      	mov	r3, r0
 8005752:	690a      	ldr	r2, [r1, #16]
 8005754:	6900      	ldr	r0, [r0, #16]
 8005756:	b530      	push	{r4, r5, lr}
 8005758:	1a80      	subs	r0, r0, r2
 800575a:	d10e      	bne.n	800577a <__mcmp+0x2a>
 800575c:	3314      	adds	r3, #20
 800575e:	3114      	adds	r1, #20
 8005760:	eb03 0482 	add.w	r4, r3, r2, lsl #2
 8005764:	eb01 0182 	add.w	r1, r1, r2, lsl #2
 8005768:	f854 5d04 	ldr.w	r5, [r4, #-4]!
 800576c:	f851 2d04 	ldr.w	r2, [r1, #-4]!
 8005770:	4295      	cmp	r5, r2
 8005772:	d003      	beq.n	800577c <__mcmp+0x2c>
 8005774:	d205      	bcs.n	8005782 <__mcmp+0x32>
 8005776:	f04f 30ff 	mov.w	r0, #4294967295
 800577a:	bd30      	pop	{r4, r5, pc}
 800577c:	42a3      	cmp	r3, r4
 800577e:	d3f3      	bcc.n	8005768 <__mcmp+0x18>
 8005780:	e7fb      	b.n	800577a <__mcmp+0x2a>
 8005782:	2001      	movs	r0, #1
 8005784:	e7f9      	b.n	800577a <__mcmp+0x2a>
	...

08005788 <__mdiff>:
 8005788:	e92d 4ff7 	stmdb	sp!, {r0, r1, r2, r4, r5, r6, r7, r8, r9, sl, fp, lr}
 800578c:	4689      	mov	r9, r1
 800578e:	4606      	mov	r6, r0
 8005790:	4611      	mov	r1, r2
 8005792:	4648      	mov	r0, r9
 8005794:	4614      	mov	r4, r2
 8005796:	f7ff ffdb 	bl	8005750 <__mcmp>
 800579a:	1e05      	subs	r5, r0, #0
 800579c:	d112      	bne.n	80057c4 <__mdiff+0x3c>
 800579e:	4629      	mov	r1, r5
 80057a0:	4630      	mov	r0, r6
 80057a2:	f7ff fd63 	bl	800526c <_Balloc>
 80057a6:	4602      	mov	r2, r0
 80057a8:	b928      	cbnz	r0, 80057b6 <__mdiff+0x2e>
 80057aa:	f240 2137 	movw	r1, #567	@ 0x237
 80057ae:	4b3e      	ldr	r3, [pc, #248]	@ (80058a8 <__mdiff+0x120>)
 80057b0:	483e      	ldr	r0, [pc, #248]	@ (80058ac <__mdiff+0x124>)
 80057b2:	f000 fb5f 	bl	8005e74 <__assert_func>
 80057b6:	2301      	movs	r3, #1
 80057b8:	e9c0 3504 	strd	r3, r5, [r0, #16]
 80057bc:	4610      	mov	r0, r2
 80057be:	b003      	add	sp, #12
 80057c0:	e8bd 8ff0 	ldmia.w	sp!, {r4, r5, r6, r7, r8, r9, sl, fp, pc}
 80057c4:	bfbc      	itt	lt
 80057c6:	464b      	movlt	r3, r9
 80057c8:	46a1      	movlt	r9, r4
 80057ca:	4630      	mov	r0, r6
 80057cc:	f8d9 1004 	ldr.w	r1, [r9, #4]
 80057d0:	bfba      	itte	lt
 80057d2:	461c      	movlt	r4, r3
 80057d4:	2501      	movlt	r5, #1
 80057d6:	2500      	movge	r5, #0
 80057d8:	f7ff fd48 	bl	800526c <_Balloc>
 80057dc:	4602      	mov	r2, r0
 80057de:	b918      	cbnz	r0, 80057e8 <__mdiff+0x60>
 80057e0:	f240 2145 	movw	r1, #581	@ 0x245
 80057e4:	4b30      	ldr	r3, [pc, #192]	@ (80058a8 <__mdiff+0x120>)
 80057e6:	e7e3      	b.n	80057b0 <__mdiff+0x28>
 80057e8:	f100 0b14 	add.w	fp, r0, #20
 80057ec:	f8d9 7010 	ldr.w	r7, [r9, #16]
 80057f0:	f109 0310 	add.w	r3, r9, #16
 80057f4:	60c5      	str	r5, [r0, #12]
 80057f6:	f04f 0c00 	mov.w	ip, #0
 80057fa:	f109 0514 	add.w	r5, r9, #20
 80057fe:	46d9      	mov	r9, fp
 8005800:	6926      	ldr	r6, [r4, #16]
 8005802:	f104 0e14 	add.w	lr, r4, #20
 8005806:	eb05 0887 	add.w	r8, r5, r7, lsl #2
 800580a:	eb0e 0686 	add.w	r6, lr, r6, lsl #2
 800580e:	9301      	str	r3, [sp, #4]
 8005810:	9b01      	ldr	r3, [sp, #4]
 8005812:	f85e 0b04 	ldr.w	r0, [lr], #4
 8005816:	f853 af04 	ldr.w	sl, [r3, #4]!
 800581a:	b281      	uxth	r1, r0
 800581c:	9301      	str	r3, [sp, #4]
 800581e:	fa1f f38a 	uxth.w	r3, sl
 8005822:	1a5b      	subs	r3, r3, r1
 8005824:	0c00      	lsrs	r0, r0, #16
 8005826:	4463      	add	r3, ip
 8005828:	ebc0 401a 	rsb	r0, r0, sl, lsr #16
 800582c:	eb00 4023 	add.w	r0, r0, r3, asr #16
 8005830:	b29b      	uxth	r3, r3
 8005832:	ea43 4300 	orr.w	r3, r3, r0, lsl #16
 8005836:	4576      	cmp	r6, lr
 8005838:	ea4f 4c20 	mov.w	ip, r0, asr #16
 800583c:	f849 3b04 	str.w	r3, [r9], #4
 8005840:	d8e6      	bhi.n	8005810 <__mdiff+0x88>
 8005842:	1b33      	subs	r3, r6, r4
 8005844:	3b15      	subs	r3, #21
 8005846:	f023 0303 	bic.w	r3, r3, #3
 800584a:	3415      	adds	r4, #21
 800584c:	3304      	adds	r3, #4
 800584e:	42a6      	cmp	r6, r4
 8005850:	bf38      	it	cc
 8005852:	2304      	movcc	r3, #4
 8005854:	441d      	add	r5, r3
 8005856:	445b      	add	r3, fp
 8005858:	461e      	mov	r6, r3
 800585a:	462c      	mov	r4, r5
 800585c:	4544      	cmp	r4, r8
 800585e:	d30e      	bcc.n	800587e <__mdiff+0xf6>
 8005860:	f108 0103 	add.w	r1, r8, #3
 8005864:	1b49      	subs	r1, r1, r5
 8005866:	f021 0103 	bic.w	r1, r1, #3
 800586a:	3d03      	subs	r5, #3
 800586c:	45a8      	cmp	r8, r5
 800586e:	bf38      	it	cc
 8005870:	2100      	movcc	r1, #0
 8005872:	440b      	add	r3, r1
 8005874:	f853 1d04 	ldr.w	r1, [r3, #-4]!
 8005878:	b199      	cbz	r1, 80058a2 <__mdiff+0x11a>
 800587a:	6117      	str	r7, [r2, #16]
 800587c:	e79e      	b.n	80057bc <__mdiff+0x34>
 800587e:	46e6      	mov	lr, ip
 8005880:	f854 1b04 	ldr.w	r1, [r4], #4
 8005884:	fa1f fc81 	uxth.w	ip, r1
 8005888:	44f4      	add	ip, lr
 800588a:	0c08      	lsrs	r0, r1, #16
 800588c:	4471      	add	r1, lr
 800588e:	eb00 402c 	add.w	r0, r0, ip, asr #16
 8005892:	b289      	uxth	r1, r1
 8005894:	ea41 4100 	orr.w	r1, r1, r0, lsl #16
 8005898:	ea4f 4c20 	mov.w	ip, r0, asr #16
 800589c:	f846 1b04 	str.w	r1, [r6], #4
 80058a0:	e7dc      	b.n	800585c <__mdiff+0xd4>
 80058a2:	3f01      	subs	r7, #1
 80058a4:	e7e6      	b.n	8005874 <__mdiff+0xec>
 80058a6:	bf00      	nop
 80058a8:	08006102 	.word	0x08006102
 80058ac:	08006113 	.word	0x08006113

080058b0 <__d2b>:
 80058b0:	e92d 4373 	stmdb	sp!, {r0, r1, r4, r5, r6, r8, r9, lr}
 80058b4:	2101      	movs	r1, #1
 80058b6:	4690      	mov	r8, r2
 80058b8:	4699      	mov	r9, r3
 80058ba:	9e08      	ldr	r6, [sp, #32]
 80058bc:	f7ff fcd6 	bl	800526c <_Balloc>
 80058c0:	4604      	mov	r4, r0
 80058c2:	b930      	cbnz	r0, 80058d2 <__d2b+0x22>
 80058c4:	4602      	mov	r2, r0
 80058c6:	f240 310f 	movw	r1, #783	@ 0x30f
 80058ca:	4b23      	ldr	r3, [pc, #140]	@ (8005958 <__d2b+0xa8>)
 80058cc:	4823      	ldr	r0, [pc, #140]	@ (800595c <__d2b+0xac>)
 80058ce:	f000 fad1 	bl	8005e74 <__assert_func>
 80058d2:	f3c9 550a 	ubfx	r5, r9, #20, #11
 80058d6:	f3c9 0313 	ubfx	r3, r9, #0, #20
 80058da:	b10d      	cbz	r5, 80058e0 <__d2b+0x30>
 80058dc:	f443 1380 	orr.w	r3, r3, #1048576	@ 0x100000
 80058e0:	9301      	str	r3, [sp, #4]
 80058e2:	f1b8 0300 	subs.w	r3, r8, #0
 80058e6:	d024      	beq.n	8005932 <__d2b+0x82>
 80058e8:	4668      	mov	r0, sp
 80058ea:	9300      	str	r3, [sp, #0]
 80058ec:	f7ff fd85 	bl	80053fa <__lo0bits>
 80058f0:	e9dd 1200 	ldrd	r1, r2, [sp]
 80058f4:	b1d8      	cbz	r0, 800592e <__d2b+0x7e>
 80058f6:	f1c0 0320 	rsb	r3, r0, #32
 80058fa:	fa02 f303 	lsl.w	r3, r2, r3
 80058fe:	430b      	orrs	r3, r1
 8005900:	40c2      	lsrs	r2, r0
 8005902:	6163      	str	r3, [r4, #20]
 8005904:	9201      	str	r2, [sp, #4]
 8005906:	9b01      	ldr	r3, [sp, #4]
 8005908:	2b00      	cmp	r3, #0
 800590a:	bf0c      	ite	eq
 800590c:	2201      	moveq	r2, #1
 800590e:	2202      	movne	r2, #2
 8005910:	61a3      	str	r3, [r4, #24]
 8005912:	6122      	str	r2, [r4, #16]
 8005914:	b1ad      	cbz	r5, 8005942 <__d2b+0x92>
 8005916:	f2a5 4533 	subw	r5, r5, #1075	@ 0x433
 800591a:	4405      	add	r5, r0
 800591c:	6035      	str	r5, [r6, #0]
 800591e:	f1c0 0035 	rsb	r0, r0, #53	@ 0x35
 8005922:	9b09      	ldr	r3, [sp, #36]	@ 0x24
 8005924:	6018      	str	r0, [r3, #0]
 8005926:	4620      	mov	r0, r4
 8005928:	b002      	add	sp, #8
 800592a:	e8bd 8370 	ldmia.w	sp!, {r4, r5, r6, r8, r9, pc}
 800592e:	6161      	str	r1, [r4, #20]
 8005930:	e7e9      	b.n	8005906 <__d2b+0x56>
 8005932:	a801      	add	r0, sp, #4
 8005934:	f7ff fd61 	bl	80053fa <__lo0bits>
 8005938:	9b01      	ldr	r3, [sp, #4]
 800593a:	2201      	movs	r2, #1
 800593c:	6163      	str	r3, [r4, #20]
 800593e:	3020      	adds	r0, #32
 8005940:	e7e7      	b.n	8005912 <__d2b+0x62>
 8005942:	f2a0 4032 	subw	r0, r0, #1074	@ 0x432
 8005946:	eb04 0382 	add.w	r3, r4, r2, lsl #2
 800594a:	6030      	str	r0, [r6, #0]
 800594c:	6918      	ldr	r0, [r3, #16]
 800594e:	f7ff fd35 	bl	80053bc <__hi0bits>
 8005952:	ebc0 1042 	rsb	r0, r0, r2, lsl #5
 8005956:	e7e4      	b.n	8005922 <__d2b+0x72>
 8005958:	08006102 	.word	0x08006102
 800595c:	08006113 	.word	0x08006113

08005960 <__sfputc_r>:
 8005960:	6893      	ldr	r3, [r2, #8]
 8005962:	b410      	push	{r4}
 8005964:	3b01      	subs	r3, #1
 8005966:	2b00      	cmp	r3, #0
 8005968:	6093      	str	r3, [r2, #8]
 800596a:	da07      	bge.n	800597c <__sfputc_r+0x1c>
 800596c:	6994      	ldr	r4, [r2, #24]
 800596e:	42a3      	cmp	r3, r4
 8005970:	db01      	blt.n	8005976 <__sfputc_r+0x16>
 8005972:	290a      	cmp	r1, #10
 8005974:	d102      	bne.n	800597c <__sfputc_r+0x1c>
 8005976:	bc10      	pop	{r4}
 8005978:	f7fe bbfb 	b.w	8004172 <__swbuf_r>
 800597c:	6813      	ldr	r3, [r2, #0]
 800597e:	1c58      	adds	r0, r3, #1
 8005980:	6010      	str	r0, [r2, #0]
 8005982:	7019      	strb	r1, [r3, #0]
 8005984:	4608      	mov	r0, r1
 8005986:	bc10      	pop	{r4}
 8005988:	4770      	bx	lr

0800598a <__sfputs_r>:
 800598a:	b5f8      	push	{r3, r4, r5, r6, r7, lr}
 800598c:	4606      	mov	r6, r0
 800598e:	460f      	mov	r7, r1
 8005990:	4614      	mov	r4, r2
 8005992:	18d5      	adds	r5, r2, r3
 8005994:	42ac      	cmp	r4, r5
 8005996:	d101      	bne.n	800599c <__sfputs_r+0x12>
 8005998:	2000      	movs	r0, #0
 800599a:	e007      	b.n	80059ac <__sfputs_r+0x22>
 800599c:	463a      	mov	r2, r7
 800599e:	4630      	mov	r0, r6
 80059a0:	f814 1b01 	ldrb.w	r1, [r4], #1
 80059a4:	f7ff ffdc 	bl	8005960 <__sfputc_r>
 80059a8:	1c43      	adds	r3, r0, #1
 80059aa:	d1f3      	bne.n	8005994 <__sfputs_r+0xa>
 80059ac:	bdf8      	pop	{r3, r4, r5, r6, r7, pc}
	...

080059b0 <_vfiprintf_r>:
 80059b0:	e92d 4ff0 	stmdb	sp!, {r4, r5, r6, r7, r8, r9, sl, fp, lr}
 80059b4:	460d      	mov	r5, r1
 80059b6:	4614      	mov	r4, r2
 80059b8:	4698      	mov	r8, r3
 80059ba:	4606      	mov	r6, r0
 80059bc:	b09d      	sub	sp, #116	@ 0x74
 80059be:	b118      	cbz	r0, 80059c8 <_vfiprintf_r+0x18>
 80059c0:	6a03      	ldr	r3, [r0, #32]
 80059c2:	b90b      	cbnz	r3, 80059c8 <_vfiprintf_r+0x18>
 80059c4:	f7fe faec 	bl	8003fa0 <__sinit>
 80059c8:	6e6b      	ldr	r3, [r5, #100]	@ 0x64
 80059ca:	07d9      	lsls	r1, r3, #31
 80059cc:	d405      	bmi.n	80059da <_vfiprintf_r+0x2a>
 80059ce:	89ab      	ldrh	r3, [r5, #12]
 80059d0:	059a      	lsls	r2, r3, #22
 80059d2:	d402      	bmi.n	80059da <_vfiprintf_r+0x2a>
 80059d4:	6da8      	ldr	r0, [r5, #88]	@ 0x58
 80059d6:	f7fe fcde 	bl	8004396 <__retarget_lock_acquire_recursive>
 80059da:	89ab      	ldrh	r3, [r5, #12]
 80059dc:	071b      	lsls	r3, r3, #28
 80059de:	d501      	bpl.n	80059e4 <_vfiprintf_r+0x34>
 80059e0:	692b      	ldr	r3, [r5, #16]
 80059e2:	b99b      	cbnz	r3, 8005a0c <_vfiprintf_r+0x5c>
 80059e4:	4629      	mov	r1, r5
 80059e6:	4630      	mov	r0, r6
 80059e8:	f7fe fc02 	bl	80041f0 <__swsetup_r>
 80059ec:	b170      	cbz	r0, 8005a0c <_vfiprintf_r+0x5c>
 80059ee:	6e6b      	ldr	r3, [r5, #100]	@ 0x64
 80059f0:	07dc      	lsls	r4, r3, #31
 80059f2:	d504      	bpl.n	80059fe <_vfiprintf_r+0x4e>
 80059f4:	f04f 30ff 	mov.w	r0, #4294967295
 80059f8:	b01d      	add	sp, #116	@ 0x74
 80059fa:	e8bd 8ff0 	ldmia.w	sp!, {r4, r5, r6, r7, r8, r9, sl, fp, pc}
 80059fe:	89ab      	ldrh	r3, [r5, #12]
 8005a00:	0598      	lsls	r0, r3, #22
 8005a02:	d4f7      	bmi.n	80059f4 <_vfiprintf_r+0x44>
 8005a04:	6da8      	ldr	r0, [r5, #88]	@ 0x58
 8005a06:	f7fe fcc7 	bl	8004398 <__retarget_lock_release_recursive>
 8005a0a:	e7f3      	b.n	80059f4 <_vfiprintf_r+0x44>
 8005a0c:	2300      	movs	r3, #0
 8005a0e:	9309      	str	r3, [sp, #36]	@ 0x24
 8005a10:	2320      	movs	r3, #32
 8005a12:	f88d 3029 	strb.w	r3, [sp, #41]	@ 0x29
 8005a16:	2330      	movs	r3, #48	@ 0x30
 8005a18:	f04f 0901 	mov.w	r9, #1
 8005a1c:	f8cd 800c 	str.w	r8, [sp, #12]
 8005a20:	f8df 81a8 	ldr.w	r8, [pc, #424]	@ 8005bcc <_vfiprintf_r+0x21c>
 8005a24:	f88d 302a 	strb.w	r3, [sp, #42]	@ 0x2a
 8005a28:	4623      	mov	r3, r4
 8005a2a:	469a      	mov	sl, r3
 8005a2c:	f813 2b01 	ldrb.w	r2, [r3], #1
 8005a30:	b10a      	cbz	r2, 8005a36 <_vfiprintf_r+0x86>
 8005a32:	2a25      	cmp	r2, #37	@ 0x25
 8005a34:	d1f9      	bne.n	8005a2a <_vfiprintf_r+0x7a>
 8005a36:	ebba 0b04 	subs.w	fp, sl, r4
 8005a3a:	d00b      	beq.n	8005a54 <_vfiprintf_r+0xa4>
 8005a3c:	465b      	mov	r3, fp
 8005a3e:	4622      	mov	r2, r4
 8005a40:	4629      	mov	r1, r5
 8005a42:	4630      	mov	r0, r6
 8005a44:	f7ff ffa1 	bl	800598a <__sfputs_r>
 8005a48:	3001      	adds	r0, #1
 8005a4a:	f000 80a7 	beq.w	8005b9c <_vfiprintf_r+0x1ec>
 8005a4e:	9a09      	ldr	r2, [sp, #36]	@ 0x24
 8005a50:	445a      	add	r2, fp
 8005a52:	9209      	str	r2, [sp, #36]	@ 0x24
 8005a54:	f89a 3000 	ldrb.w	r3, [sl]
 8005a58:	2b00      	cmp	r3, #0
 8005a5a:	f000 809f 	beq.w	8005b9c <_vfiprintf_r+0x1ec>
 8005a5e:	2300      	movs	r3, #0
 8005a60:	f04f 32ff 	mov.w	r2, #4294967295
 8005a64:	e9cd 2305 	strd	r2, r3, [sp, #20]
 8005a68:	f10a 0a01 	add.w	sl, sl, #1
 8005a6c:	9304      	str	r3, [sp, #16]
 8005a6e:	9307      	str	r3, [sp, #28]
 8005a70:	f88d 3053 	strb.w	r3, [sp, #83]	@ 0x53
 8005a74:	931a      	str	r3, [sp, #104]	@ 0x68
 8005a76:	4654      	mov	r4, sl
 8005a78:	2205      	movs	r2, #5
 8005a7a:	f814 1b01 	ldrb.w	r1, [r4], #1
 8005a7e:	4853      	ldr	r0, [pc, #332]	@ (8005bcc <_vfiprintf_r+0x21c>)
 8005a80:	f7fe fc8b 	bl	800439a <memchr>
 8005a84:	9a04      	ldr	r2, [sp, #16]
 8005a86:	b9d8      	cbnz	r0, 8005ac0 <_vfiprintf_r+0x110>
 8005a88:	06d1      	lsls	r1, r2, #27
 8005a8a:	bf44      	itt	mi
 8005a8c:	2320      	movmi	r3, #32
 8005a8e:	f88d 3053 	strbmi.w	r3, [sp, #83]	@ 0x53
 8005a92:	0713      	lsls	r3, r2, #28
 8005a94:	bf44      	itt	mi
 8005a96:	232b      	movmi	r3, #43	@ 0x2b
 8005a98:	f88d 3053 	strbmi.w	r3, [sp, #83]	@ 0x53
 8005a9c:	f89a 3000 	ldrb.w	r3, [sl]
 8005aa0:	2b2a      	cmp	r3, #42	@ 0x2a
 8005aa2:	d015      	beq.n	8005ad0 <_vfiprintf_r+0x120>
 8005aa4:	4654      	mov	r4, sl
 8005aa6:	2000      	movs	r0, #0
 8005aa8:	f04f 0c0a 	mov.w	ip, #10
 8005aac:	9a07      	ldr	r2, [sp, #28]
 8005aae:	4621      	mov	r1, r4
 8005ab0:	f811 3b01 	ldrb.w	r3, [r1], #1
 8005ab4:	3b30      	subs	r3, #48	@ 0x30
 8005ab6:	2b09      	cmp	r3, #9
 8005ab8:	d94b      	bls.n	8005b52 <_vfiprintf_r+0x1a2>
 8005aba:	b1b0      	cbz	r0, 8005aea <_vfiprintf_r+0x13a>
 8005abc:	9207      	str	r2, [sp, #28]
 8005abe:	e014      	b.n	8005aea <_vfiprintf_r+0x13a>
 8005ac0:	eba0 0308 	sub.w	r3, r0, r8
 8005ac4:	fa09 f303 	lsl.w	r3, r9, r3
 8005ac8:	4313      	orrs	r3, r2
 8005aca:	46a2      	mov	sl, r4
 8005acc:	9304      	str	r3, [sp, #16]
 8005ace:	e7d2      	b.n	8005a76 <_vfiprintf_r+0xc6>
 8005ad0:	9b03      	ldr	r3, [sp, #12]
 8005ad2:	1d19      	adds	r1, r3, #4
 8005ad4:	681b      	ldr	r3, [r3, #0]
 8005ad6:	9103      	str	r1, [sp, #12]
 8005ad8:	2b00      	cmp	r3, #0
 8005ada:	bfbb      	ittet	lt
 8005adc:	425b      	neglt	r3, r3
 8005ade:	f042 0202 	orrlt.w	r2, r2, #2
 8005ae2:	9307      	strge	r3, [sp, #28]
 8005ae4:	9307      	strlt	r3, [sp, #28]
 8005ae6:	bfb8      	it	lt
 8005ae8:	9204      	strlt	r2, [sp, #16]
 8005aea:	7823      	ldrb	r3, [r4, #0]
 8005aec:	2b2e      	cmp	r3, #46	@ 0x2e
 8005aee:	d10a      	bne.n	8005b06 <_vfiprintf_r+0x156>
 8005af0:	7863      	ldrb	r3, [r4, #1]
 8005af2:	2b2a      	cmp	r3, #42	@ 0x2a
 8005af4:	d132      	bne.n	8005b5c <_vfiprintf_r+0x1ac>
 8005af6:	9b03      	ldr	r3, [sp, #12]
 8005af8:	3402      	adds	r4, #2
 8005afa:	1d1a      	adds	r2, r3, #4
 8005afc:	681b      	ldr	r3, [r3, #0]
 8005afe:	9203      	str	r2, [sp, #12]
 8005b00:	ea43 73e3 	orr.w	r3, r3, r3, asr #31
 8005b04:	9305      	str	r3, [sp, #20]
 8005b06:	f8df a0c8 	ldr.w	sl, [pc, #200]	@ 8005bd0 <_vfiprintf_r+0x220>
 8005b0a:	2203      	movs	r2, #3
 8005b0c:	4650      	mov	r0, sl
 8005b0e:	7821      	ldrb	r1, [r4, #0]
 8005b10:	f7fe fc43 	bl	800439a <memchr>
 8005b14:	b138      	cbz	r0, 8005b26 <_vfiprintf_r+0x176>
 8005b16:	2240      	movs	r2, #64	@ 0x40
 8005b18:	9b04      	ldr	r3, [sp, #16]
 8005b1a:	eba0 000a 	sub.w	r0, r0, sl
 8005b1e:	4082      	lsls	r2, r0
 8005b20:	4313      	orrs	r3, r2
 8005b22:	3401      	adds	r4, #1
 8005b24:	9304      	str	r3, [sp, #16]
 8005b26:	f814 1b01 	ldrb.w	r1, [r4], #1
 8005b2a:	2206      	movs	r2, #6
 8005b2c:	4829      	ldr	r0, [pc, #164]	@ (8005bd4 <_vfiprintf_r+0x224>)
 8005b2e:	f88d 1028 	strb.w	r1, [sp, #40]	@ 0x28
 8005b32:	f7fe fc32 	bl	800439a <memchr>
 8005b36:	2800      	cmp	r0, #0
 8005b38:	d03f      	beq.n	8005bba <_vfiprintf_r+0x20a>
 8005b3a:	4b27      	ldr	r3, [pc, #156]	@ (8005bd8 <_vfiprintf_r+0x228>)
 8005b3c:	bb1b      	cbnz	r3, 8005b86 <_vfiprintf_r+0x1d6>
 8005b3e:	9b03      	ldr	r3, [sp, #12]
 8005b40:	3307      	adds	r3, #7
 8005b42:	f023 0307 	bic.w	r3, r3, #7
 8005b46:	3308      	adds	r3, #8
 8005b48:	9303      	str	r3, [sp, #12]
 8005b4a:	9b09      	ldr	r3, [sp, #36]	@ 0x24
 8005b4c:	443b      	add	r3, r7
 8005b4e:	9309      	str	r3, [sp, #36]	@ 0x24
 8005b50:	e76a      	b.n	8005a28 <_vfiprintf_r+0x78>
 8005b52:	460c      	mov	r4, r1
 8005b54:	2001      	movs	r0, #1
 8005b56:	fb0c 3202 	mla	r2, ip, r2, r3
 8005b5a:	e7a8      	b.n	8005aae <_vfiprintf_r+0xfe>
 8005b5c:	2300      	movs	r3, #0
 8005b5e:	f04f 0c0a 	mov.w	ip, #10
 8005b62:	4619      	mov	r1, r3
 8005b64:	3401      	adds	r4, #1
 8005b66:	9305      	str	r3, [sp, #20]
 8005b68:	4620      	mov	r0, r4
 8005b6a:	f810 2b01 	ldrb.w	r2, [r0], #1
 8005b6e:	3a30      	subs	r2, #48	@ 0x30
 8005b70:	2a09      	cmp	r2, #9
 8005b72:	d903      	bls.n	8005b7c <_vfiprintf_r+0x1cc>
 8005b74:	2b00      	cmp	r3, #0
 8005b76:	d0c6      	beq.n	8005b06 <_vfiprintf_r+0x156>
 8005b78:	9105      	str	r1, [sp, #20]
 8005b7a:	e7c4      	b.n	8005b06 <_vfiprintf_r+0x156>
 8005b7c:	4604      	mov	r4, r0
 8005b7e:	2301      	movs	r3, #1
 8005b80:	fb0c 2101 	mla	r1, ip, r1, r2
 8005b84:	e7f0      	b.n	8005b68 <_vfiprintf_r+0x1b8>
 8005b86:	ab03      	add	r3, sp, #12
 8005b88:	9300      	str	r3, [sp, #0]
 8005b8a:	462a      	mov	r2, r5
 8005b8c:	4630      	mov	r0, r6
 8005b8e:	4b13      	ldr	r3, [pc, #76]	@ (8005bdc <_vfiprintf_r+0x22c>)
 8005b90:	a904      	add	r1, sp, #16
 8005b92:	f7fd fdbd 	bl	8003710 <_printf_float>
 8005b96:	4607      	mov	r7, r0
 8005b98:	1c78      	adds	r0, r7, #1
 8005b9a:	d1d6      	bne.n	8005b4a <_vfiprintf_r+0x19a>
 8005b9c:	6e6b      	ldr	r3, [r5, #100]	@ 0x64
 8005b9e:	07d9      	lsls	r1, r3, #31
 8005ba0:	d405      	bmi.n	8005bae <_vfiprintf_r+0x1fe>
 8005ba2:	89ab      	ldrh	r3, [r5, #12]
 8005ba4:	059a      	lsls	r2, r3, #22
 8005ba6:	d402      	bmi.n	8005bae <_vfiprintf_r+0x1fe>
 8005ba8:	6da8      	ldr	r0, [r5, #88]	@ 0x58
 8005baa:	f7fe fbf5 	bl	8004398 <__retarget_lock_release_recursive>
 8005bae:	89ab      	ldrh	r3, [r5, #12]
 8005bb0:	065b      	lsls	r3, r3, #25
 8005bb2:	f53f af1f 	bmi.w	80059f4 <_vfiprintf_r+0x44>
 8005bb6:	9809      	ldr	r0, [sp, #36]	@ 0x24
 8005bb8:	e71e      	b.n	80059f8 <_vfiprintf_r+0x48>
 8005bba:	ab03      	add	r3, sp, #12
 8005bbc:	9300      	str	r3, [sp, #0]
 8005bbe:	462a      	mov	r2, r5
 8005bc0:	4630      	mov	r0, r6
 8005bc2:	4b06      	ldr	r3, [pc, #24]	@ (8005bdc <_vfiprintf_r+0x22c>)
 8005bc4:	a904      	add	r1, sp, #16
 8005bc6:	f7fe f841 	bl	8003c4c <_printf_i>
 8005bca:	e7e4      	b.n	8005b96 <_vfiprintf_r+0x1e6>
 8005bcc:	0800616c 	.word	0x0800616c
 8005bd0:	08006172 	.word	0x08006172
 8005bd4:	08006176 	.word	0x08006176
 8005bd8:	08003711 	.word	0x08003711
 8005bdc:	0800598b 	.word	0x0800598b

08005be0 <__sflush_r>:
 8005be0:	f9b1 200c 	ldrsh.w	r2, [r1, #12]
 8005be4:	b5f8      	push	{r3, r4, r5, r6, r7, lr}
 8005be6:	0716      	lsls	r6, r2, #28
 8005be8:	4605      	mov	r5, r0
 8005bea:	460c      	mov	r4, r1
 8005bec:	d454      	bmi.n	8005c98 <__sflush_r+0xb8>
 8005bee:	684b      	ldr	r3, [r1, #4]
 8005bf0:	2b00      	cmp	r3, #0
 8005bf2:	dc02      	bgt.n	8005bfa <__sflush_r+0x1a>
 8005bf4:	6c0b      	ldr	r3, [r1, #64]	@ 0x40
 8005bf6:	2b00      	cmp	r3, #0
 8005bf8:	dd48      	ble.n	8005c8c <__sflush_r+0xac>
 8005bfa:	6ae6      	ldr	r6, [r4, #44]	@ 0x2c
 8005bfc:	2e00      	cmp	r6, #0
 8005bfe:	d045      	beq.n	8005c8c <__sflush_r+0xac>
 8005c00:	2300      	movs	r3, #0
 8005c02:	f412 5280 	ands.w	r2, r2, #4096	@ 0x1000
 8005c06:	682f      	ldr	r7, [r5, #0]
 8005c08:	6a21      	ldr	r1, [r4, #32]
 8005c0a:	602b      	str	r3, [r5, #0]
 8005c0c:	d030      	beq.n	8005c70 <__sflush_r+0x90>
 8005c0e:	6d62      	ldr	r2, [r4, #84]	@ 0x54
 8005c10:	89a3      	ldrh	r3, [r4, #12]
 8005c12:	0759      	lsls	r1, r3, #29
 8005c14:	d505      	bpl.n	8005c22 <__sflush_r+0x42>
 8005c16:	6863      	ldr	r3, [r4, #4]
 8005c18:	1ad2      	subs	r2, r2, r3
 8005c1a:	6b63      	ldr	r3, [r4, #52]	@ 0x34
 8005c1c:	b10b      	cbz	r3, 8005c22 <__sflush_r+0x42>
 8005c1e:	6c23      	ldr	r3, [r4, #64]	@ 0x40
 8005c20:	1ad2      	subs	r2, r2, r3
 8005c22:	2300      	movs	r3, #0
 8005c24:	4628      	mov	r0, r5
 8005c26:	6ae6      	ldr	r6, [r4, #44]	@ 0x2c
 8005c28:	6a21      	ldr	r1, [r4, #32]
 8005c2a:	47b0      	blx	r6
 8005c2c:	1c43      	adds	r3, r0, #1
 8005c2e:	89a3      	ldrh	r3, [r4, #12]
 8005c30:	d106      	bne.n	8005c40 <__sflush_r+0x60>
 8005c32:	6829      	ldr	r1, [r5, #0]
 8005c34:	291d      	cmp	r1, #29
 8005c36:	d82b      	bhi.n	8005c90 <__sflush_r+0xb0>
 8005c38:	4a28      	ldr	r2, [pc, #160]	@ (8005cdc <__sflush_r+0xfc>)
 8005c3a:	40ca      	lsrs	r2, r1
 8005c3c:	07d6      	lsls	r6, r2, #31
 8005c3e:	d527      	bpl.n	8005c90 <__sflush_r+0xb0>
 8005c40:	2200      	movs	r2, #0
 8005c42:	6062      	str	r2, [r4, #4]
 8005c44:	6922      	ldr	r2, [r4, #16]
 8005c46:	04d9      	lsls	r1, r3, #19
 8005c48:	6022      	str	r2, [r4, #0]
 8005c4a:	d504      	bpl.n	8005c56 <__sflush_r+0x76>
 8005c4c:	1c42      	adds	r2, r0, #1
 8005c4e:	d101      	bne.n	8005c54 <__sflush_r+0x74>
 8005c50:	682b      	ldr	r3, [r5, #0]
 8005c52:	b903      	cbnz	r3, 8005c56 <__sflush_r+0x76>
 8005c54:	6560      	str	r0, [r4, #84]	@ 0x54
 8005c56:	6b61      	ldr	r1, [r4, #52]	@ 0x34
 8005c58:	602f      	str	r7, [r5, #0]
 8005c5a:	b1b9      	cbz	r1, 8005c8c <__sflush_r+0xac>
 8005c5c:	f104 0344 	add.w	r3, r4, #68	@ 0x44
 8005c60:	4299      	cmp	r1, r3
 8005c62:	d002      	beq.n	8005c6a <__sflush_r+0x8a>
 8005c64:	4628      	mov	r0, r5
 8005c66:	f7ff fa03 	bl	8005070 <_free_r>
 8005c6a:	2300      	movs	r3, #0
 8005c6c:	6363      	str	r3, [r4, #52]	@ 0x34
 8005c6e:	e00d      	b.n	8005c8c <__sflush_r+0xac>
 8005c70:	2301      	movs	r3, #1
 8005c72:	4628      	mov	r0, r5
 8005c74:	47b0      	blx	r6
 8005c76:	4602      	mov	r2, r0
 8005c78:	1c50      	adds	r0, r2, #1
 8005c7a:	d1c9      	bne.n	8005c10 <__sflush_r+0x30>
 8005c7c:	682b      	ldr	r3, [r5, #0]
 8005c7e:	2b00      	cmp	r3, #0
 8005c80:	d0c6      	beq.n	8005c10 <__sflush_r+0x30>
 8005c82:	2b1d      	cmp	r3, #29
 8005c84:	d001      	beq.n	8005c8a <__sflush_r+0xaa>
 8005c86:	2b16      	cmp	r3, #22
 8005c88:	d11d      	bne.n	8005cc6 <__sflush_r+0xe6>
 8005c8a:	602f      	str	r7, [r5, #0]
 8005c8c:	2000      	movs	r0, #0
 8005c8e:	e021      	b.n	8005cd4 <__sflush_r+0xf4>
 8005c90:	f043 0340 	orr.w	r3, r3, #64	@ 0x40
 8005c94:	b21b      	sxth	r3, r3
 8005c96:	e01a      	b.n	8005cce <__sflush_r+0xee>
 8005c98:	690f      	ldr	r7, [r1, #16]
 8005c9a:	2f00      	cmp	r7, #0
 8005c9c:	d0f6      	beq.n	8005c8c <__sflush_r+0xac>
 8005c9e:	0793      	lsls	r3, r2, #30
 8005ca0:	bf18      	it	ne
 8005ca2:	2300      	movne	r3, #0
 8005ca4:	680e      	ldr	r6, [r1, #0]
 8005ca6:	bf08      	it	eq
 8005ca8:	694b      	ldreq	r3, [r1, #20]
 8005caa:	1bf6      	subs	r6, r6, r7
 8005cac:	600f      	str	r7, [r1, #0]
 8005cae:	608b      	str	r3, [r1, #8]
 8005cb0:	2e00      	cmp	r6, #0
 8005cb2:	ddeb      	ble.n	8005c8c <__sflush_r+0xac>
 8005cb4:	4633      	mov	r3, r6
 8005cb6:	463a      	mov	r2, r7
 8005cb8:	4628      	mov	r0, r5
 8005cba:	6a21      	ldr	r1, [r4, #32]
 8005cbc:	f8d4 c028 	ldr.w	ip, [r4, #40]	@ 0x28
 8005cc0:	47e0      	blx	ip
 8005cc2:	2800      	cmp	r0, #0
 8005cc4:	dc07      	bgt.n	8005cd6 <__sflush_r+0xf6>
 8005cc6:	f9b4 300c 	ldrsh.w	r3, [r4, #12]
 8005cca:	f043 0340 	orr.w	r3, r3, #64	@ 0x40
 8005cce:	f04f 30ff 	mov.w	r0, #4294967295
 8005cd2:	81a3      	strh	r3, [r4, #12]
 8005cd4:	bdf8      	pop	{r3, r4, r5, r6, r7, pc}
 8005cd6:	4407      	add	r7, r0
 8005cd8:	1a36      	subs	r6, r6, r0
 8005cda:	e7e9      	b.n	8005cb0 <__sflush_r+0xd0>
 8005cdc:	20400001 	.word	0x20400001

08005ce0 <_fflush_r>:
 8005ce0:	b538      	push	{r3, r4, r5, lr}
 8005ce2:	690b      	ldr	r3, [r1, #16]
 8005ce4:	4605      	mov	r5, r0
 8005ce6:	460c      	mov	r4, r1
 8005ce8:	b913      	cbnz	r3, 8005cf0 <_fflush_r+0x10>
 8005cea:	2500      	movs	r5, #0
 8005cec:	4628      	mov	r0, r5
 8005cee:	bd38      	pop	{r3, r4, r5, pc}
 8005cf0:	b118      	cbz	r0, 8005cfa <_fflush_r+0x1a>
 8005cf2:	6a03      	ldr	r3, [r0, #32]
 8005cf4:	b90b      	cbnz	r3, 8005cfa <_fflush_r+0x1a>
 8005cf6:	f7fe f953 	bl	8003fa0 <__sinit>
 8005cfa:	f9b4 300c 	ldrsh.w	r3, [r4, #12]
 8005cfe:	2b00      	cmp	r3, #0
 8005d00:	d0f3      	beq.n	8005cea <_fflush_r+0xa>
 8005d02:	6e62      	ldr	r2, [r4, #100]	@ 0x64
 8005d04:	07d0      	lsls	r0, r2, #31
 8005d06:	d404      	bmi.n	8005d12 <_fflush_r+0x32>
 8005d08:	0599      	lsls	r1, r3, #22
 8005d0a:	d402      	bmi.n	8005d12 <_fflush_r+0x32>
 8005d0c:	6da0      	ldr	r0, [r4, #88]	@ 0x58
 8005d0e:	f7fe fb42 	bl	8004396 <__retarget_lock_acquire_recursive>
 8005d12:	4628      	mov	r0, r5
 8005d14:	4621      	mov	r1, r4
 8005d16:	f7ff ff63 	bl	8005be0 <__sflush_r>
 8005d1a:	6e63      	ldr	r3, [r4, #100]	@ 0x64
 8005d1c:	4605      	mov	r5, r0
 8005d1e:	07da      	lsls	r2, r3, #31
 8005d20:	d4e4      	bmi.n	8005cec <_fflush_r+0xc>
 8005d22:	89a3      	ldrh	r3, [r4, #12]
 8005d24:	059b      	lsls	r3, r3, #22
 8005d26:	d4e1      	bmi.n	8005cec <_fflush_r+0xc>
 8005d28:	6da0      	ldr	r0, [r4, #88]	@ 0x58
 8005d2a:	f7fe fb35 	bl	8004398 <__retarget_lock_release_recursive>
 8005d2e:	e7dd      	b.n	8005cec <_fflush_r+0xc>

08005d30 <__swhatbuf_r>:
 8005d30:	b570      	push	{r4, r5, r6, lr}
 8005d32:	460c      	mov	r4, r1
 8005d34:	f9b1 100e 	ldrsh.w	r1, [r1, #14]
 8005d38:	4615      	mov	r5, r2
 8005d3a:	2900      	cmp	r1, #0
 8005d3c:	461e      	mov	r6, r3
 8005d3e:	b096      	sub	sp, #88	@ 0x58
 8005d40:	da0c      	bge.n	8005d5c <__swhatbuf_r+0x2c>
 8005d42:	89a3      	ldrh	r3, [r4, #12]
 8005d44:	2100      	movs	r1, #0
 8005d46:	f013 0f80 	tst.w	r3, #128	@ 0x80
 8005d4a:	bf14      	ite	ne
 8005d4c:	2340      	movne	r3, #64	@ 0x40
 8005d4e:	f44f 6380 	moveq.w	r3, #1024	@ 0x400
 8005d52:	2000      	movs	r0, #0
 8005d54:	6031      	str	r1, [r6, #0]
 8005d56:	602b      	str	r3, [r5, #0]
 8005d58:	b016      	add	sp, #88	@ 0x58
 8005d5a:	bd70      	pop	{r4, r5, r6, pc}
 8005d5c:	466a      	mov	r2, sp
 8005d5e:	f000 f849 	bl	8005df4 <_fstat_r>
 8005d62:	2800      	cmp	r0, #0
 8005d64:	dbed      	blt.n	8005d42 <__swhatbuf_r+0x12>
 8005d66:	9901      	ldr	r1, [sp, #4]
 8005d68:	f401 4170 	and.w	r1, r1, #61440	@ 0xf000
 8005d6c:	f5a1 5300 	sub.w	r3, r1, #8192	@ 0x2000
 8005d70:	4259      	negs	r1, r3
 8005d72:	4159      	adcs	r1, r3
 8005d74:	f44f 6380 	mov.w	r3, #1024	@ 0x400
 8005d78:	e7eb      	b.n	8005d52 <__swhatbuf_r+0x22>

08005d7a <__smakebuf_r>:
 8005d7a:	898b      	ldrh	r3, [r1, #12]
 8005d7c:	b5f7      	push	{r0, r1, r2, r4, r5, r6, r7, lr}
 8005d7e:	079d      	lsls	r5, r3, #30
 8005d80:	4606      	mov	r6, r0
 8005d82:	460c      	mov	r4, r1
 8005d84:	d507      	bpl.n	8005d96 <__smakebuf_r+0x1c>
 8005d86:	f104 0347 	add.w	r3, r4, #71	@ 0x47
 8005d8a:	6023      	str	r3, [r4, #0]
 8005d8c:	6123      	str	r3, [r4, #16]
 8005d8e:	2301      	movs	r3, #1
 8005d90:	6163      	str	r3, [r4, #20]
 8005d92:	b003      	add	sp, #12
 8005d94:	bdf0      	pop	{r4, r5, r6, r7, pc}
 8005d96:	466a      	mov	r2, sp
 8005d98:	ab01      	add	r3, sp, #4
 8005d9a:	f7ff ffc9 	bl	8005d30 <__swhatbuf_r>
 8005d9e:	9f00      	ldr	r7, [sp, #0]
 8005da0:	4605      	mov	r5, r0
 8005da2:	4639      	mov	r1, r7
 8005da4:	4630      	mov	r0, r6
 8005da6:	f7ff f9d5 	bl	8005154 <_malloc_r>
 8005daa:	b948      	cbnz	r0, 8005dc0 <__smakebuf_r+0x46>
 8005dac:	f9b4 300c 	ldrsh.w	r3, [r4, #12]
 8005db0:	059a      	lsls	r2, r3, #22
 8005db2:	d4ee      	bmi.n	8005d92 <__smakebuf_r+0x18>
 8005db4:	f023 0303 	bic.w	r3, r3, #3
 8005db8:	f043 0302 	orr.w	r3, r3, #2
 8005dbc:	81a3      	strh	r3, [r4, #12]
 8005dbe:	e7e2      	b.n	8005d86 <__smakebuf_r+0xc>
 8005dc0:	89a3      	ldrh	r3, [r4, #12]
 8005dc2:	e9c4 0704 	strd	r0, r7, [r4, #16]
 8005dc6:	f043 0380 	orr.w	r3, r3, #128	@ 0x80
 8005dca:	81a3      	strh	r3, [r4, #12]
 8005dcc:	9b01      	ldr	r3, [sp, #4]
 8005dce:	6020      	str	r0, [r4, #0]
 8005dd0:	b15b      	cbz	r3, 8005dea <__smakebuf_r+0x70>
 8005dd2:	4630      	mov	r0, r6
 8005dd4:	f9b4 100e 	ldrsh.w	r1, [r4, #14]
 8005dd8:	f000 f81e 	bl	8005e18 <_isatty_r>
 8005ddc:	b128      	cbz	r0, 8005dea <__smakebuf_r+0x70>
 8005dde:	89a3      	ldrh	r3, [r4, #12]
 8005de0:	f023 0303 	bic.w	r3, r3, #3
 8005de4:	f043 0301 	orr.w	r3, r3, #1
 8005de8:	81a3      	strh	r3, [r4, #12]
 8005dea:	89a3      	ldrh	r3, [r4, #12]
 8005dec:	431d      	orrs	r5, r3
 8005dee:	81a5      	strh	r5, [r4, #12]
 8005df0:	e7cf      	b.n	8005d92 <__smakebuf_r+0x18>
	...

08005df4 <_fstat_r>:
 8005df4:	b538      	push	{r3, r4, r5, lr}
 8005df6:	2300      	movs	r3, #0
 8005df8:	4d06      	ldr	r5, [pc, #24]	@ (8005e14 <_fstat_r+0x20>)
 8005dfa:	4604      	mov	r4, r0
 8005dfc:	4608      	mov	r0, r1
 8005dfe:	4611      	mov	r1, r2
 8005e00:	602b      	str	r3, [r5, #0]
 8005e02:	f7fb fb93 	bl	800152c <_fstat>
 8005e06:	1c43      	adds	r3, r0, #1
 8005e08:	d102      	bne.n	8005e10 <_fstat_r+0x1c>
 8005e0a:	682b      	ldr	r3, [r5, #0]
 8005e0c:	b103      	cbz	r3, 8005e10 <_fstat_r+0x1c>
 8005e0e:	6023      	str	r3, [r4, #0]
 8005e10:	bd38      	pop	{r3, r4, r5, pc}
 8005e12:	bf00      	nop
 8005e14:	200003ac 	.word	0x200003ac

08005e18 <_isatty_r>:
 8005e18:	b538      	push	{r3, r4, r5, lr}
 8005e1a:	2300      	movs	r3, #0
 8005e1c:	4d05      	ldr	r5, [pc, #20]	@ (8005e34 <_isatty_r+0x1c>)
 8005e1e:	4604      	mov	r4, r0
 8005e20:	4608      	mov	r0, r1
 8005e22:	602b      	str	r3, [r5, #0]
 8005e24:	f7fb fb91 	bl	800154a <_isatty>
 8005e28:	1c43      	adds	r3, r0, #1
 8005e2a:	d102      	bne.n	8005e32 <_isatty_r+0x1a>
 8005e2c:	682b      	ldr	r3, [r5, #0]
 8005e2e:	b103      	cbz	r3, 8005e32 <_isatty_r+0x1a>
 8005e30:	6023      	str	r3, [r4, #0]
 8005e32:	bd38      	pop	{r3, r4, r5, pc}
 8005e34:	200003ac 	.word	0x200003ac

08005e38 <_sbrk_r>:
 8005e38:	b538      	push	{r3, r4, r5, lr}
 8005e3a:	2300      	movs	r3, #0
 8005e3c:	4d05      	ldr	r5, [pc, #20]	@ (8005e54 <_sbrk_r+0x1c>)
 8005e3e:	4604      	mov	r4, r0
 8005e40:	4608      	mov	r0, r1
 8005e42:	602b      	str	r3, [r5, #0]
 8005e44:	f7fb fb98 	bl	8001578 <_sbrk>
 8005e48:	1c43      	adds	r3, r0, #1
 8005e4a:	d102      	bne.n	8005e52 <_sbrk_r+0x1a>
 8005e4c:	682b      	ldr	r3, [r5, #0]
 8005e4e:	b103      	cbz	r3, 8005e52 <_sbrk_r+0x1a>
 8005e50:	6023      	str	r3, [r4, #0]
 8005e52:	bd38      	pop	{r3, r4, r5, pc}
 8005e54:	200003ac 	.word	0x200003ac

08005e58 <memcpy>:
 8005e58:	440a      	add	r2, r1
 8005e5a:	4291      	cmp	r1, r2
 8005e5c:	f100 33ff 	add.w	r3, r0, #4294967295
 8005e60:	d100      	bne.n	8005e64 <memcpy+0xc>
 8005e62:	4770      	bx	lr
 8005e64:	b510      	push	{r4, lr}
 8005e66:	f811 4b01 	ldrb.w	r4, [r1], #1
 8005e6a:	4291      	cmp	r1, r2
 8005e6c:	f803 4f01 	strb.w	r4, [r3, #1]!
 8005e70:	d1f9      	bne.n	8005e66 <memcpy+0xe>
 8005e72:	bd10      	pop	{r4, pc}

08005e74 <__assert_func>:
 8005e74:	b51f      	push	{r0, r1, r2, r3, r4, lr}
 8005e76:	4614      	mov	r4, r2
 8005e78:	461a      	mov	r2, r3
 8005e7a:	4b09      	ldr	r3, [pc, #36]	@ (8005ea0 <__assert_func+0x2c>)
 8005e7c:	4605      	mov	r5, r0
 8005e7e:	681b      	ldr	r3, [r3, #0]
 8005e80:	68d8      	ldr	r0, [r3, #12]
 8005e82:	b14c      	cbz	r4, 8005e98 <__assert_func+0x24>
 8005e84:	4b07      	ldr	r3, [pc, #28]	@ (8005ea4 <__assert_func+0x30>)
 8005e86:	e9cd 3401 	strd	r3, r4, [sp, #4]
 8005e8a:	9100      	str	r1, [sp, #0]
 8005e8c:	462b      	mov	r3, r5
 8005e8e:	4906      	ldr	r1, [pc, #24]	@ (8005ea8 <__assert_func+0x34>)
 8005e90:	f000 f842 	bl	8005f18 <fiprintf>
 8005e94:	f000 f852 	bl	8005f3c <abort>
 8005e98:	4b04      	ldr	r3, [pc, #16]	@ (8005eac <__assert_func+0x38>)
 8005e9a:	461c      	mov	r4, r3
 8005e9c:	e7f3      	b.n	8005e86 <__assert_func+0x12>
 8005e9e:	bf00      	nop
 8005ea0:	20000018 	.word	0x20000018
 8005ea4:	08006187 	.word	0x08006187
 8005ea8:	08006194 	.word	0x08006194
 8005eac:	080061c2 	.word	0x080061c2

08005eb0 <_calloc_r>:
 8005eb0:	b570      	push	{r4, r5, r6, lr}
 8005eb2:	fba1 5402 	umull	r5, r4, r1, r2
 8005eb6:	b934      	cbnz	r4, 8005ec6 <_calloc_r+0x16>
 8005eb8:	4629      	mov	r1, r5
 8005eba:	f7ff f94b 	bl	8005154 <_malloc_r>
 8005ebe:	4606      	mov	r6, r0
 8005ec0:	b928      	cbnz	r0, 8005ece <_calloc_r+0x1e>
 8005ec2:	4630      	mov	r0, r6
 8005ec4:	bd70      	pop	{r4, r5, r6, pc}
 8005ec6:	220c      	movs	r2, #12
 8005ec8:	2600      	movs	r6, #0
 8005eca:	6002      	str	r2, [r0, #0]
 8005ecc:	e7f9      	b.n	8005ec2 <_calloc_r+0x12>
 8005ece:	462a      	mov	r2, r5
 8005ed0:	4621      	mov	r1, r4
 8005ed2:	f7fe f9e3 	bl	800429c <memset>
 8005ed6:	e7f4      	b.n	8005ec2 <_calloc_r+0x12>

08005ed8 <__ascii_mbtowc>:
 8005ed8:	b082      	sub	sp, #8
 8005eda:	b901      	cbnz	r1, 8005ede <__ascii_mbtowc+0x6>
 8005edc:	a901      	add	r1, sp, #4
 8005ede:	b142      	cbz	r2, 8005ef2 <__ascii_mbtowc+0x1a>
 8005ee0:	b14b      	cbz	r3, 8005ef6 <__ascii_mbtowc+0x1e>
 8005ee2:	7813      	ldrb	r3, [r2, #0]
 8005ee4:	600b      	str	r3, [r1, #0]
 8005ee6:	7812      	ldrb	r2, [r2, #0]
 8005ee8:	1e10      	subs	r0, r2, #0
 8005eea:	bf18      	it	ne
 8005eec:	2001      	movne	r0, #1
 8005eee:	b002      	add	sp, #8
 8005ef0:	4770      	bx	lr
 8005ef2:	4610      	mov	r0, r2
 8005ef4:	e7fb      	b.n	8005eee <__ascii_mbtowc+0x16>
 8005ef6:	f06f 0001 	mvn.w	r0, #1
 8005efa:	e7f8      	b.n	8005eee <__ascii_mbtowc+0x16>

08005efc <__ascii_wctomb>:
 8005efc:	4603      	mov	r3, r0
 8005efe:	4608      	mov	r0, r1
 8005f00:	b141      	cbz	r1, 8005f14 <__ascii_wctomb+0x18>
 8005f02:	2aff      	cmp	r2, #255	@ 0xff
 8005f04:	d904      	bls.n	8005f10 <__ascii_wctomb+0x14>
 8005f06:	228a      	movs	r2, #138	@ 0x8a
 8005f08:	f04f 30ff 	mov.w	r0, #4294967295
 8005f0c:	601a      	str	r2, [r3, #0]
 8005f0e:	4770      	bx	lr
 8005f10:	2001      	movs	r0, #1
 8005f12:	700a      	strb	r2, [r1, #0]
 8005f14:	4770      	bx	lr
	...

08005f18 <fiprintf>:
 8005f18:	b40e      	push	{r1, r2, r3}
 8005f1a:	b503      	push	{r0, r1, lr}
 8005f1c:	4601      	mov	r1, r0
 8005f1e:	ab03      	add	r3, sp, #12
 8005f20:	4805      	ldr	r0, [pc, #20]	@ (8005f38 <fiprintf+0x20>)
 8005f22:	f853 2b04 	ldr.w	r2, [r3], #4
 8005f26:	6800      	ldr	r0, [r0, #0]
 8005f28:	9301      	str	r3, [sp, #4]
 8005f2a:	f7ff fd41 	bl	80059b0 <_vfiprintf_r>
 8005f2e:	b002      	add	sp, #8
 8005f30:	f85d eb04 	ldr.w	lr, [sp], #4
 8005f34:	b003      	add	sp, #12
 8005f36:	4770      	bx	lr
 8005f38:	20000018 	.word	0x20000018

08005f3c <abort>:
 8005f3c:	2006      	movs	r0, #6
 8005f3e:	b508      	push	{r3, lr}
 8005f40:	f000 f82c 	bl	8005f9c <raise>
 8005f44:	2001      	movs	r0, #1
 8005f46:	f7fb faa2 	bl	800148e <_exit>

08005f4a <_raise_r>:
 8005f4a:	291f      	cmp	r1, #31
 8005f4c:	b538      	push	{r3, r4, r5, lr}
 8005f4e:	4605      	mov	r5, r0
 8005f50:	460c      	mov	r4, r1
 8005f52:	d904      	bls.n	8005f5e <_raise_r+0x14>
 8005f54:	2316      	movs	r3, #22
 8005f56:	6003      	str	r3, [r0, #0]
 8005f58:	f04f 30ff 	mov.w	r0, #4294967295
 8005f5c:	bd38      	pop	{r3, r4, r5, pc}
 8005f5e:	6bc2      	ldr	r2, [r0, #60]	@ 0x3c
 8005f60:	b112      	cbz	r2, 8005f68 <_raise_r+0x1e>
 8005f62:	f852 3021 	ldr.w	r3, [r2, r1, lsl #2]
 8005f66:	b94b      	cbnz	r3, 8005f7c <_raise_r+0x32>
 8005f68:	4628      	mov	r0, r5
 8005f6a:	f000 f831 	bl	8005fd0 <_getpid_r>
 8005f6e:	4622      	mov	r2, r4
 8005f70:	4601      	mov	r1, r0
 8005f72:	4628      	mov	r0, r5
 8005f74:	e8bd 4038 	ldmia.w	sp!, {r3, r4, r5, lr}
 8005f78:	f000 b818 	b.w	8005fac <_kill_r>
 8005f7c:	2b01      	cmp	r3, #1
 8005f7e:	d00a      	beq.n	8005f96 <_raise_r+0x4c>
 8005f80:	1c59      	adds	r1, r3, #1
 8005f82:	d103      	bne.n	8005f8c <_raise_r+0x42>
 8005f84:	2316      	movs	r3, #22
 8005f86:	6003      	str	r3, [r0, #0]
 8005f88:	2001      	movs	r0, #1
 8005f8a:	e7e7      	b.n	8005f5c <_raise_r+0x12>
 8005f8c:	2100      	movs	r1, #0
 8005f8e:	4620      	mov	r0, r4
 8005f90:	f842 1024 	str.w	r1, [r2, r4, lsl #2]
 8005f94:	4798      	blx	r3
 8005f96:	2000      	movs	r0, #0
 8005f98:	e7e0      	b.n	8005f5c <_raise_r+0x12>
	...

08005f9c <raise>:
 8005f9c:	4b02      	ldr	r3, [pc, #8]	@ (8005fa8 <raise+0xc>)
 8005f9e:	4601      	mov	r1, r0
 8005fa0:	6818      	ldr	r0, [r3, #0]
 8005fa2:	f7ff bfd2 	b.w	8005f4a <_raise_r>
 8005fa6:	bf00      	nop
 8005fa8:	20000018 	.word	0x20000018

08005fac <_kill_r>:
 8005fac:	b538      	push	{r3, r4, r5, lr}
 8005fae:	2300      	movs	r3, #0
 8005fb0:	4d06      	ldr	r5, [pc, #24]	@ (8005fcc <_kill_r+0x20>)
 8005fb2:	4604      	mov	r4, r0
 8005fb4:	4608      	mov	r0, r1
 8005fb6:	4611      	mov	r1, r2
 8005fb8:	602b      	str	r3, [r5, #0]
 8005fba:	f7fb fa58 	bl	800146e <_kill>
 8005fbe:	1c43      	adds	r3, r0, #1
 8005fc0:	d102      	bne.n	8005fc8 <_kill_r+0x1c>
 8005fc2:	682b      	ldr	r3, [r5, #0]
 8005fc4:	b103      	cbz	r3, 8005fc8 <_kill_r+0x1c>
 8005fc6:	6023      	str	r3, [r4, #0]
 8005fc8:	bd38      	pop	{r3, r4, r5, pc}
 8005fca:	bf00      	nop
 8005fcc:	200003ac 	.word	0x200003ac

08005fd0 <_getpid_r>:
 8005fd0:	f7fb ba46 	b.w	8001460 <_getpid>

08005fd4 <_init>:
 8005fd4:	b5f8      	push	{r3, r4, r5, r6, r7, lr}
 8005fd6:	bf00      	nop
 8005fd8:	bcf8      	pop	{r3, r4, r5, r6, r7}
 8005fda:	bc08      	pop	{r3}
 8005fdc:	469e      	mov	lr, r3
 8005fde:	4770      	bx	lr

08005fe0 <_fini>:
 8005fe0:	b5f8      	push	{r3, r4, r5, r6, r7, lr}
 8005fe2:	bf00      	nop
 8005fe4:	bcf8      	pop	{r3, r4, r5, r6, r7}
 8005fe6:	bc08      	pop	{r3}
 8005fe8:	469e      	mov	lr, r3
 8005fea:	4770      	bx	lr
